ARM GAS  C:\Users\WENHUA~1\AppData\Local\Temp\ccJqRDmD.s 			page 1


   1              		.cpu cortex-m3
   2              		.arch armv7-m
   3              		.fpu softvfp
   4              		.eabi_attribute 20, 1
   5              		.eabi_attribute 21, 1
   6              		.eabi_attribute 23, 3
   7              		.eabi_attribute 24, 1
   8              		.eabi_attribute 25, 1
   9              		.eabi_attribute 26, 1
  10              		.eabi_attribute 30, 2
  11              		.eabi_attribute 34, 1
  12              		.eabi_attribute 18, 4
  13              		.file	"esp8266_at.c"
  14              		.text
  15              	.Ltext0:
  16              		.cfi_sections	.debug_frame
  17              		.section	.text.GetMonth,"ax",%progbits
  18              		.align	1
  19              		.p2align 2,,3
  20              		.global	GetMonth
  21              		.syntax unified
  22              		.thumb
  23              		.thumb_func
  25              	GetMonth:
  26              	.LVL0:
  27              	.LFB70:
  28              		.file 1 "user/esp8266/esp8266_at.c"
   1:user/esp8266/esp8266_at.c **** #include "esp8266_at.h"
   2:user/esp8266/esp8266_at.c **** #include <stdio.h>
   3:user/esp8266/esp8266_at.c **** #include <string.h>
   4:user/esp8266/esp8266_at.c **** #include <stdint.h>
   5:user/esp8266/esp8266_at.c **** #include <stdbool.h>
   6:user/esp8266/esp8266_at.c **** #include "main.h"
   7:user/esp8266/esp8266_at.c **** #include "usart.h"
   8:user/esp8266/esp8266_at.c **** #include "time.h"
   9:user/esp8266/esp8266_at.c **** #include "lunar_calendar.h"
  10:user/esp8266/esp8266_at.c **** 
  11:user/esp8266/esp8266_at.c **** #if (WIFI_MODULE == WIFI_ESP8266)
  12:user/esp8266/esp8266_at.c **** 
  13:user/esp8266/esp8266_at.c **** #define MON 0x004d6f6e
  14:user/esp8266/esp8266_at.c **** #define TUE 0x00547565
  15:user/esp8266/esp8266_at.c **** #define WED 0x00576564
  16:user/esp8266/esp8266_at.c **** #define THU 0x00546875
  17:user/esp8266/esp8266_at.c **** #define FRI 0x00467269
  18:user/esp8266/esp8266_at.c **** #define SAT 0x00536174
  19:user/esp8266/esp8266_at.c **** #define SUN 0x0053756e
  20:user/esp8266/esp8266_at.c **** 
  21:user/esp8266/esp8266_at.c **** #define JAN 0x004a616e
  22:user/esp8266/esp8266_at.c **** #define FEB 0x00466562
  23:user/esp8266/esp8266_at.c **** #define MAR 0x004d6172
  24:user/esp8266/esp8266_at.c **** #define APR 0x00417072
  25:user/esp8266/esp8266_at.c **** #define MAY 0x004d6179
  26:user/esp8266/esp8266_at.c **** #define JUN 0x004a756e
  27:user/esp8266/esp8266_at.c **** #define JUL 0x004a756c
  28:user/esp8266/esp8266_at.c **** #define AUG 0x00417567
  29:user/esp8266/esp8266_at.c **** #define SEP 0x00536570
  30:user/esp8266/esp8266_at.c **** #define OCT 0x004f6374
ARM GAS  C:\Users\WENHUA~1\AppData\Local\Temp\ccJqRDmD.s 			page 2


  31:user/esp8266/esp8266_at.c **** #define NOV 0x004e6f76
  32:user/esp8266/esp8266_at.c **** #define DEC 0x00446563
  33:user/esp8266/esp8266_at.c **** 
  34:user/esp8266/esp8266_at.c **** #define GET_TIME_6S (6)
  35:user/esp8266/esp8266_at.c **** #define GET_TIME_8S (8)
  36:user/esp8266/esp8266_at.c **** #define GET_TIME_10S (10)
  37:user/esp8266/esp8266_at.c **** #define GET_TIME_14S (14)
  38:user/esp8266/esp8266_at.c **** 
  39:user/esp8266/esp8266_at.c **** enum ConnectFlag {
  40:user/esp8266/esp8266_at.c ****     DISCONNECT,
  41:user/esp8266/esp8266_at.c ****     CONNECT,
  42:user/esp8266/esp8266_at.c **** };
  43:user/esp8266/esp8266_at.c **** 
  44:user/esp8266/esp8266_at.c **** #define WIFI_OFF_TIME (2 * 60) /* 2min */
  45:user/esp8266/esp8266_at.c **** #define ESP8266_AT_POWER_PIN_HIGH()                                            \
  46:user/esp8266/esp8266_at.c ****     do {                                                                       \
  47:user/esp8266/esp8266_at.c ****         HAL_GPIO_WritePin(WIFI_POWER_GPIO_Port, WIFI_POWER_Pin, GPIO_PIN_SET); \
  48:user/esp8266/esp8266_at.c ****     } while (0)
  49:user/esp8266/esp8266_at.c **** #define ESP8266_AT_POWER_PIN_LOW()                                               \
  50:user/esp8266/esp8266_at.c ****     do {                                                                         \
  51:user/esp8266/esp8266_at.c ****         HAL_GPIO_WritePin(WIFI_POWER_GPIO_Port, WIFI_POWER_Pin, GPIO_PIN_RESET); \
  52:user/esp8266/esp8266_at.c ****     } while (0)
  53:user/esp8266/esp8266_at.c **** 
  54:user/esp8266/esp8266_at.c **** #define WIFI_NAME_PASSWD "AT+CWJAP_DEF=\"HSG2\",\"13537011631\"\r\n"
  55:user/esp8266/esp8266_at.c **** 
  56:user/esp8266/esp8266_at.c **** struct Esp8266GetTimeType {
  57:user/esp8266/esp8266_at.c ****     uint8_t powerOffCtr;
  58:user/esp8266/esp8266_at.c ****     uint8_t getTimeCtr;
  59:user/esp8266/esp8266_at.c ****     uint8_t renewInitCtr1;
  60:user/esp8266/esp8266_at.c ****     uint8_t renewInitCtr2;
  61:user/esp8266/esp8266_at.c ****     enum ConnectFlag connect;
  62:user/esp8266/esp8266_at.c ****     bool okFlag;
  63:user/esp8266/esp8266_at.c **** };
  64:user/esp8266/esp8266_at.c **** struct Esp8266GetTimeType g_getTime;
  65:user/esp8266/esp8266_at.c **** 
  66:user/esp8266/esp8266_at.c **** static uint8_t AscToHex(uint8_t asc)
  67:user/esp8266/esp8266_at.c **** {
  68:user/esp8266/esp8266_at.c ****     uint8_t hex = asc;
  69:user/esp8266/esp8266_at.c **** 
  70:user/esp8266/esp8266_at.c ****     if ((asc >= 0x30) && (asc <= 0x39)) {
  71:user/esp8266/esp8266_at.c ****         hex -= 0x30;
  72:user/esp8266/esp8266_at.c ****     } else if ((asc >= 0x41) && (asc <= 0x46)) {
  73:user/esp8266/esp8266_at.c ****         hex -= 0x37;
  74:user/esp8266/esp8266_at.c ****     } else if ((asc >= 0x61) && (asc <= 0x66)) {
  75:user/esp8266/esp8266_at.c ****         hex -= 0x57;
  76:user/esp8266/esp8266_at.c ****     } else {
  77:user/esp8266/esp8266_at.c ****         hex = 0xff;
  78:user/esp8266/esp8266_at.c ****     }
  79:user/esp8266/esp8266_at.c **** 
  80:user/esp8266/esp8266_at.c ****     return hex;
  81:user/esp8266/esp8266_at.c **** }
  82:user/esp8266/esp8266_at.c **** 
  83:user/esp8266/esp8266_at.c **** static uint8_t GetWeek(uint32_t weekString)
  84:user/esp8266/esp8266_at.c **** {
  85:user/esp8266/esp8266_at.c ****     uint8_t i;
  86:user/esp8266/esp8266_at.c ****     uint8_t tableLen;
  87:user/esp8266/esp8266_at.c ****     uint32_t weekTable[] = { SUN, MON, TUE, WED, THU, FRI, SAT };
ARM GAS  C:\Users\WENHUA~1\AppData\Local\Temp\ccJqRDmD.s 			page 3


  88:user/esp8266/esp8266_at.c **** 
  89:user/esp8266/esp8266_at.c ****     tableLen = sizeof(weekTable) / sizeof(uint32_t);
  90:user/esp8266/esp8266_at.c ****     for (i = 0; i < tableLen; i++) {
  91:user/esp8266/esp8266_at.c ****         if (weekTable[i] == weekString) {
  92:user/esp8266/esp8266_at.c ****             break;
  93:user/esp8266/esp8266_at.c ****         }
  94:user/esp8266/esp8266_at.c ****     }
  95:user/esp8266/esp8266_at.c **** 
  96:user/esp8266/esp8266_at.c ****     return i;
  97:user/esp8266/esp8266_at.c **** }
  98:user/esp8266/esp8266_at.c **** 
  99:user/esp8266/esp8266_at.c **** uint8_t GetMonth(uint32_t monthString)
 100:user/esp8266/esp8266_at.c **** {
  29              		.loc 1 100 1 view -0
  30              		.cfi_startproc
  31              		@ args = 0, pretend = 0, frame = 0
  32              		@ frame_needed = 0, uses_anonymous_args = 0
  33              		@ link register save eliminated.
 101:user/esp8266/esp8266_at.c ****     uint8_t i;
  34              		.loc 1 101 5 view .LVU1
 102:user/esp8266/esp8266_at.c ****     uint8_t tableLen;
  35              		.loc 1 102 5 view .LVU2
 103:user/esp8266/esp8266_at.c ****     uint32_t monthTable[] = { 0, JAN, FEB, MAR, APR, MAY, JUN, JUL, AUG, SEP, OCT, NOV, DEC };
  36              		.loc 1 103 5 view .LVU3
 104:user/esp8266/esp8266_at.c **** 
 105:user/esp8266/esp8266_at.c ****     tableLen = sizeof(monthTable) / sizeof(uint32_t);
  37              		.loc 1 105 5 view .LVU4
 106:user/esp8266/esp8266_at.c ****     for (i = 0; i < tableLen; i++) {
  38              		.loc 1 106 5 view .LVU5
  39              		.loc 1 106 17 view .LVU6
 107:user/esp8266/esp8266_at.c ****         if (monthTable[i] == monthString) {
  40              		.loc 1 107 9 view .LVU7
  41              		.loc 1 107 12 is_stmt 0 view .LVU8
  42 0000 0028     		cmp	r0, #0
  43 0002 3ED0     		beq	.L3
 106:user/esp8266/esp8266_at.c ****     for (i = 0; i < tableLen; i++) {
  44              		.loc 1 106 31 is_stmt 1 view .LVU9
  45              	.LVL1:
 106:user/esp8266/esp8266_at.c ****     for (i = 0; i < tableLen; i++) {
  46              		.loc 1 106 17 view .LVU10
  47              		.loc 1 107 9 view .LVU11
  48              		.loc 1 107 12 is_stmt 0 view .LVU12
  49 0004 294B     		ldr	r3, .L18
  50 0006 9842     		cmp	r0, r3
  51 0008 3CD0     		beq	.L5
 106:user/esp8266/esp8266_at.c ****     for (i = 0; i < tableLen; i++) {
  52              		.loc 1 106 31 is_stmt 1 view .LVU13
  53              	.LVL2:
 106:user/esp8266/esp8266_at.c ****     for (i = 0; i < tableLen; i++) {
  54              		.loc 1 106 17 view .LVU14
  55              		.loc 1 107 9 view .LVU15
  56              		.loc 1 107 12 is_stmt 0 view .LVU16
  57 000a A3F57F33 		sub	r3, r3, #261120
  58 000e 0C3B     		subs	r3, r3, #12
  59 0010 9842     		cmp	r0, r3
  60 0012 39D0     		beq	.L6
 106:user/esp8266/esp8266_at.c ****     for (i = 0; i < tableLen; i++) {
ARM GAS  C:\Users\WENHUA~1\AppData\Local\Temp\ccJqRDmD.s 			page 4


  61              		.loc 1 106 31 is_stmt 1 view .LVU17
  62              	.LVL3:
 106:user/esp8266/esp8266_at.c ****     for (i = 0; i < tableLen; i++) {
  63              		.loc 1 106 17 view .LVU18
  64              		.loc 1 107 9 view .LVU19
  65              		.loc 1 107 12 is_stmt 0 view .LVU20
  66 0014 03F5DF23 		add	r3, r3, #456704
  67 0018 03F58263 		add	r3, r3, #1040
  68 001c 9842     		cmp	r0, r3
  69 001e 35D0     		beq	.L7
 106:user/esp8266/esp8266_at.c ****     for (i = 0; i < tableLen; i++) {
  70              		.loc 1 106 31 is_stmt 1 view .LVU21
  71              	.LVL4:
 106:user/esp8266/esp8266_at.c ****     for (i = 0; i < tableLen; i++) {
  72              		.loc 1 106 17 view .LVU22
  73              		.loc 1 107 9 view .LVU23
  74              		.loc 1 107 12 is_stmt 0 view .LVU24
  75 0020 A3F53F23 		sub	r3, r3, #782336
  76 0024 A3F58073 		sub	r3, r3, #256
  77 0028 9842     		cmp	r0, r3
  78 002a 31D0     		beq	.L8
 106:user/esp8266/esp8266_at.c ****     for (i = 0; i < tableLen; i++) {
  79              		.loc 1 106 31 is_stmt 1 view .LVU25
  80              	.LVL5:
 106:user/esp8266/esp8266_at.c ****     for (i = 0; i < tableLen; i++) {
  81              		.loc 1 106 17 view .LVU26
  82              		.loc 1 107 9 view .LVU27
  83              		.loc 1 107 12 is_stmt 0 view .LVU28
  84 002c 03F53F23 		add	r3, r3, #782336
  85 0030 03F20713 		addw	r3, r3, #263
  86 0034 9842     		cmp	r0, r3
  87 0036 2DD0     		beq	.L9
 106:user/esp8266/esp8266_at.c ****     for (i = 0; i < tableLen; i++) {
  88              		.loc 1 106 31 is_stmt 1 view .LVU29
  89              	.LVL6:
 106:user/esp8266/esp8266_at.c ****     for (i = 0; i < tableLen; i++) {
  90              		.loc 1 106 17 view .LVU30
  91              		.loc 1 107 9 view .LVU31
  92              		.loc 1 107 12 is_stmt 0 view .LVU32
  93 0038 A3F53B33 		sub	r3, r3, #191488
  94 003c 0B3B     		subs	r3, r3, #11
  95 003e 9842     		cmp	r0, r3
  96 0040 2AD0     		beq	.L10
 106:user/esp8266/esp8266_at.c ****     for (i = 0; i < tableLen; i++) {
  97              		.loc 1 106 31 is_stmt 1 view .LVU33
  98              	.LVL7:
 106:user/esp8266/esp8266_at.c ****     for (i = 0; i < tableLen; i++) {
  99              		.loc 1 106 17 view .LVU34
 100              		.loc 1 107 9 view .LVU35
 101              		.loc 1 107 12 is_stmt 0 view .LVU36
 102 0042 023B     		subs	r3, r3, #2
 103 0044 9842     		cmp	r0, r3
 104 0046 29D0     		beq	.L11
 106:user/esp8266/esp8266_at.c ****     for (i = 0; i < tableLen; i++) {
 105              		.loc 1 106 31 is_stmt 1 view .LVU37
 106              	.LVL8:
 106:user/esp8266/esp8266_at.c ****     for (i = 0; i < tableLen; i++) {
ARM GAS  C:\Users\WENHUA~1\AppData\Local\Temp\ccJqRDmD.s 			page 5


 107              		.loc 1 106 17 view .LVU38
 108              		.loc 1 107 9 view .LVU39
 109              		.loc 1 107 12 is_stmt 0 view .LVU40
 110 0048 A3F51023 		sub	r3, r3, #589824
 111 004c 053B     		subs	r3, r3, #5
 112 004e 9842     		cmp	r0, r3
 113 0050 26D0     		beq	.L12
 106:user/esp8266/esp8266_at.c ****     for (i = 0; i < tableLen; i++) {
 114              		.loc 1 106 31 is_stmt 1 view .LVU41
 115              	.LVL9:
 106:user/esp8266/esp8266_at.c ****     for (i = 0; i < tableLen; i++) {
 116              		.loc 1 106 17 view .LVU42
 117              		.loc 1 107 9 view .LVU43
 118              		.loc 1 107 12 is_stmt 0 view .LVU44
 119 0052 174B     		ldr	r3, .L18+4
 120 0054 9842     		cmp	r0, r3
 121 0056 25D0     		beq	.L13
 106:user/esp8266/esp8266_at.c ****     for (i = 0; i < tableLen; i++) {
 122              		.loc 1 106 31 is_stmt 1 view .LVU45
 123              	.LVL10:
 106:user/esp8266/esp8266_at.c ****     for (i = 0; i < tableLen; i++) {
 124              		.loc 1 106 17 view .LVU46
 125              		.loc 1 107 9 view .LVU47
 126              		.loc 1 107 12 is_stmt 0 view .LVU48
 127 0058 A3F58023 		sub	r3, r3, #262144
 128 005c A3F5FE73 		sub	r3, r3, #508
 129 0060 9842     		cmp	r0, r3
 130 0062 21D0     		beq	.L14
 106:user/esp8266/esp8266_at.c ****     for (i = 0; i < tableLen; i++) {
 131              		.loc 1 106 31 is_stmt 1 view .LVU49
 132              	.LVL11:
 106:user/esp8266/esp8266_at.c ****     for (i = 0; i < tableLen; i++) {
 133              		.loc 1 106 17 view .LVU50
 134              		.loc 1 107 9 view .LVU51
 135              		.loc 1 107 12 is_stmt 0 view .LVU52
 136 0064 A3F57343 		sub	r3, r3, #62208
 137 0068 FE3B     		subs	r3, r3, #254
 138 006a 9842     		cmp	r0, r3
 139 006c 08D0     		beq	.L15
 106:user/esp8266/esp8266_at.c ****     for (i = 0; i < tableLen; i++) {
 140              		.loc 1 106 31 is_stmt 1 view .LVU53
 141              	.LVL12:
 106:user/esp8266/esp8266_at.c ****     for (i = 0; i < tableLen; i++) {
 142              		.loc 1 106 17 view .LVU54
 143              		.loc 1 107 9 view .LVU55
 144              		.loc 1 107 12 is_stmt 0 view .LVU56
 145 006e A3F52023 		sub	r3, r3, #655360
 146 0072 A3F61323 		subw	r3, r3, #2579
 106:user/esp8266/esp8266_at.c ****     for (i = 0; i < tableLen; i++) {
 147              		.loc 1 106 32 view .LVU57
 148 0076 9842     		cmp	r0, r3
 149 0078 14BF     		ite	ne
 150 007a 0D20     		movne	r0, #13
 151 007c 0C20     		moveq	r0, #12
 152              	.LVL13:
 106:user/esp8266/esp8266_at.c ****     for (i = 0; i < tableLen; i++) {
 153              		.loc 1 106 32 view .LVU58
ARM GAS  C:\Users\WENHUA~1\AppData\Local\Temp\ccJqRDmD.s 			page 6


 154 007e 7047     		bx	lr
 155              	.LVL14:
 156              	.L15:
 106:user/esp8266/esp8266_at.c ****     for (i = 0; i < tableLen; i++) {
 157              		.loc 1 106 32 view .LVU59
 158 0080 0B20     		movs	r0, #11
 159              	.LVL15:
 160              	.L3:
 108:user/esp8266/esp8266_at.c ****             break;
 109:user/esp8266/esp8266_at.c ****         }
 110:user/esp8266/esp8266_at.c ****     }
 111:user/esp8266/esp8266_at.c **** 
 112:user/esp8266/esp8266_at.c ****     return i;
 161              		.loc 1 112 5 is_stmt 1 view .LVU60
 113:user/esp8266/esp8266_at.c **** }
 162              		.loc 1 113 1 is_stmt 0 view .LVU61
 163 0082 7047     		bx	lr
 164              	.LVL16:
 165              	.L5:
 106:user/esp8266/esp8266_at.c ****         if (monthTable[i] == monthString) {
 166              		.loc 1 106 32 view .LVU62
 167 0084 0120     		movs	r0, #1
 168              	.LVL17:
 106:user/esp8266/esp8266_at.c ****         if (monthTable[i] == monthString) {
 169              		.loc 1 106 32 view .LVU63
 170 0086 7047     		bx	lr
 171              	.LVL18:
 172              	.L6:
 106:user/esp8266/esp8266_at.c ****         if (monthTable[i] == monthString) {
 173              		.loc 1 106 32 view .LVU64
 174 0088 0220     		movs	r0, #2
 175              	.LVL19:
 106:user/esp8266/esp8266_at.c ****         if (monthTable[i] == monthString) {
 176              		.loc 1 106 32 view .LVU65
 177 008a 7047     		bx	lr
 178              	.LVL20:
 179              	.L7:
 106:user/esp8266/esp8266_at.c ****         if (monthTable[i] == monthString) {
 180              		.loc 1 106 32 view .LVU66
 181 008c 0320     		movs	r0, #3
 182              	.LVL21:
 106:user/esp8266/esp8266_at.c ****         if (monthTable[i] == monthString) {
 183              		.loc 1 106 32 view .LVU67
 184 008e 7047     		bx	lr
 185              	.LVL22:
 186              	.L8:
 106:user/esp8266/esp8266_at.c ****         if (monthTable[i] == monthString) {
 187              		.loc 1 106 32 view .LVU68
 188 0090 0420     		movs	r0, #4
 189              	.LVL23:
 106:user/esp8266/esp8266_at.c ****         if (monthTable[i] == monthString) {
 190              		.loc 1 106 32 view .LVU69
 191 0092 7047     		bx	lr
 192              	.LVL24:
 193              	.L9:
 106:user/esp8266/esp8266_at.c ****         if (monthTable[i] == monthString) {
 194              		.loc 1 106 32 view .LVU70
ARM GAS  C:\Users\WENHUA~1\AppData\Local\Temp\ccJqRDmD.s 			page 7


 195 0094 0520     		movs	r0, #5
 196              	.LVL25:
 106:user/esp8266/esp8266_at.c ****         if (monthTable[i] == monthString) {
 197              		.loc 1 106 32 view .LVU71
 198 0096 7047     		bx	lr
 199              	.LVL26:
 200              	.L10:
 106:user/esp8266/esp8266_at.c ****         if (monthTable[i] == monthString) {
 201              		.loc 1 106 32 view .LVU72
 202 0098 0620     		movs	r0, #6
 203              	.LVL27:
 106:user/esp8266/esp8266_at.c ****         if (monthTable[i] == monthString) {
 204              		.loc 1 106 32 view .LVU73
 205 009a 7047     		bx	lr
 206              	.LVL28:
 207              	.L11:
 106:user/esp8266/esp8266_at.c ****         if (monthTable[i] == monthString) {
 208              		.loc 1 106 32 view .LVU74
 209 009c 0720     		movs	r0, #7
 210              	.LVL29:
 106:user/esp8266/esp8266_at.c ****         if (monthTable[i] == monthString) {
 211              		.loc 1 106 32 view .LVU75
 212 009e 7047     		bx	lr
 213              	.LVL30:
 214              	.L12:
 106:user/esp8266/esp8266_at.c ****         if (monthTable[i] == monthString) {
 215              		.loc 1 106 32 view .LVU76
 216 00a0 0820     		movs	r0, #8
 217              	.LVL31:
 106:user/esp8266/esp8266_at.c ****         if (monthTable[i] == monthString) {
 218              		.loc 1 106 32 view .LVU77
 219 00a2 7047     		bx	lr
 220              	.LVL32:
 221              	.L13:
 106:user/esp8266/esp8266_at.c ****         if (monthTable[i] == monthString) {
 222              		.loc 1 106 32 view .LVU78
 223 00a4 0920     		movs	r0, #9
 224              	.LVL33:
 106:user/esp8266/esp8266_at.c ****         if (monthTable[i] == monthString) {
 225              		.loc 1 106 32 view .LVU79
 226 00a6 7047     		bx	lr
 227              	.LVL34:
 228              	.L14:
 106:user/esp8266/esp8266_at.c ****         if (monthTable[i] == monthString) {
 229              		.loc 1 106 32 view .LVU80
 230 00a8 0A20     		movs	r0, #10
 231              	.LVL35:
 106:user/esp8266/esp8266_at.c ****         if (monthTable[i] == monthString) {
 232              		.loc 1 106 32 view .LVU81
 233 00aa 7047     		bx	lr
 234              	.L19:
 235              		.align	2
 236              	.L18:
 237 00ac 6E614A00 		.word	4874606
 238 00b0 70655300 		.word	5465456
 239              		.cfi_endproc
 240              	.LFE70:
ARM GAS  C:\Users\WENHUA~1\AppData\Local\Temp\ccJqRDmD.s 			page 8


 242              		.section	.rodata.WIFI_Init.str1.4,"aMS",%progbits,1
 243              		.align	2
 244              	.LC2:
 245 0000 41542B52 		.ascii	"AT+RST\015\000"
 245      53540D00 
 246              		.align	2
 247              	.LC3:
 248 0008 41542B43 		.ascii	"AT+CWMODE=1\015\000"
 248      574D4F44 
 248      453D310D 
 248      00
 249 0015 000000   		.align	2
 250              	.LC4:
 251 0018 41542B43 		.ascii	"AT+CWJAP_DEF=\"HSG2\",\"13537011631\"\015\000"
 251      574A4150 
 251      5F444546 
 251      3D224853 
 251      4732222C 
 252              		.section	.text.WIFI_Init,"ax",%progbits
 253              		.align	1
 254              		.p2align 2,,3
 255              		.global	WIFI_Init
 256              		.syntax unified
 257              		.thumb
 258              		.thumb_func
 260              	WIFI_Init:
 261              	.LFB74:
 114:user/esp8266/esp8266_at.c **** 
 115:user/esp8266/esp8266_at.c **** static uint8_t ProcessClock(char *cRxBuf)
 116:user/esp8266/esp8266_at.c **** {
 117:user/esp8266/esp8266_at.c ****     uint16_t year;
 118:user/esp8266/esp8266_at.c ****     uint8_t month, day, week, hour, minute, second;
 119:user/esp8266/esp8266_at.c ****     uint32_t i;
 120:user/esp8266/esp8266_at.c ****     struct TimeType time;
 121:user/esp8266/esp8266_at.c ****     bool status = true;
 122:user/esp8266/esp8266_at.c **** 
 123:user/esp8266/esp8266_at.c ****     i = cRxBuf[13];
 124:user/esp8266/esp8266_at.c ****     i = i << 16;
 125:user/esp8266/esp8266_at.c ****     i |= cRxBuf[14] << 8 | cRxBuf[15];
 126:user/esp8266/esp8266_at.c ****     week = GetWeek(i);
 127:user/esp8266/esp8266_at.c **** 
 128:user/esp8266/esp8266_at.c ****     i = cRxBuf[17];
 129:user/esp8266/esp8266_at.c ****     i = i << 16;
 130:user/esp8266/esp8266_at.c ****     i |= cRxBuf[18] << 8 | cRxBuf[19];
 131:user/esp8266/esp8266_at.c ****     month = GetMonth(i);
 132:user/esp8266/esp8266_at.c **** 
 133:user/esp8266/esp8266_at.c ****     day = AscToHex(cRxBuf[21]) * 10 + AscToHex(cRxBuf[22]);
 134:user/esp8266/esp8266_at.c ****     hour = AscToHex(cRxBuf[24]) * 10 + AscToHex(cRxBuf[25]);
 135:user/esp8266/esp8266_at.c ****     minute = AscToHex(cRxBuf[27]) * 10 + AscToHex(cRxBuf[28]);
 136:user/esp8266/esp8266_at.c ****     second = AscToHex(cRxBuf[30]) * 10 + AscToHex(cRxBuf[31]);
 137:user/esp8266/esp8266_at.c ****     year = AscToHex(cRxBuf[33]) * 1000 + AscToHex(cRxBuf[34]) * 100 + AscToHex(cRxBuf[35]) * 10 + A
 138:user/esp8266/esp8266_at.c **** 
 139:user/esp8266/esp8266_at.c ****     if (year == 1970) {
 140:user/esp8266/esp8266_at.c ****         status = false;
 141:user/esp8266/esp8266_at.c ****     } else {
 142:user/esp8266/esp8266_at.c ****         if ((year < 2000) || (year > 2099) || (month == 0) || (month > 12) || (day == 0) || (day > 
 143:user/esp8266/esp8266_at.c ****             (minute > 59) || (second > 59)) {
ARM GAS  C:\Users\WENHUA~1\AppData\Local\Temp\ccJqRDmD.s 			page 9


 144:user/esp8266/esp8266_at.c ****             status = false;
 145:user/esp8266/esp8266_at.c ****         }
 146:user/esp8266/esp8266_at.c ****     }
 147:user/esp8266/esp8266_at.c **** 
 148:user/esp8266/esp8266_at.c ****     if (status == true) {
 149:user/esp8266/esp8266_at.c ****         time.year = year;
 150:user/esp8266/esp8266_at.c ****         time.month = month;
 151:user/esp8266/esp8266_at.c ****         time.day = day;
 152:user/esp8266/esp8266_at.c ****         time.week = week;
 153:user/esp8266/esp8266_at.c ****         time.hour = hour;
 154:user/esp8266/esp8266_at.c ****         time.min = minute;
 155:user/esp8266/esp8266_at.c ****         time.sec = second;
 156:user/esp8266/esp8266_at.c **** 
 157:user/esp8266/esp8266_at.c ****         HAL_UART_DeInit(&huart1);
 158:user/esp8266/esp8266_at.c ****         g_getTime.powerOffCtr = 0x00;
 159:user/esp8266/esp8266_at.c ****         ESP8266_AT_POWER_PIN_LOW();
 160:user/esp8266/esp8266_at.c ****         SetTimeData(&time);
 161:user/esp8266/esp8266_at.c ****         SetClock(&time);
 162:user/esp8266/esp8266_at.c ****         CalculationLunarCalendar(&time);
 163:user/esp8266/esp8266_at.c ****     } else {
 164:user/esp8266/esp8266_at.c ****         g_getTime.getTimeCtr = GET_TIME_10S;
 165:user/esp8266/esp8266_at.c ****     }
 166:user/esp8266/esp8266_at.c **** 
 167:user/esp8266/esp8266_at.c ****     return status;
 168:user/esp8266/esp8266_at.c **** }
 169:user/esp8266/esp8266_at.c **** 
 170:user/esp8266/esp8266_at.c **** static void ESP8266_AT_GetTime(void)
 171:user/esp8266/esp8266_at.c **** {
 172:user/esp8266/esp8266_at.c ****     printf("AT+CIPSNTPTIME?\r\n");
 173:user/esp8266/esp8266_at.c **** }
 174:user/esp8266/esp8266_at.c **** 
 175:user/esp8266/esp8266_at.c **** static void ESP8266_AT_SNTP_CFG(void)
 176:user/esp8266/esp8266_at.c **** {
 177:user/esp8266/esp8266_at.c ****     printf("AT+CIPSNTPCFG=1,8\r\n");
 178:user/esp8266/esp8266_at.c **** }
 179:user/esp8266/esp8266_at.c **** 
 180:user/esp8266/esp8266_at.c **** void WIFI_Init(void)
 181:user/esp8266/esp8266_at.c **** {
 262              		.loc 1 181 1 is_stmt 1 view -0
 263              		.cfi_startproc
 264              		@ args = 0, pretend = 0, frame = 0
 265              		@ frame_needed = 0, uses_anonymous_args = 0
 182:user/esp8266/esp8266_at.c ****     //printf("AT+RESTORE\r\n");
 183:user/esp8266/esp8266_at.c ****     //HAL_Delay(1000);
 184:user/esp8266/esp8266_at.c **** 
 185:user/esp8266/esp8266_at.c ****     printf("AT+RST\r\n");
 266              		.loc 1 185 5 view .LVU83
 181:user/esp8266/esp8266_at.c ****     //printf("AT+RESTORE\r\n");
 267              		.loc 1 181 1 is_stmt 0 view .LVU84
 268 0000 08B5     		push	{r3, lr}
 269              	.LCFI0:
 270              		.cfi_def_cfa_offset 8
 271              		.cfi_offset 3, -8
 272              		.cfi_offset 14, -4
 273              		.loc 1 185 5 view .LVU85
 274 0002 0848     		ldr	r0, .L22
 275 0004 FFF7FEFF 		bl	puts
ARM GAS  C:\Users\WENHUA~1\AppData\Local\Temp\ccJqRDmD.s 			page 10


 276              	.LVL36:
 186:user/esp8266/esp8266_at.c ****     HAL_Delay(100);
 277              		.loc 1 186 5 is_stmt 1 view .LVU86
 278 0008 6420     		movs	r0, #100
 279 000a FFF7FEFF 		bl	HAL_Delay
 280              	.LVL37:
 187:user/esp8266/esp8266_at.c **** 
 188:user/esp8266/esp8266_at.c ****     //printf("AT+GMR\r\n");
 189:user/esp8266/esp8266_at.c ****     //HAL_Delay(100);
 190:user/esp8266/esp8266_at.c **** 
 191:user/esp8266/esp8266_at.c ****     //printf("AT+CWQAP\r\n");
 192:user/esp8266/esp8266_at.c ****     //HAL_Delay(100);
 193:user/esp8266/esp8266_at.c **** 
 194:user/esp8266/esp8266_at.c ****     printf("AT+CWMODE=1\r\n");
 281              		.loc 1 194 5 view .LVU87
 282 000e 0648     		ldr	r0, .L22+4
 283 0010 FFF7FEFF 		bl	puts
 284              	.LVL38:
 195:user/esp8266/esp8266_at.c ****     HAL_Delay(100);
 285              		.loc 1 195 5 view .LVU88
 286 0014 6420     		movs	r0, #100
 287 0016 FFF7FEFF 		bl	HAL_Delay
 288              	.LVL39:
 196:user/esp8266/esp8266_at.c **** 
 197:user/esp8266/esp8266_at.c ****     //printf("AT+CWAUTOCONN=1\r\n");
 198:user/esp8266/esp8266_at.c ****     //HAL_Delay(1000);
 199:user/esp8266/esp8266_at.c **** 
 200:user/esp8266/esp8266_at.c ****     printf(WIFI_NAME_PASSWD);
 289              		.loc 1 200 5 view .LVU89
 201:user/esp8266/esp8266_at.c **** }
 290              		.loc 1 201 1 is_stmt 0 view .LVU90
 291 001a BDE80840 		pop	{r3, lr}
 292              	.LCFI1:
 293              		.cfi_restore 14
 294              		.cfi_restore 3
 295              		.cfi_def_cfa_offset 0
 200:user/esp8266/esp8266_at.c **** }
 296              		.loc 1 200 5 view .LVU91
 297 001e 0348     		ldr	r0, .L22+8
 298 0020 FFF7FEBF 		b	puts
 299              	.LVL40:
 300              	.L23:
 301              		.align	2
 302              	.L22:
 303 0024 00000000 		.word	.LC2
 304 0028 08000000 		.word	.LC3
 305 002c 18000000 		.word	.LC4
 306              		.cfi_endproc
 307              	.LFE74:
 309              		.section	.text.WIFI_PowerOnOff,"ax",%progbits
 310              		.align	1
 311              		.p2align 2,,3
 312              		.global	WIFI_PowerOnOff
 313              		.syntax unified
 314              		.thumb
 315              		.thumb_func
 317              	WIFI_PowerOnOff:
ARM GAS  C:\Users\WENHUA~1\AppData\Local\Temp\ccJqRDmD.s 			page 11


 318              	.LVL41:
 319              	.LFB75:
 202:user/esp8266/esp8266_at.c **** 
 203:user/esp8266/esp8266_at.c **** void WIFI_PowerOnOff(enum PowerFlag flag)
 204:user/esp8266/esp8266_at.c **** {
 320              		.loc 1 204 1 is_stmt 1 view -0
 321              		.cfi_startproc
 322              		@ args = 0, pretend = 0, frame = 0
 323              		@ frame_needed = 0, uses_anonymous_args = 0
 205:user/esp8266/esp8266_at.c ****     if (flag == POWER_ON) {
 324              		.loc 1 205 5 view .LVU93
 325              		.loc 1 205 8 is_stmt 0 view .LVU94
 326 0000 0128     		cmp	r0, #1
 204:user/esp8266/esp8266_at.c ****     if (flag == POWER_ON) {
 327              		.loc 1 204 1 view .LVU95
 328 0002 08B5     		push	{r3, lr}
 329              	.LCFI2:
 330              		.cfi_def_cfa_offset 8
 331              		.cfi_offset 3, -8
 332              		.cfi_offset 14, -4
 333              		.loc 1 205 8 view .LVU96
 334 0004 09D0     		beq	.L28
 206:user/esp8266/esp8266_at.c ****         ESP8266_AT_POWER_PIN_HIGH();
 207:user/esp8266/esp8266_at.c ****         g_getTime.powerOffCtr = WIFI_OFF_TIME;
 208:user/esp8266/esp8266_at.c ****     } else {
 209:user/esp8266/esp8266_at.c ****         ESP8266_AT_POWER_PIN_LOW();
 335              		.loc 1 209 9 is_stmt 1 view .LVU97
 336              		.loc 1 209 9 view .LVU98
 337 0006 0022     		movs	r2, #0
 338 0008 2021     		movs	r1, #32
 339 000a 0848     		ldr	r0, .L29
 340              	.LVL42:
 341              		.loc 1 209 9 is_stmt 0 view .LVU99
 342 000c FFF7FEFF 		bl	HAL_GPIO_WritePin
 343              	.LVL43:
 344              		.loc 1 209 9 is_stmt 1 view .LVU100
 210:user/esp8266/esp8266_at.c ****         g_getTime.connect = DISCONNECT;
 345              		.loc 1 210 9 view .LVU101
 346              		.loc 1 210 27 is_stmt 0 view .LVU102
 347 0010 0022     		movs	r2, #0
 348 0012 074B     		ldr	r3, .L29+4
 349 0014 1A71     		strb	r2, [r3, #4]
 211:user/esp8266/esp8266_at.c ****         g_getTime.getTimeCtr = 0x00;
 350              		.loc 1 211 9 is_stmt 1 view .LVU103
 212:user/esp8266/esp8266_at.c ****         g_getTime.powerOffCtr = 0x00;
 351              		.loc 1 212 9 view .LVU104
 213:user/esp8266/esp8266_at.c ****         g_getTime.renewInitCtr1 = 0x00;
 352              		.loc 1 213 9 view .LVU105
 214:user/esp8266/esp8266_at.c ****         g_getTime.renewInitCtr2 = 0x00;
 353              		.loc 1 214 9 view .LVU106
 212:user/esp8266/esp8266_at.c ****         g_getTime.powerOffCtr = 0x00;
 354              		.loc 1 212 31 is_stmt 0 view .LVU107
 355 0016 1A60     		str	r2, [r3]
 215:user/esp8266/esp8266_at.c ****     }
 216:user/esp8266/esp8266_at.c **** }
 356              		.loc 1 216 1 view .LVU108
 357 0018 08BD     		pop	{r3, pc}
ARM GAS  C:\Users\WENHUA~1\AppData\Local\Temp\ccJqRDmD.s 			page 12


 358              	.LVL44:
 359              	.L28:
 360              	.LBB70:
 361              	.LBI70:
 203:user/esp8266/esp8266_at.c **** {
 362              		.loc 1 203 6 is_stmt 1 view .LVU109
 363              	.LBB71:
 206:user/esp8266/esp8266_at.c ****         g_getTime.powerOffCtr = WIFI_OFF_TIME;
 364              		.loc 1 206 9 view .LVU110
 206:user/esp8266/esp8266_at.c ****         g_getTime.powerOffCtr = WIFI_OFF_TIME;
 365              		.loc 1 206 9 view .LVU111
 366 001a 0246     		mov	r2, r0
 367 001c 2021     		movs	r1, #32
 368 001e 0348     		ldr	r0, .L29
 369              	.LVL45:
 206:user/esp8266/esp8266_at.c ****         g_getTime.powerOffCtr = WIFI_OFF_TIME;
 370              		.loc 1 206 9 is_stmt 0 view .LVU112
 371 0020 FFF7FEFF 		bl	HAL_GPIO_WritePin
 372              	.LVL46:
 206:user/esp8266/esp8266_at.c ****         g_getTime.powerOffCtr = WIFI_OFF_TIME;
 373              		.loc 1 206 9 is_stmt 1 view .LVU113
 207:user/esp8266/esp8266_at.c ****     } else {
 374              		.loc 1 207 9 view .LVU114
 207:user/esp8266/esp8266_at.c ****     } else {
 375              		.loc 1 207 31 is_stmt 0 view .LVU115
 376 0024 7822     		movs	r2, #120
 377 0026 024B     		ldr	r3, .L29+4
 378 0028 1A70     		strb	r2, [r3]
 379              	.LBE71:
 380              	.LBE70:
 381              		.loc 1 216 1 view .LVU116
 382 002a 08BD     		pop	{r3, pc}
 383              	.L30:
 384              		.align	2
 385              	.L29:
 386 002c 000C0140 		.word	1073810432
 387 0030 00000000 		.word	.LANCHOR0
 388              		.cfi_endproc
 389              	.LFE75:
 391              		.section	.rodata.WIFI_CtrDec.str1.4,"aMS",%progbits,1
 392              		.align	2
 393              	.LC5:
 394 0000 41542B43 		.ascii	"AT+CIPSNTPCFG=1,8\015\000"
 394      4950534E 
 394      54504346 
 394      473D312C 
 394      380D00
 395 0013 00       		.align	2
 396              	.LC6:
 397 0014 41542B43 		.ascii	"AT+CIPSNTPTIME?\015\000"
 397      4950534E 
 397      54505449 
 397      4D453F0D 
 397      00
 398              		.section	.text.WIFI_CtrDec,"ax",%progbits
 399              		.align	1
 400              		.p2align 2,,3
ARM GAS  C:\Users\WENHUA~1\AppData\Local\Temp\ccJqRDmD.s 			page 13


 401              		.global	WIFI_CtrDec
 402              		.syntax unified
 403              		.thumb
 404              		.thumb_func
 406              	WIFI_CtrDec:
 407              	.LFB76:
 217:user/esp8266/esp8266_at.c **** 
 218:user/esp8266/esp8266_at.c **** void WIFI_CtrDec(void)
 219:user/esp8266/esp8266_at.c **** {
 408              		.loc 1 219 1 is_stmt 1 view -0
 409              		.cfi_startproc
 410              		@ args = 0, pretend = 0, frame = 0
 411              		@ frame_needed = 0, uses_anonymous_args = 0
 220:user/esp8266/esp8266_at.c ****     if (g_getTime.powerOffCtr) {
 412              		.loc 1 220 5 view .LVU118
 219:user/esp8266/esp8266_at.c ****     if (g_getTime.powerOffCtr) {
 413              		.loc 1 219 1 is_stmt 0 view .LVU119
 414 0000 38B5     		push	{r3, r4, r5, lr}
 415              	.LCFI3:
 416              		.cfi_def_cfa_offset 16
 417              		.cfi_offset 3, -16
 418              		.cfi_offset 4, -12
 419              		.cfi_offset 5, -8
 420              		.cfi_offset 14, -4
 421              		.loc 1 220 18 view .LVU120
 422 0002 274C     		ldr	r4, .L58
 423 0004 2278     		ldrb	r2, [r4]	@ zero_extendqisi2
 424              		.loc 1 220 8 view .LVU121
 425 0006 1AB1     		cbz	r2, .L32
 221:user/esp8266/esp8266_at.c ****         g_getTime.powerOffCtr--;
 426              		.loc 1 221 9 is_stmt 1 view .LVU122
 427              		.loc 1 221 30 is_stmt 0 view .LVU123
 428 0008 013A     		subs	r2, r2, #1
 429 000a D5B2     		uxtb	r5, r2
 430 000c 2570     		strb	r5, [r4]
 222:user/esp8266/esp8266_at.c ****         if (g_getTime.powerOffCtr == 0x00) {
 431              		.loc 1 222 9 is_stmt 1 view .LVU124
 432              		.loc 1 222 12 is_stmt 0 view .LVU125
 433 000e F5B1     		cbz	r5, .L54
 434              	.L32:
 223:user/esp8266/esp8266_at.c ****             WIFI_PowerOnOff(POWER_OFF);
 224:user/esp8266/esp8266_at.c ****         }
 225:user/esp8266/esp8266_at.c ****     }
 226:user/esp8266/esp8266_at.c **** 
 227:user/esp8266/esp8266_at.c ****     if (g_getTime.getTimeCtr) {
 435              		.loc 1 227 5 is_stmt 1 view .LVU126
 436              		.loc 1 227 18 is_stmt 0 view .LVU127
 437 0010 6378     		ldrb	r3, [r4, #1]	@ zero_extendqisi2
 438              		.loc 1 227 8 view .LVU128
 439 0012 53B1     		cbz	r3, .L53
 228:user/esp8266/esp8266_at.c ****         g_getTime.getTimeCtr--;
 440              		.loc 1 228 9 is_stmt 1 view .LVU129
 441              		.loc 1 228 29 is_stmt 0 view .LVU130
 442 0014 5A1E     		subs	r2, r3, #1
 443 0016 D2B2     		uxtb	r2, r2
 229:user/esp8266/esp8266_at.c ****         if (g_getTime.getTimeCtr == GET_TIME_10S) {
 444              		.loc 1 229 12 view .LVU131
ARM GAS  C:\Users\WENHUA~1\AppData\Local\Temp\ccJqRDmD.s 			page 14


 445 0018 0A2A     		cmp	r2, #10
 228:user/esp8266/esp8266_at.c ****         g_getTime.getTimeCtr--;
 446              		.loc 1 228 29 view .LVU132
 447 001a 6270     		strb	r2, [r4, #1]
 448              		.loc 1 229 9 is_stmt 1 view .LVU133
 449              		.loc 1 229 12 is_stmt 0 view .LVU134
 450 001c 3AD0     		beq	.L55
 230:user/esp8266/esp8266_at.c ****             ESP8266_AT_SNTP_CFG();
 231:user/esp8266/esp8266_at.c ****         } else if (g_getTime.getTimeCtr == GET_TIME_8S) {
 451              		.loc 1 231 16 is_stmt 1 view .LVU135
 232:user/esp8266/esp8266_at.c ****             ESP8266_AT_GetTime();
 233:user/esp8266/esp8266_at.c ****         } else if (g_getTime.getTimeCtr == GET_TIME_6S) {
 452              		.loc 1 233 16 view .LVU136
 453              		.loc 1 233 19 is_stmt 0 view .LVU137
 454 001e 062A     		cmp	r2, #6
 455 0020 10D0     		beq	.L37
 234:user/esp8266/esp8266_at.c ****             ESP8266_AT_GetTime();
 235:user/esp8266/esp8266_at.c ****         } else if (g_getTime.getTimeCtr == 0x00) {
 456              		.loc 1 235 16 is_stmt 1 view .LVU138
 457              		.loc 1 235 19 is_stmt 0 view .LVU139
 458 0022 03F0F703 		and	r3, r3, #247
 459 0026 012B     		cmp	r3, #1
 460 0028 0CD0     		beq	.L37
 461              	.L53:
 236:user/esp8266/esp8266_at.c ****             ESP8266_AT_GetTime();
 237:user/esp8266/esp8266_at.c ****         }
 238:user/esp8266/esp8266_at.c ****     }
 239:user/esp8266/esp8266_at.c **** 
 240:user/esp8266/esp8266_at.c ****     if (g_getTime.renewInitCtr1) {
 462              		.loc 1 240 18 view .LVU140
 463 002a A378     		ldrb	r3, [r4, #2]	@ zero_extendqisi2
 464              	.L35:
 465              		.loc 1 240 5 is_stmt 1 view .LVU141
 466              		.loc 1 240 8 is_stmt 0 view .LVU142
 467 002c 1BB1     		cbz	r3, .L39
 241:user/esp8266/esp8266_at.c ****         g_getTime.renewInitCtr1--;
 468              		.loc 1 241 9 is_stmt 1 view .LVU143
 469              		.loc 1 241 32 is_stmt 0 view .LVU144
 470 002e 013B     		subs	r3, r3, #1
 471 0030 DBB2     		uxtb	r3, r3
 472 0032 A370     		strb	r3, [r4, #2]
 242:user/esp8266/esp8266_at.c ****         if (g_getTime.renewInitCtr1 == 0x00) {
 473              		.loc 1 242 9 is_stmt 1 view .LVU145
 474              		.loc 1 242 12 is_stmt 0 view .LVU146
 475 0034 9BB1     		cbz	r3, .L56
 476              	.L39:
 243:user/esp8266/esp8266_at.c ****             g_getTime.renewInitCtr2 = 2;
 244:user/esp8266/esp8266_at.c ****             WIFI_PowerOnOff(POWER_ON);
 245:user/esp8266/esp8266_at.c ****         }
 246:user/esp8266/esp8266_at.c ****     }
 247:user/esp8266/esp8266_at.c **** 
 248:user/esp8266/esp8266_at.c ****     if (g_getTime.renewInitCtr2) {
 477              		.loc 1 248 5 is_stmt 1 view .LVU147
 478              		.loc 1 248 18 is_stmt 0 view .LVU148
 479 0036 E378     		ldrb	r3, [r4, #3]	@ zero_extendqisi2
 480              		.loc 1 248 8 view .LVU149
 481 0038 1BB1     		cbz	r3, .L31
ARM GAS  C:\Users\WENHUA~1\AppData\Local\Temp\ccJqRDmD.s 			page 15


 249:user/esp8266/esp8266_at.c ****         g_getTime.renewInitCtr2--;
 482              		.loc 1 249 9 is_stmt 1 view .LVU150
 483              		.loc 1 249 32 is_stmt 0 view .LVU151
 484 003a 013B     		subs	r3, r3, #1
 485 003c DBB2     		uxtb	r3, r3
 486 003e E370     		strb	r3, [r4, #3]
 250:user/esp8266/esp8266_at.c ****         if (g_getTime.renewInitCtr2 == 0x00) {
 487              		.loc 1 250 9 is_stmt 1 view .LVU152
 488              		.loc 1 250 12 is_stmt 0 view .LVU153
 489 0040 BBB1     		cbz	r3, .L57
 490              	.L31:
 251:user/esp8266/esp8266_at.c ****             WIFI_Init();
 252:user/esp8266/esp8266_at.c ****         }
 253:user/esp8266/esp8266_at.c ****     }
 254:user/esp8266/esp8266_at.c **** }
 491              		.loc 1 254 1 view .LVU154
 492 0042 38BD     		pop	{r3, r4, r5, pc}
 493              	.L37:
 232:user/esp8266/esp8266_at.c ****         } else if (g_getTime.getTimeCtr == GET_TIME_6S) {
 494              		.loc 1 232 13 is_stmt 1 view .LVU155
 495              	.LBB90:
 496              	.LBI90:
 170:user/esp8266/esp8266_at.c **** {
 497              		.loc 1 170 13 view .LVU156
 498              	.LBB91:
 172:user/esp8266/esp8266_at.c **** }
 499              		.loc 1 172 5 view .LVU157
 500 0044 1748     		ldr	r0, .L58+4
 501 0046 FFF7FEFF 		bl	puts
 502              	.LVL47:
 503              	.LBE91:
 504              	.LBE90:
 240:user/esp8266/esp8266_at.c ****         g_getTime.renewInitCtr1--;
 505              		.loc 1 240 18 is_stmt 0 view .LVU158
 506 004a A378     		ldrb	r3, [r4, #2]	@ zero_extendqisi2
 507              	.LBB93:
 508              	.LBB92:
 173:user/esp8266/esp8266_at.c **** 
 509              		.loc 1 173 1 view .LVU159
 510 004c EEE7     		b	.L35
 511              	.L54:
 512              	.LBE92:
 513              	.LBE93:
 223:user/esp8266/esp8266_at.c ****         }
 514              		.loc 1 223 13 is_stmt 1 view .LVU160
 515              	.LVL48:
 516              	.LBB94:
 517              	.LBI94:
 203:user/esp8266/esp8266_at.c **** {
 518              		.loc 1 203 6 view .LVU161
 519              	.LBB95:
 205:user/esp8266/esp8266_at.c ****         ESP8266_AT_POWER_PIN_HIGH();
 520              		.loc 1 205 5 view .LVU162
 209:user/esp8266/esp8266_at.c ****         g_getTime.connect = DISCONNECT;
 521              		.loc 1 209 9 view .LVU163
 209:user/esp8266/esp8266_at.c ****         g_getTime.connect = DISCONNECT;
 522              		.loc 1 209 9 view .LVU164
ARM GAS  C:\Users\WENHUA~1\AppData\Local\Temp\ccJqRDmD.s 			page 16


 523 004e 2A46     		mov	r2, r5
 524 0050 2021     		movs	r1, #32
 525 0052 1548     		ldr	r0, .L58+8
 526 0054 FFF7FEFF 		bl	HAL_GPIO_WritePin
 527              	.LVL49:
 209:user/esp8266/esp8266_at.c ****         g_getTime.connect = DISCONNECT;
 528              		.loc 1 209 9 view .LVU165
 210:user/esp8266/esp8266_at.c ****         g_getTime.getTimeCtr = 0x00;
 529              		.loc 1 210 9 view .LVU166
 210:user/esp8266/esp8266_at.c ****         g_getTime.getTimeCtr = 0x00;
 530              		.loc 1 210 27 is_stmt 0 view .LVU167
 531 0058 2571     		strb	r5, [r4, #4]
 211:user/esp8266/esp8266_at.c ****         g_getTime.powerOffCtr = 0x00;
 532              		.loc 1 211 9 is_stmt 1 view .LVU168
 212:user/esp8266/esp8266_at.c ****         g_getTime.renewInitCtr1 = 0x00;
 533              		.loc 1 212 9 view .LVU169
 213:user/esp8266/esp8266_at.c ****         g_getTime.renewInitCtr2 = 0x00;
 534              		.loc 1 213 9 view .LVU170
 214:user/esp8266/esp8266_at.c ****     }
 535              		.loc 1 214 9 view .LVU171
 212:user/esp8266/esp8266_at.c ****         g_getTime.renewInitCtr1 = 0x00;
 536              		.loc 1 212 31 is_stmt 0 view .LVU172
 537 005a 2560     		str	r5, [r4]
 538              	.LVL50:
 212:user/esp8266/esp8266_at.c ****         g_getTime.renewInitCtr1 = 0x00;
 539              		.loc 1 212 31 view .LVU173
 540              	.LBE95:
 541              	.LBE94:
 227:user/esp8266/esp8266_at.c ****         g_getTime.getTimeCtr--;
 542              		.loc 1 227 5 is_stmt 1 view .LVU174
 240:user/esp8266/esp8266_at.c ****         g_getTime.renewInitCtr1--;
 543              		.loc 1 240 5 view .LVU175
 544 005c EBE7     		b	.L39
 545              	.L56:
 243:user/esp8266/esp8266_at.c ****             WIFI_PowerOnOff(POWER_ON);
 546              		.loc 1 243 13 view .LVU176
 243:user/esp8266/esp8266_at.c ****             WIFI_PowerOnOff(POWER_ON);
 547              		.loc 1 243 37 is_stmt 0 view .LVU177
 548 005e 0223     		movs	r3, #2
 549              	.LBB96:
 550              	.LBB97:
 551              	.LBB98:
 206:user/esp8266/esp8266_at.c ****         g_getTime.powerOffCtr = WIFI_OFF_TIME;
 552              		.loc 1 206 9 view .LVU178
 553 0060 0122     		movs	r2, #1
 554 0062 2021     		movs	r1, #32
 555 0064 1048     		ldr	r0, .L58+8
 556              	.LBE98:
 557              	.LBE97:
 558              	.LBE96:
 243:user/esp8266/esp8266_at.c ****             WIFI_PowerOnOff(POWER_ON);
 559              		.loc 1 243 37 view .LVU179
 560 0066 E370     		strb	r3, [r4, #3]
 244:user/esp8266/esp8266_at.c ****         }
 561              		.loc 1 244 13 is_stmt 1 view .LVU180
 562              	.LVL51:
 563              	.LBB101:
ARM GAS  C:\Users\WENHUA~1\AppData\Local\Temp\ccJqRDmD.s 			page 17


 564              	.LBI96:
 203:user/esp8266/esp8266_at.c **** {
 565              		.loc 1 203 6 view .LVU181
 566              	.LBE101:
 205:user/esp8266/esp8266_at.c ****         ESP8266_AT_POWER_PIN_HIGH();
 567              		.loc 1 205 5 view .LVU182
 568              	.LBB102:
 569              	.LBB100:
 570              	.LBI97:
 203:user/esp8266/esp8266_at.c **** {
 571              		.loc 1 203 6 view .LVU183
 572              	.LBB99:
 206:user/esp8266/esp8266_at.c ****         g_getTime.powerOffCtr = WIFI_OFF_TIME;
 573              		.loc 1 206 9 view .LVU184
 206:user/esp8266/esp8266_at.c ****         g_getTime.powerOffCtr = WIFI_OFF_TIME;
 574              		.loc 1 206 9 view .LVU185
 575 0068 FFF7FEFF 		bl	HAL_GPIO_WritePin
 576              	.LVL52:
 206:user/esp8266/esp8266_at.c ****         g_getTime.powerOffCtr = WIFI_OFF_TIME;
 577              		.loc 1 206 9 view .LVU186
 207:user/esp8266/esp8266_at.c ****     } else {
 578              		.loc 1 207 9 view .LVU187
 207:user/esp8266/esp8266_at.c ****     } else {
 579              		.loc 1 207 31 is_stmt 0 view .LVU188
 580 006c 7823     		movs	r3, #120
 581 006e 2370     		strb	r3, [r4]
 582 0070 E1E7     		b	.L39
 583              	.LVL53:
 584              	.L57:
 207:user/esp8266/esp8266_at.c ****     } else {
 585              		.loc 1 207 31 view .LVU189
 586              	.LBE99:
 587              	.LBE100:
 588              	.LBE102:
 251:user/esp8266/esp8266_at.c ****         }
 589              		.loc 1 251 13 is_stmt 1 view .LVU190
 590              	.LBB103:
 591              	.LBI103:
 180:user/esp8266/esp8266_at.c **** {
 592              		.loc 1 180 6 view .LVU191
 593              	.LBB104:
 185:user/esp8266/esp8266_at.c ****     HAL_Delay(100);
 594              		.loc 1 185 5 view .LVU192
 595 0072 0E48     		ldr	r0, .L58+12
 596 0074 FFF7FEFF 		bl	puts
 597              	.LVL54:
 186:user/esp8266/esp8266_at.c **** 
 598              		.loc 1 186 5 view .LVU193
 599 0078 6420     		movs	r0, #100
 600 007a FFF7FEFF 		bl	HAL_Delay
 601              	.LVL55:
 194:user/esp8266/esp8266_at.c ****     HAL_Delay(100);
 602              		.loc 1 194 5 view .LVU194
 603 007e 0C48     		ldr	r0, .L58+16
 604 0080 FFF7FEFF 		bl	puts
 605              	.LVL56:
 195:user/esp8266/esp8266_at.c **** 
ARM GAS  C:\Users\WENHUA~1\AppData\Local\Temp\ccJqRDmD.s 			page 18


 606              		.loc 1 195 5 view .LVU195
 607 0084 6420     		movs	r0, #100
 608 0086 FFF7FEFF 		bl	HAL_Delay
 609              	.LVL57:
 200:user/esp8266/esp8266_at.c **** }
 610              		.loc 1 200 5 view .LVU196
 611              	.LBE104:
 612              	.LBE103:
 613              		.loc 1 254 1 is_stmt 0 view .LVU197
 614 008a BDE83840 		pop	{r3, r4, r5, lr}
 615              	.LCFI4:
 616              		.cfi_remember_state
 617              		.cfi_restore 14
 618              		.cfi_restore 5
 619              		.cfi_restore 4
 620              		.cfi_restore 3
 621              		.cfi_def_cfa_offset 0
 622              	.LBB106:
 623              	.LBB105:
 200:user/esp8266/esp8266_at.c **** }
 624              		.loc 1 200 5 view .LVU198
 625 008e 0948     		ldr	r0, .L58+20
 626 0090 FFF7FEBF 		b	puts
 627              	.LVL58:
 628              	.L55:
 629              	.LCFI5:
 630              		.cfi_restore_state
 631              	.LBE105:
 632              	.LBE106:
 230:user/esp8266/esp8266_at.c ****         } else if (g_getTime.getTimeCtr == GET_TIME_8S) {
 633              		.loc 1 230 13 is_stmt 1 view .LVU199
 634              	.LBB107:
 635              	.LBI107:
 175:user/esp8266/esp8266_at.c **** {
 636              		.loc 1 175 13 view .LVU200
 637              	.LBB108:
 177:user/esp8266/esp8266_at.c **** }
 638              		.loc 1 177 5 view .LVU201
 639 0094 0848     		ldr	r0, .L58+24
 640 0096 FFF7FEFF 		bl	puts
 641              	.LVL59:
 642              	.LBE108:
 643              	.LBE107:
 240:user/esp8266/esp8266_at.c ****         g_getTime.renewInitCtr1--;
 644              		.loc 1 240 18 is_stmt 0 view .LVU202
 645 009a A378     		ldrb	r3, [r4, #2]	@ zero_extendqisi2
 646              	.LBB110:
 647              	.LBB109:
 178:user/esp8266/esp8266_at.c **** 
 648              		.loc 1 178 1 view .LVU203
 649 009c C6E7     		b	.L35
 650              	.L59:
 651 009e 00BF     		.align	2
 652              	.L58:
 653 00a0 00000000 		.word	.LANCHOR0
 654 00a4 14000000 		.word	.LC6
 655 00a8 000C0140 		.word	1073810432
ARM GAS  C:\Users\WENHUA~1\AppData\Local\Temp\ccJqRDmD.s 			page 19


 656 00ac 00000000 		.word	.LC2
 657 00b0 08000000 		.word	.LC3
 658 00b4 18000000 		.word	.LC4
 659 00b8 00000000 		.word	.LC5
 660              	.LBE109:
 661              	.LBE110:
 662              		.cfi_endproc
 663              	.LFE76:
 665              		.section	.rodata.WIFI_ReceiveProcess.str1.4,"aMS",%progbits,1
 666              		.align	2
 667              	.LC7:
 668 0000 57494649 		.ascii	"WIFI CON\000"
 668      20434F4E 
 668      00
 669 0009 000000   		.align	2
 670              	.LC8:
 671 000c 57494649 		.ascii	"WIFI DIS\000"
 671      20444953 
 671      00
 672 0015 000000   		.align	2
 673              	.LC9:
 674 0018 2B43574A 		.ascii	"+CWJAP:2\000"
 674      41503A32 
 674      00
 675 0021 000000   		.align	2
 676              	.LC10:
 677 0024 2B434950 		.ascii	"+CIPSNTPTIME:\000"
 677      534E5450 
 677      54494D45 
 677      3A00
 678              		.section	.text.WIFI_ReceiveProcess,"ax",%progbits
 679              		.align	1
 680              		.p2align 2,,3
 681              		.global	WIFI_ReceiveProcess
 682              		.syntax unified
 683              		.thumb
 684              		.thumb_func
 686              	WIFI_ReceiveProcess:
 687              	.LVL60:
 688              	.LFB77:
 255:user/esp8266/esp8266_at.c **** 
 256:user/esp8266/esp8266_at.c **** void WIFI_ReceiveProcess(uint8_t *buf)
 257:user/esp8266/esp8266_at.c **** {
 689              		.loc 1 257 1 is_stmt 1 view -0
 690              		.cfi_startproc
 691              		@ args = 0, pretend = 0, frame = 16
 692              		@ frame_needed = 0, uses_anonymous_args = 0
 258:user/esp8266/esp8266_at.c ****     char *str;
 693              		.loc 1 258 5 view .LVU205
 259:user/esp8266/esp8266_at.c ****     char *strPosition;
 694              		.loc 1 259 5 view .LVU206
 260:user/esp8266/esp8266_at.c **** 
 261:user/esp8266/esp8266_at.c ****     str = "WIFI CON"; /* WIFI CONNECTED */
 695              		.loc 1 261 5 view .LVU207
 262:user/esp8266/esp8266_at.c ****     if (strstr((char *)buf, str) != NULL) {
 696              		.loc 1 262 5 view .LVU208
 257:user/esp8266/esp8266_at.c ****     char *str;
ARM GAS  C:\Users\WENHUA~1\AppData\Local\Temp\ccJqRDmD.s 			page 20


 697              		.loc 1 257 1 is_stmt 0 view .LVU209
 698 0000 2DE9F04F 		push	{r4, r5, r6, r7, r8, r9, r10, fp, lr}
 699              	.LCFI6:
 700              		.cfi_def_cfa_offset 36
 701              		.cfi_offset 4, -36
 702              		.cfi_offset 5, -32
 703              		.cfi_offset 6, -28
 704              		.cfi_offset 7, -24
 705              		.cfi_offset 8, -20
 706              		.cfi_offset 9, -16
 707              		.cfi_offset 10, -12
 708              		.cfi_offset 11, -8
 709              		.cfi_offset 14, -4
 710              		.loc 1 262 9 view .LVU210
 711 0004 BD49     		ldr	r1, .L157
 257:user/esp8266/esp8266_at.c ****     char *str;
 712              		.loc 1 257 1 view .LVU211
 713 0006 85B0     		sub	sp, sp, #20
 714              	.LCFI7:
 715              		.cfi_def_cfa_offset 56
 257:user/esp8266/esp8266_at.c ****     char *str;
 716              		.loc 1 257 1 view .LVU212
 717 0008 0546     		mov	r5, r0
 718              		.loc 1 262 9 view .LVU213
 719 000a FFF7FEFF 		bl	strstr
 720              	.LVL61:
 721              		.loc 1 262 8 view .LVU214
 722 000e 0028     		cmp	r0, #0
 723 0010 00F05081 		beq	.L149
 263:user/esp8266/esp8266_at.c ****         g_getTime.connect = CONNECT;
 724              		.loc 1 263 9 is_stmt 1 view .LVU215
 725              		.loc 1 263 27 is_stmt 0 view .LVU216
 726 0014 0122     		movs	r2, #1
 264:user/esp8266/esp8266_at.c ****         g_getTime.getTimeCtr = GET_TIME_14S;
 727              		.loc 1 264 30 view .LVU217
 728 0016 0E23     		movs	r3, #14
 263:user/esp8266/esp8266_at.c ****         g_getTime.connect = CONNECT;
 729              		.loc 1 263 27 view .LVU218
 730 0018 B94C     		ldr	r4, .L157+4
 731 001a 2271     		strb	r2, [r4, #4]
 732              		.loc 1 264 9 is_stmt 1 view .LVU219
 733              		.loc 1 264 30 is_stmt 0 view .LVU220
 734 001c 6370     		strb	r3, [r4, #1]
 735              	.L61:
 265:user/esp8266/esp8266_at.c ****     }
 266:user/esp8266/esp8266_at.c ****     str = "WIFI DIS"; /* WIFI DISCONNECT */
 736              		.loc 1 266 5 is_stmt 1 view .LVU221
 737              	.LVL62:
 267:user/esp8266/esp8266_at.c ****     if (strstr((char *)buf, str) != NULL) {
 738              		.loc 1 267 5 view .LVU222
 739              		.loc 1 267 9 is_stmt 0 view .LVU223
 740 001e 2846     		mov	r0, r5
 741 0020 B849     		ldr	r1, .L157+8
 742 0022 FFF7FEFF 		bl	strstr
 743              	.LVL63:
 744              		.loc 1 267 8 view .LVU224
 745 0026 D8B1     		cbz	r0, .L62
ARM GAS  C:\Users\WENHUA~1\AppData\Local\Temp\ccJqRDmD.s 			page 21


 268:user/esp8266/esp8266_at.c ****         WIFI_PowerOnOff(POWER_OFF);
 746              		.loc 1 268 9 is_stmt 1 view .LVU225
 747              	.LVL64:
 748              	.LBB173:
 749              	.LBI173:
 203:user/esp8266/esp8266_at.c **** {
 750              		.loc 1 203 6 view .LVU226
 751              	.LBB174:
 205:user/esp8266/esp8266_at.c ****         ESP8266_AT_POWER_PIN_HIGH();
 752              		.loc 1 205 5 view .LVU227
 209:user/esp8266/esp8266_at.c ****         g_getTime.connect = DISCONNECT;
 753              		.loc 1 209 9 view .LVU228
 209:user/esp8266/esp8266_at.c ****         g_getTime.connect = DISCONNECT;
 754              		.loc 1 209 9 view .LVU229
 755 0028 0022     		movs	r2, #0
 756 002a 2021     		movs	r1, #32
 757 002c B648     		ldr	r0, .L157+12
 758 002e FFF7FEFF 		bl	HAL_GPIO_WritePin
 759              	.LVL65:
 209:user/esp8266/esp8266_at.c ****         g_getTime.connect = DISCONNECT;
 760              		.loc 1 209 9 view .LVU230
 210:user/esp8266/esp8266_at.c ****         g_getTime.getTimeCtr = 0x00;
 761              		.loc 1 210 9 view .LVU231
 210:user/esp8266/esp8266_at.c ****         g_getTime.getTimeCtr = 0x00;
 762              		.loc 1 210 27 is_stmt 0 view .LVU232
 763 0032 0022     		movs	r2, #0
 212:user/esp8266/esp8266_at.c ****         g_getTime.renewInitCtr1 = 0x00;
 764              		.loc 1 212 31 view .LVU233
 765 0034 4FF40033 		mov	r3, #131072
 766              	.LBE174:
 767              	.LBE173:
 269:user/esp8266/esp8266_at.c ****         g_getTime.renewInitCtr1 = 2;
 270:user/esp8266/esp8266_at.c ****     }
 271:user/esp8266/esp8266_at.c ****     str = "+CWJAP:2"; /* WIFI CONNECT FAIL */
 272:user/esp8266/esp8266_at.c ****     if (strstr((char *)buf, str) != NULL) {
 768              		.loc 1 272 9 view .LVU234
 769 0038 2846     		mov	r0, r5
 770 003a B449     		ldr	r1, .L157+16
 771              	.LBB177:
 772              	.LBB175:
 210:user/esp8266/esp8266_at.c ****         g_getTime.getTimeCtr = 0x00;
 773              		.loc 1 210 27 view .LVU235
 774 003c 2271     		strb	r2, [r4, #4]
 211:user/esp8266/esp8266_at.c ****         g_getTime.powerOffCtr = 0x00;
 775              		.loc 1 211 9 is_stmt 1 view .LVU236
 212:user/esp8266/esp8266_at.c ****         g_getTime.renewInitCtr1 = 0x00;
 776              		.loc 1 212 9 view .LVU237
 213:user/esp8266/esp8266_at.c ****         g_getTime.renewInitCtr2 = 0x00;
 777              		.loc 1 213 9 view .LVU238
 214:user/esp8266/esp8266_at.c ****     }
 778              		.loc 1 214 9 view .LVU239
 779              	.LVL66:
 214:user/esp8266/esp8266_at.c ****     }
 780              		.loc 1 214 9 is_stmt 0 view .LVU240
 781              	.LBE175:
 782              	.LBE177:
 269:user/esp8266/esp8266_at.c ****     }
ARM GAS  C:\Users\WENHUA~1\AppData\Local\Temp\ccJqRDmD.s 			page 22


 783              		.loc 1 269 9 is_stmt 1 view .LVU241
 784              	.LBB178:
 785              	.LBB176:
 212:user/esp8266/esp8266_at.c ****         g_getTime.renewInitCtr1 = 0x00;
 786              		.loc 1 212 31 is_stmt 0 view .LVU242
 787 003e 2360     		str	r3, [r4]
 788              	.LBE176:
 789              	.LBE178:
 271:user/esp8266/esp8266_at.c ****     if (strstr((char *)buf, str) != NULL) {
 790              		.loc 1 271 5 is_stmt 1 view .LVU243
 791              	.LVL67:
 792              		.loc 1 272 5 view .LVU244
 793              		.loc 1 272 9 is_stmt 0 view .LVU245
 794 0040 FFF7FEFF 		bl	strstr
 795              	.LVL68:
 796              		.loc 1 272 8 view .LVU246
 797 0044 48B1     		cbz	r0, .L60
 798              	.L63:
 273:user/esp8266/esp8266_at.c ****         WIFI_PowerOnOff(POWER_OFF);
 799              		.loc 1 273 9 is_stmt 1 view .LVU247
 800              	.LVL69:
 801              	.LBB179:
 802              	.LBI179:
 203:user/esp8266/esp8266_at.c **** {
 803              		.loc 1 203 6 view .LVU248
 804              	.LBB180:
 205:user/esp8266/esp8266_at.c ****         ESP8266_AT_POWER_PIN_HIGH();
 805              		.loc 1 205 5 view .LVU249
 209:user/esp8266/esp8266_at.c ****         g_getTime.connect = DISCONNECT;
 806              		.loc 1 209 9 view .LVU250
 209:user/esp8266/esp8266_at.c ****         g_getTime.connect = DISCONNECT;
 807              		.loc 1 209 9 view .LVU251
 808 0046 0022     		movs	r2, #0
 809 0048 2021     		movs	r1, #32
 810 004a AF48     		ldr	r0, .L157+12
 811 004c FFF7FEFF 		bl	HAL_GPIO_WritePin
 812              	.LVL70:
 209:user/esp8266/esp8266_at.c ****         g_getTime.connect = DISCONNECT;
 813              		.loc 1 209 9 view .LVU252
 210:user/esp8266/esp8266_at.c ****         g_getTime.getTimeCtr = 0x00;
 814              		.loc 1 210 9 view .LVU253
 210:user/esp8266/esp8266_at.c ****         g_getTime.getTimeCtr = 0x00;
 815              		.loc 1 210 27 is_stmt 0 view .LVU254
 816 0050 0022     		movs	r2, #0
 212:user/esp8266/esp8266_at.c ****         g_getTime.renewInitCtr1 = 0x00;
 817              		.loc 1 212 31 view .LVU255
 818 0052 4FF40033 		mov	r3, #131072
 210:user/esp8266/esp8266_at.c ****         g_getTime.getTimeCtr = 0x00;
 819              		.loc 1 210 27 view .LVU256
 820 0056 2271     		strb	r2, [r4, #4]
 211:user/esp8266/esp8266_at.c ****         g_getTime.powerOffCtr = 0x00;
 821              		.loc 1 211 9 is_stmt 1 view .LVU257
 212:user/esp8266/esp8266_at.c ****         g_getTime.renewInitCtr1 = 0x00;
 822              		.loc 1 212 9 view .LVU258
 213:user/esp8266/esp8266_at.c ****         g_getTime.renewInitCtr2 = 0x00;
 823              		.loc 1 213 9 view .LVU259
 214:user/esp8266/esp8266_at.c ****     }
ARM GAS  C:\Users\WENHUA~1\AppData\Local\Temp\ccJqRDmD.s 			page 23


 824              		.loc 1 214 9 view .LVU260
 825              	.LVL71:
 214:user/esp8266/esp8266_at.c ****     }
 826              		.loc 1 214 9 is_stmt 0 view .LVU261
 827              	.LBE180:
 828              	.LBE179:
 274:user/esp8266/esp8266_at.c ****         g_getTime.renewInitCtr1 = 2;
 829              		.loc 1 274 9 is_stmt 1 view .LVU262
 830              	.LBB182:
 831              	.LBB181:
 212:user/esp8266/esp8266_at.c ****         g_getTime.renewInitCtr1 = 0x00;
 832              		.loc 1 212 31 is_stmt 0 view .LVU263
 833 0058 2360     		str	r3, [r4]
 834              	.LBE181:
 835              	.LBE182:
 275:user/esp8266/esp8266_at.c ****     }
 276:user/esp8266/esp8266_at.c ****     if (g_getTime.connect == CONNECT) {
 836              		.loc 1 276 5 is_stmt 1 view .LVU264
 837              	.LVL72:
 838              	.L60:
 277:user/esp8266/esp8266_at.c ****         str = "+CIPSNTPTIME:";
 278:user/esp8266/esp8266_at.c ****         strPosition = strstr((char *)buf, str);
 279:user/esp8266/esp8266_at.c ****         if (strPosition != NULL) {
 280:user/esp8266/esp8266_at.c ****             ProcessClock(strPosition);
 281:user/esp8266/esp8266_at.c ****             g_getTime.okFlag = 1;
 282:user/esp8266/esp8266_at.c ****         }
 283:user/esp8266/esp8266_at.c ****     }
 284:user/esp8266/esp8266_at.c **** }
 839              		.loc 1 284 1 is_stmt 0 view .LVU265
 840 005a 05B0     		add	sp, sp, #20
 841              	.LCFI8:
 842              		.cfi_remember_state
 843              		.cfi_def_cfa_offset 36
 844              		@ sp needed
 845 005c BDE8F08F 		pop	{r4, r5, r6, r7, r8, r9, r10, fp, pc}
 846              	.LVL73:
 847              	.L62:
 848              	.LCFI9:
 849              		.cfi_restore_state
 271:user/esp8266/esp8266_at.c ****     if (strstr((char *)buf, str) != NULL) {
 850              		.loc 1 271 5 is_stmt 1 view .LVU266
 272:user/esp8266/esp8266_at.c ****         WIFI_PowerOnOff(POWER_OFF);
 851              		.loc 1 272 5 view .LVU267
 272:user/esp8266/esp8266_at.c ****         WIFI_PowerOnOff(POWER_OFF);
 852              		.loc 1 272 9 is_stmt 0 view .LVU268
 853 0060 2846     		mov	r0, r5
 854 0062 AA49     		ldr	r1, .L157+16
 855 0064 FFF7FEFF 		bl	strstr
 856              	.LVL74:
 272:user/esp8266/esp8266_at.c ****         WIFI_PowerOnOff(POWER_OFF);
 857              		.loc 1 272 8 view .LVU269
 858 0068 0746     		mov	r7, r0
 859 006a 0028     		cmp	r0, #0
 860 006c EBD1     		bne	.L63
 276:user/esp8266/esp8266_at.c ****         str = "+CIPSNTPTIME:";
 861              		.loc 1 276 5 is_stmt 1 view .LVU270
 276:user/esp8266/esp8266_at.c ****         str = "+CIPSNTPTIME:";
ARM GAS  C:\Users\WENHUA~1\AppData\Local\Temp\ccJqRDmD.s 			page 24


 862              		.loc 1 276 18 is_stmt 0 view .LVU271
 863 006e 2679     		ldrb	r6, [r4, #4]	@ zero_extendqisi2
 276:user/esp8266/esp8266_at.c ****         str = "+CIPSNTPTIME:";
 864              		.loc 1 276 8 view .LVU272
 865 0070 012E     		cmp	r6, #1
 866 0072 F2D1     		bne	.L60
 277:user/esp8266/esp8266_at.c ****         strPosition = strstr((char *)buf, str);
 867              		.loc 1 277 9 is_stmt 1 view .LVU273
 868              	.LVL75:
 278:user/esp8266/esp8266_at.c ****         if (strPosition != NULL) {
 869              		.loc 1 278 9 view .LVU274
 278:user/esp8266/esp8266_at.c ****         if (strPosition != NULL) {
 870              		.loc 1 278 23 is_stmt 0 view .LVU275
 871 0074 2846     		mov	r0, r5
 872 0076 A649     		ldr	r1, .L157+20
 873 0078 FFF7FEFF 		bl	strstr
 874              	.LVL76:
 279:user/esp8266/esp8266_at.c ****             ProcessClock(strPosition);
 875              		.loc 1 279 9 is_stmt 1 view .LVU276
 279:user/esp8266/esp8266_at.c ****             ProcessClock(strPosition);
 876              		.loc 1 279 12 is_stmt 0 view .LVU277
 877 007c 0028     		cmp	r0, #0
 878 007e ECD0     		beq	.L60
 280:user/esp8266/esp8266_at.c ****             g_getTime.okFlag = 1;
 879              		.loc 1 280 13 is_stmt 1 view .LVU278
 880              	.LVL77:
 881              	.LBB183:
 882              	.LBI183:
 115:user/esp8266/esp8266_at.c **** {
 883              		.loc 1 115 16 view .LVU279
 884              	.LBB184:
 117:user/esp8266/esp8266_at.c ****     uint8_t month, day, week, hour, minute, second;
 885              		.loc 1 117 5 view .LVU280
 118:user/esp8266/esp8266_at.c ****     uint32_t i;
 886              		.loc 1 118 5 view .LVU281
 119:user/esp8266/esp8266_at.c ****     struct TimeType time;
 887              		.loc 1 119 5 view .LVU282
 120:user/esp8266/esp8266_at.c ****     bool status = true;
 888              		.loc 1 120 5 view .LVU283
 121:user/esp8266/esp8266_at.c **** 
 889              		.loc 1 121 5 view .LVU284
 123:user/esp8266/esp8266_at.c ****     i = i << 16;
 890              		.loc 1 123 5 view .LVU285
 125:user/esp8266/esp8266_at.c ****     week = GetWeek(i);
 891              		.loc 1 125 26 is_stmt 0 view .LVU286
 892 0080 C389     		ldrh	r3, [r0, #14]	@ unaligned
 123:user/esp8266/esp8266_at.c ****     i = i << 16;
 893              		.loc 1 123 7 view .LVU287
 894 0082 427B     		ldrb	r2, [r0, #13]	@ zero_extendqisi2
 895              	.LVL78:
 124:user/esp8266/esp8266_at.c ****     i |= cRxBuf[14] << 8 | cRxBuf[15];
 896              		.loc 1 124 5 is_stmt 1 view .LVU288
 125:user/esp8266/esp8266_at.c ****     week = GetWeek(i);
 897              		.loc 1 125 5 view .LVU289
 125:user/esp8266/esp8266_at.c ****     week = GetWeek(i);
 898              		.loc 1 125 26 is_stmt 0 view .LVU290
 899 0084 5BBA     		rev16	r3, r3
ARM GAS  C:\Users\WENHUA~1\AppData\Local\Temp\ccJqRDmD.s 			page 25


 900 0086 9BB2     		uxth	r3, r3
 125:user/esp8266/esp8266_at.c ****     week = GetWeek(i);
 901              		.loc 1 125 7 view .LVU291
 902 0088 43EA0243 		orr	r3, r3, r2, lsl #16
 903              	.LVL79:
 126:user/esp8266/esp8266_at.c **** 
 904              		.loc 1 126 5 is_stmt 1 view .LVU292
 905              	.LBB185:
 906              	.LBI185:
  83:user/esp8266/esp8266_at.c **** {
 907              		.loc 1 83 16 view .LVU293
 908              	.LBB186:
  85:user/esp8266/esp8266_at.c ****     uint8_t tableLen;
 909              		.loc 1 85 5 view .LVU294
  86:user/esp8266/esp8266_at.c ****     uint32_t weekTable[] = { SUN, MON, TUE, WED, THU, FRI, SAT };
 910              		.loc 1 86 5 view .LVU295
  87:user/esp8266/esp8266_at.c **** 
 911              		.loc 1 87 5 view .LVU296
  89:user/esp8266/esp8266_at.c ****     for (i = 0; i < tableLen; i++) {
 912              		.loc 1 89 5 view .LVU297
  90:user/esp8266/esp8266_at.c ****         if (weekTable[i] == weekString) {
 913              		.loc 1 90 5 view .LVU298
  90:user/esp8266/esp8266_at.c ****         if (weekTable[i] == weekString) {
 914              		.loc 1 90 17 view .LVU299
  91:user/esp8266/esp8266_at.c ****             break;
 915              		.loc 1 91 9 view .LVU300
  91:user/esp8266/esp8266_at.c ****             break;
 916              		.loc 1 91 12 is_stmt 0 view .LVU301
 917 008c A14A     		ldr	r2, .L157+24
 918 008e 9342     		cmp	r3, r2
 919 0090 00F05B82 		beq	.L102
  90:user/esp8266/esp8266_at.c ****         if (weekTable[i] == weekString) {
 920              		.loc 1 90 31 is_stmt 1 view .LVU302
 921              	.LVL80:
  90:user/esp8266/esp8266_at.c ****         if (weekTable[i] == weekString) {
 922              		.loc 1 90 17 view .LVU303
  91:user/esp8266/esp8266_at.c ****             break;
 923              		.loc 1 91 9 view .LVU304
  91:user/esp8266/esp8266_at.c ****             break;
 924              		.loc 1 91 12 is_stmt 0 view .LVU305
 925 0094 A2F5C022 		sub	r2, r2, #393216
 926 0098 A2F5C062 		sub	r2, r2, #1536
 927 009c 9342     		cmp	r3, r2
 928 009e 00F05682 		beq	.L103
  90:user/esp8266/esp8266_at.c ****         if (weekTable[i] == weekString) {
 929              		.loc 1 90 31 is_stmt 1 view .LVU306
 930              	.LVL81:
  90:user/esp8266/esp8266_at.c ****         if (weekTable[i] == weekString) {
 931              		.loc 1 90 17 view .LVU307
  91:user/esp8266/esp8266_at.c ****             break;
 932              		.loc 1 91 9 view .LVU308
  91:user/esp8266/esp8266_at.c ****             break;
 933              		.loc 1 91 12 is_stmt 0 view .LVU309
 934 00a2 02F5E022 		add	r2, r2, #458752
 935 00a6 02F2F752 		addw	r2, r2, #1527
 936 00aa 9342     		cmp	r3, r2
 937 00ac 00F05182 		beq	.L104
ARM GAS  C:\Users\WENHUA~1\AppData\Local\Temp\ccJqRDmD.s 			page 26


  90:user/esp8266/esp8266_at.c ****         if (weekTable[i] == weekString) {
 938              		.loc 1 90 31 is_stmt 1 view .LVU310
 939              	.LVL82:
  90:user/esp8266/esp8266_at.c ****         if (weekTable[i] == weekString) {
 940              		.loc 1 90 17 view .LVU311
  91:user/esp8266/esp8266_at.c ****             break;
 941              		.loc 1 91 9 view .LVU312
  91:user/esp8266/esp8266_at.c ****             break;
 942              		.loc 1 91 12 is_stmt 0 view .LVU313
 943 00b0 02F53B32 		add	r2, r2, #191488
 944 00b4 02F2FF32 		addw	r2, r2, #1023
 945 00b8 9342     		cmp	r3, r2
 946 00ba 00F04F82 		beq	.L105
  90:user/esp8266/esp8266_at.c ****         if (weekTable[i] == weekString) {
 947              		.loc 1 90 31 is_stmt 1 view .LVU314
 948              	.LVL83:
  90:user/esp8266/esp8266_at.c ****         if (weekTable[i] == weekString) {
 949              		.loc 1 90 17 view .LVU315
  91:user/esp8266/esp8266_at.c ****             break;
 950              		.loc 1 91 9 view .LVU316
  91:user/esp8266/esp8266_at.c ****             break;
 951              		.loc 1 91 12 is_stmt 0 view .LVU317
 952 00be A2F53F32 		sub	r2, r2, #195584
 953 00c2 EF3A     		subs	r2, r2, #239
 954 00c4 9342     		cmp	r3, r2
 955 00c6 00F04E82 		beq	.L106
  90:user/esp8266/esp8266_at.c ****         if (weekTable[i] == weekString) {
 956              		.loc 1 90 31 is_stmt 1 view .LVU318
 957              	.LVL84:
  90:user/esp8266/esp8266_at.c ****         if (weekTable[i] == weekString) {
 958              		.loc 1 90 17 view .LVU319
  91:user/esp8266/esp8266_at.c ****             break;
 959              		.loc 1 91 9 view .LVU320
  91:user/esp8266/esp8266_at.c ****             break;
 960              		.loc 1 91 12 is_stmt 0 view .LVU321
 961 00ca A2F55F22 		sub	r2, r2, #913408
 962 00ce A2F20C62 		subw	r2, r2, #1548
 963 00d2 9342     		cmp	r3, r2
 964 00d4 00F04C82 		beq	.L107
  90:user/esp8266/esp8266_at.c ****         if (weekTable[i] == weekString) {
 965              		.loc 1 90 31 is_stmt 1 view .LVU322
 966              	.LVL85:
  90:user/esp8266/esp8266_at.c ****         if (weekTable[i] == weekString) {
 967              		.loc 1 90 17 view .LVU323
  91:user/esp8266/esp8266_at.c ****             break;
 968              		.loc 1 91 9 view .LVU324
  91:user/esp8266/esp8266_at.c ****             break;
 969              		.loc 1 91 12 is_stmt 0 view .LVU325
 970 00d8 02F54E22 		add	r2, r2, #843776
 971 00dc 02F60B72 		addw	r2, r2, #3851
  90:user/esp8266/esp8266_at.c ****         if (weekTable[i] == weekString) {
 972              		.loc 1 90 32 view .LVU326
 973 00e0 9342     		cmp	r3, r2
 974 00e2 14BF     		ite	ne
 975 00e4 0723     		movne	r3, #7
 976 00e6 0623     		moveq	r3, #6
 977              	.LVL86:
ARM GAS  C:\Users\WENHUA~1\AppData\Local\Temp\ccJqRDmD.s 			page 27


  90:user/esp8266/esp8266_at.c ****         if (weekTable[i] == weekString) {
 978              		.loc 1 90 32 view .LVU327
 979 00e8 0193     		str	r3, [sp, #4]
 980              	.LVL87:
 981              	.L66:
  96:user/esp8266/esp8266_at.c **** }
 982              		.loc 1 96 5 is_stmt 1 view .LVU328
  96:user/esp8266/esp8266_at.c **** }
 983              		.loc 1 96 5 is_stmt 0 view .LVU329
 984              	.LBE186:
 985              	.LBE185:
 128:user/esp8266/esp8266_at.c ****     i = i << 16;
 986              		.loc 1 128 5 is_stmt 1 view .LVU330
 130:user/esp8266/esp8266_at.c ****     month = GetMonth(i);
 987              		.loc 1 130 26 is_stmt 0 view .LVU331
 988 00ea 438A     		ldrh	r3, [r0, #18]	@ unaligned
 128:user/esp8266/esp8266_at.c ****     i = i << 16;
 989              		.loc 1 128 7 view .LVU332
 990 00ec 427C     		ldrb	r2, [r0, #17]	@ zero_extendqisi2
 991              	.LVL88:
 129:user/esp8266/esp8266_at.c ****     i |= cRxBuf[18] << 8 | cRxBuf[19];
 992              		.loc 1 129 5 is_stmt 1 view .LVU333
 130:user/esp8266/esp8266_at.c ****     month = GetMonth(i);
 993              		.loc 1 130 5 view .LVU334
 130:user/esp8266/esp8266_at.c ****     month = GetMonth(i);
 994              		.loc 1 130 26 is_stmt 0 view .LVU335
 995 00ee 5BBA     		rev16	r3, r3
 996 00f0 9BB2     		uxth	r3, r3
 997              	.LVL89:
 131:user/esp8266/esp8266_at.c **** 
 998              		.loc 1 131 5 is_stmt 1 view .LVU336
 999              	.LBB191:
 1000              	.LBI191:
  99:user/esp8266/esp8266_at.c **** {
 1001              		.loc 1 99 9 view .LVU337
 1002              	.LBB192:
 101:user/esp8266/esp8266_at.c ****     uint8_t tableLen;
 1003              		.loc 1 101 5 view .LVU338
 102:user/esp8266/esp8266_at.c ****     uint32_t monthTable[] = { 0, JAN, FEB, MAR, APR, MAY, JUN, JUL, AUG, SEP, OCT, NOV, DEC };
 1004              		.loc 1 102 5 view .LVU339
 103:user/esp8266/esp8266_at.c **** 
 1005              		.loc 1 103 5 view .LVU340
 105:user/esp8266/esp8266_at.c ****     for (i = 0; i < tableLen; i++) {
 1006              		.loc 1 105 5 view .LVU341
 106:user/esp8266/esp8266_at.c ****         if (monthTable[i] == monthString) {
 1007              		.loc 1 106 5 view .LVU342
 106:user/esp8266/esp8266_at.c ****         if (monthTable[i] == monthString) {
 1008              		.loc 1 106 17 view .LVU343
 107:user/esp8266/esp8266_at.c ****             break;
 1009              		.loc 1 107 9 view .LVU344
 107:user/esp8266/esp8266_at.c ****             break;
 1010              		.loc 1 107 12 is_stmt 0 view .LVU345
 1011 00f2 53EA0243 		orrs	r3, r3, r2, lsl #16
 1012              	.LVL90:
 107:user/esp8266/esp8266_at.c ****             break;
 1013              		.loc 1 107 12 view .LVU346
 1014 00f6 00F02682 		beq	.L109
ARM GAS  C:\Users\WENHUA~1\AppData\Local\Temp\ccJqRDmD.s 			page 28


 106:user/esp8266/esp8266_at.c ****         if (monthTable[i] == monthString) {
 1015              		.loc 1 106 31 is_stmt 1 view .LVU347
 1016              	.LVL91:
 106:user/esp8266/esp8266_at.c ****         if (monthTable[i] == monthString) {
 1017              		.loc 1 106 17 view .LVU348
 107:user/esp8266/esp8266_at.c ****             break;
 1018              		.loc 1 107 9 view .LVU349
 107:user/esp8266/esp8266_at.c ****             break;
 1019              		.loc 1 107 12 is_stmt 0 view .LVU350
 1020 00fa 874A     		ldr	r2, .L157+28
 1021 00fc 9342     		cmp	r3, r2
 1022 00fe 40D0     		beq	.L67
 106:user/esp8266/esp8266_at.c ****         if (monthTable[i] == monthString) {
 1023              		.loc 1 106 31 is_stmt 1 view .LVU351
 1024              	.LVL92:
 106:user/esp8266/esp8266_at.c ****         if (monthTable[i] == monthString) {
 1025              		.loc 1 106 17 view .LVU352
 107:user/esp8266/esp8266_at.c ****             break;
 1026              		.loc 1 107 9 view .LVU353
 107:user/esp8266/esp8266_at.c ****             break;
 1027              		.loc 1 107 12 is_stmt 0 view .LVU354
 1028 0100 A2F57F32 		sub	r2, r2, #261120
 1029 0104 0C3A     		subs	r2, r2, #12
 1030 0106 9342     		cmp	r3, r2
 1031 0108 00F02682 		beq	.L110
 106:user/esp8266/esp8266_at.c ****         if (monthTable[i] == monthString) {
 1032              		.loc 1 106 31 is_stmt 1 view .LVU355
 1033              	.LVL93:
 106:user/esp8266/esp8266_at.c ****         if (monthTable[i] == monthString) {
 1034              		.loc 1 106 17 view .LVU356
 107:user/esp8266/esp8266_at.c ****             break;
 1035              		.loc 1 107 9 view .LVU357
 107:user/esp8266/esp8266_at.c ****             break;
 1036              		.loc 1 107 12 is_stmt 0 view .LVU358
 1037 010c 02F5DF22 		add	r2, r2, #456704
 1038 0110 02F58262 		add	r2, r2, #1040
 1039 0114 9342     		cmp	r3, r2
 1040 0116 00F02482 		beq	.L111
 106:user/esp8266/esp8266_at.c ****         if (monthTable[i] == monthString) {
 1041              		.loc 1 106 31 is_stmt 1 view .LVU359
 1042              	.LVL94:
 106:user/esp8266/esp8266_at.c ****         if (monthTable[i] == monthString) {
 1043              		.loc 1 106 17 view .LVU360
 107:user/esp8266/esp8266_at.c ****             break;
 1044              		.loc 1 107 9 view .LVU361
 107:user/esp8266/esp8266_at.c ****             break;
 1045              		.loc 1 107 12 is_stmt 0 view .LVU362
 1046 011a A2F53F22 		sub	r2, r2, #782336
 1047 011e A2F58072 		sub	r2, r2, #256
 1048 0122 9342     		cmp	r3, r2
 1049 0124 00F02282 		beq	.L112
 106:user/esp8266/esp8266_at.c ****         if (monthTable[i] == monthString) {
 1050              		.loc 1 106 31 is_stmt 1 view .LVU363
 1051              	.LVL95:
 106:user/esp8266/esp8266_at.c ****         if (monthTable[i] == monthString) {
 1052              		.loc 1 106 17 view .LVU364
 107:user/esp8266/esp8266_at.c ****             break;
ARM GAS  C:\Users\WENHUA~1\AppData\Local\Temp\ccJqRDmD.s 			page 29


 1053              		.loc 1 107 9 view .LVU365
 107:user/esp8266/esp8266_at.c ****             break;
 1054              		.loc 1 107 12 is_stmt 0 view .LVU366
 1055 0128 02F53F22 		add	r2, r2, #782336
 1056 012c 02F20712 		addw	r2, r2, #263
 1057 0130 9342     		cmp	r3, r2
 1058 0132 00F02082 		beq	.L113
 106:user/esp8266/esp8266_at.c ****         if (monthTable[i] == monthString) {
 1059              		.loc 1 106 31 is_stmt 1 view .LVU367
 1060              	.LVL96:
 106:user/esp8266/esp8266_at.c ****         if (monthTable[i] == monthString) {
 1061              		.loc 1 106 17 view .LVU368
 107:user/esp8266/esp8266_at.c ****             break;
 1062              		.loc 1 107 9 view .LVU369
 107:user/esp8266/esp8266_at.c ****             break;
 1063              		.loc 1 107 12 is_stmt 0 view .LVU370
 1064 0136 A2F53B32 		sub	r2, r2, #191488
 1065 013a 0B3A     		subs	r2, r2, #11
 1066 013c 9342     		cmp	r3, r2
 1067 013e 00F01C82 		beq	.L114
 106:user/esp8266/esp8266_at.c ****         if (monthTable[i] == monthString) {
 1068              		.loc 1 106 31 is_stmt 1 view .LVU371
 1069              	.LVL97:
 106:user/esp8266/esp8266_at.c ****         if (monthTable[i] == monthString) {
 1070              		.loc 1 106 17 view .LVU372
 107:user/esp8266/esp8266_at.c ****             break;
 1071              		.loc 1 107 9 view .LVU373
 107:user/esp8266/esp8266_at.c ****             break;
 1072              		.loc 1 107 12 is_stmt 0 view .LVU374
 1073 0142 023A     		subs	r2, r2, #2
 1074 0144 9342     		cmp	r3, r2
 1075 0146 00F01A82 		beq	.L115
 106:user/esp8266/esp8266_at.c ****         if (monthTable[i] == monthString) {
 1076              		.loc 1 106 31 is_stmt 1 view .LVU375
 1077              	.LVL98:
 106:user/esp8266/esp8266_at.c ****         if (monthTable[i] == monthString) {
 1078              		.loc 1 106 17 view .LVU376
 107:user/esp8266/esp8266_at.c ****             break;
 1079              		.loc 1 107 9 view .LVU377
 107:user/esp8266/esp8266_at.c ****             break;
 1080              		.loc 1 107 12 is_stmt 0 view .LVU378
 1081 014a A2F51022 		sub	r2, r2, #589824
 1082 014e 053A     		subs	r2, r2, #5
 1083 0150 9342     		cmp	r3, r2
 1084 0152 00F01682 		beq	.L116
 106:user/esp8266/esp8266_at.c ****         if (monthTable[i] == monthString) {
 1085              		.loc 1 106 31 is_stmt 1 view .LVU379
 1086              	.LVL99:
 106:user/esp8266/esp8266_at.c ****         if (monthTable[i] == monthString) {
 1087              		.loc 1 106 17 view .LVU380
 107:user/esp8266/esp8266_at.c ****             break;
 1088              		.loc 1 107 9 view .LVU381
 107:user/esp8266/esp8266_at.c ****             break;
 1089              		.loc 1 107 12 is_stmt 0 view .LVU382
 1090 0156 714A     		ldr	r2, .L157+32
 1091 0158 9342     		cmp	r3, r2
 1092 015a 00F01482 		beq	.L117
ARM GAS  C:\Users\WENHUA~1\AppData\Local\Temp\ccJqRDmD.s 			page 30


 106:user/esp8266/esp8266_at.c ****         if (monthTable[i] == monthString) {
 1093              		.loc 1 106 31 is_stmt 1 view .LVU383
 1094              	.LVL100:
 106:user/esp8266/esp8266_at.c ****         if (monthTable[i] == monthString) {
 1095              		.loc 1 106 17 view .LVU384
 107:user/esp8266/esp8266_at.c ****             break;
 1096              		.loc 1 107 9 view .LVU385
 107:user/esp8266/esp8266_at.c ****             break;
 1097              		.loc 1 107 12 is_stmt 0 view .LVU386
 1098 015e A2F58022 		sub	r2, r2, #262144
 1099 0162 A2F5FE72 		sub	r2, r2, #508
 1100 0166 9342     		cmp	r3, r2
 1101 0168 00F00F82 		beq	.L118
 106:user/esp8266/esp8266_at.c ****         if (monthTable[i] == monthString) {
 1102              		.loc 1 106 31 is_stmt 1 view .LVU387
 1103              	.LVL101:
 106:user/esp8266/esp8266_at.c ****         if (monthTable[i] == monthString) {
 1104              		.loc 1 106 17 view .LVU388
 107:user/esp8266/esp8266_at.c ****             break;
 1105              		.loc 1 107 9 view .LVU389
 107:user/esp8266/esp8266_at.c ****             break;
 1106              		.loc 1 107 12 is_stmt 0 view .LVU390
 1107 016c A2F57342 		sub	r2, r2, #62208
 1108 0170 FE3A     		subs	r2, r2, #254
 1109 0172 9342     		cmp	r3, r2
 1110 0174 00F00B82 		beq	.L119
 106:user/esp8266/esp8266_at.c ****         if (monthTable[i] == monthString) {
 1111              		.loc 1 106 31 is_stmt 1 view .LVU391
 1112              	.LVL102:
 106:user/esp8266/esp8266_at.c ****         if (monthTable[i] == monthString) {
 1113              		.loc 1 106 17 view .LVU392
 107:user/esp8266/esp8266_at.c ****             break;
 1114              		.loc 1 107 9 view .LVU393
 107:user/esp8266/esp8266_at.c ****             break;
 1115              		.loc 1 107 12 is_stmt 0 view .LVU394
 1116 0178 694E     		ldr	r6, .L157+36
 106:user/esp8266/esp8266_at.c ****         if (monthTable[i] == monthString) {
 1117              		.loc 1 106 32 view .LVU395
 1118 017a B342     		cmp	r3, r6
 1119 017c 14BF     		ite	ne
 1120 017e 0D26     		movne	r6, #13
 1121 0180 0C26     		moveq	r6, #12
 1122              	.LVL103:
 1123              	.L67:
 112:user/esp8266/esp8266_at.c **** }
 1124              		.loc 1 112 5 is_stmt 1 view .LVU396
 112:user/esp8266/esp8266_at.c **** }
 1125              		.loc 1 112 5 is_stmt 0 view .LVU397
 1126              	.LBE192:
 1127              	.LBE191:
 133:user/esp8266/esp8266_at.c ****     hour = AscToHex(cRxBuf[24]) * 10 + AscToHex(cRxBuf[25]);
 1128              		.loc 1 133 5 is_stmt 1 view .LVU398
 133:user/esp8266/esp8266_at.c ****     hour = AscToHex(cRxBuf[24]) * 10 + AscToHex(cRxBuf[25]);
 1129              		.loc 1 133 11 is_stmt 0 view .LVU399
 1130 0182 437D     		ldrb	r3, [r0, #21]	@ zero_extendqisi2
 1131              	.LVL104:
 1132              	.LBB198:
ARM GAS  C:\Users\WENHUA~1\AppData\Local\Temp\ccJqRDmD.s 			page 31


 1133              	.LBI198:
  66:user/esp8266/esp8266_at.c **** {
 1134              		.loc 1 66 16 is_stmt 1 view .LVU400
 1135              	.LBB199:
  68:user/esp8266/esp8266_at.c **** 
 1136              		.loc 1 68 5 view .LVU401
  70:user/esp8266/esp8266_at.c ****         hex -= 0x30;
 1137              		.loc 1 70 5 view .LVU402
  70:user/esp8266/esp8266_at.c ****         hex -= 0x30;
 1138              		.loc 1 70 23 is_stmt 0 view .LVU403
 1139 0184 A3F13001 		sub	r1, r3, #48
 1140 0188 C9B2     		uxtb	r1, r1
  70:user/esp8266/esp8266_at.c ****         hex -= 0x30;
 1141              		.loc 1 70 8 view .LVU404
 1142 018a 0929     		cmp	r1, #9
 1143 018c 00F26C81 		bhi	.L68
 1144              	.LBE199:
 1145              	.LBE198:
 133:user/esp8266/esp8266_at.c ****     hour = AscToHex(cRxBuf[24]) * 10 + AscToHex(cRxBuf[25]);
 1146              		.loc 1 133 37 view .LVU405
 1147 0190 01EB8101 		add	r1, r1, r1, lsl #2
 1148 0194 4900     		lsls	r1, r1, #1
 1149 0196 C9B2     		uxtb	r1, r1
 1150              	.LVL105:
 1151              	.L69:
 1152              	.LBB211:
 1153              	.LBB206:
  80:user/esp8266/esp8266_at.c **** }
 1154              		.loc 1 80 5 is_stmt 1 view .LVU406
  80:user/esp8266/esp8266_at.c **** }
 1155              		.loc 1 80 5 is_stmt 0 view .LVU407
 1156              	.LBE206:
 1157              	.LBE211:
 133:user/esp8266/esp8266_at.c ****     hour = AscToHex(cRxBuf[24]) * 10 + AscToHex(cRxBuf[25]);
 1158              		.loc 1 133 39 view .LVU408
 1159 0198 837D     		ldrb	r3, [r0, #22]	@ zero_extendqisi2
 1160              	.LVL106:
 1161              	.LBB212:
 1162              	.LBI212:
  66:user/esp8266/esp8266_at.c **** {
 1163              		.loc 1 66 16 is_stmt 1 view .LVU409
 1164              	.LBB213:
  68:user/esp8266/esp8266_at.c **** 
 1165              		.loc 1 68 5 view .LVU410
  70:user/esp8266/esp8266_at.c ****         hex -= 0x30;
 1166              		.loc 1 70 5 view .LVU411
  70:user/esp8266/esp8266_at.c ****         hex -= 0x30;
 1167              		.loc 1 70 23 is_stmt 0 view .LVU412
 1168 019a A3F13007 		sub	r7, r3, #48
 1169 019e FFB2     		uxtb	r7, r7
  70:user/esp8266/esp8266_at.c ****         hex -= 0x30;
 1170              		.loc 1 70 8 view .LVU413
 1171 01a0 092F     		cmp	r7, #9
 1172 01a2 06D9     		bls	.L71
  72:user/esp8266/esp8266_at.c ****         hex -= 0x37;
 1173              		.loc 1 72 12 is_stmt 1 view .LVU414
  72:user/esp8266/esp8266_at.c ****         hex -= 0x37;
ARM GAS  C:\Users\WENHUA~1\AppData\Local\Temp\ccJqRDmD.s 			page 32


 1174              		.loc 1 72 15 is_stmt 0 view .LVU415
 1175 01a4 A3F14102 		sub	r2, r3, #65
 1176 01a8 052A     		cmp	r2, #5
 1177 01aa 00F2A681 		bhi	.L72
  73:user/esp8266/esp8266_at.c ****     } else if ((asc >= 0x61) && (asc <= 0x66)) {
 1178              		.loc 1 73 9 is_stmt 1 view .LVU416
  73:user/esp8266/esp8266_at.c ****     } else if ((asc >= 0x61) && (asc <= 0x66)) {
 1179              		.loc 1 73 13 is_stmt 0 view .LVU417
 1180 01ae 373B     		subs	r3, r3, #55
 1181              	.LVL107:
  73:user/esp8266/esp8266_at.c ****     } else if ((asc >= 0x61) && (asc <= 0x66)) {
 1182              		.loc 1 73 13 view .LVU418
 1183 01b0 DFB2     		uxtb	r7, r3
 1184              	.LVL108:
 1185              	.L71:
  80:user/esp8266/esp8266_at.c **** }
 1186              		.loc 1 80 5 is_stmt 1 view .LVU419
  80:user/esp8266/esp8266_at.c **** }
 1187              		.loc 1 80 5 is_stmt 0 view .LVU420
 1188              	.LBE213:
 1189              	.LBE212:
 134:user/esp8266/esp8266_at.c ****     minute = AscToHex(cRxBuf[27]) * 10 + AscToHex(cRxBuf[28]);
 1190              		.loc 1 134 5 is_stmt 1 view .LVU421
 134:user/esp8266/esp8266_at.c ****     minute = AscToHex(cRxBuf[27]) * 10 + AscToHex(cRxBuf[28]);
 1191              		.loc 1 134 12 is_stmt 0 view .LVU422
 1192 01b2 037E     		ldrb	r3, [r0, #24]	@ zero_extendqisi2
 1193              	.LVL109:
 1194              	.LBB217:
 1195              	.LBI217:
  66:user/esp8266/esp8266_at.c **** {
 1196              		.loc 1 66 16 is_stmt 1 view .LVU423
 1197              	.LBB218:
  68:user/esp8266/esp8266_at.c **** 
 1198              		.loc 1 68 5 view .LVU424
  70:user/esp8266/esp8266_at.c ****         hex -= 0x30;
 1199              		.loc 1 70 5 view .LVU425
  70:user/esp8266/esp8266_at.c ****         hex -= 0x30;
 1200              		.loc 1 70 23 is_stmt 0 view .LVU426
 1201 01b4 A3F1300C 		sub	ip, r3, #48
 1202 01b8 5FFA8CFC 		uxtb	ip, ip
  70:user/esp8266/esp8266_at.c ****         hex -= 0x30;
 1203              		.loc 1 70 8 view .LVU427
 1204 01bc BCF1090F 		cmp	ip, #9
 1205 01c0 00F24281 		bhi	.L73
 1206              	.LBE218:
 1207              	.LBE217:
 134:user/esp8266/esp8266_at.c ****     minute = AscToHex(cRxBuf[27]) * 10 + AscToHex(cRxBuf[28]);
 1208              		.loc 1 134 38 view .LVU428
 1209 01c4 0CEB8C0C 		add	ip, ip, ip, lsl #2
 1210 01c8 4FEA4C0C 		lsl	ip, ip, #1
 1211 01cc 5FFA8CFC 		uxtb	ip, ip
 1212              	.LVL110:
 1213              	.L74:
 1214              	.LBB231:
 1215              	.LBB225:
  80:user/esp8266/esp8266_at.c **** }
 1216              		.loc 1 80 5 is_stmt 1 view .LVU429
ARM GAS  C:\Users\WENHUA~1\AppData\Local\Temp\ccJqRDmD.s 			page 33


  80:user/esp8266/esp8266_at.c **** }
 1217              		.loc 1 80 5 is_stmt 0 view .LVU430
 1218              	.LBE225:
 1219              	.LBE231:
 134:user/esp8266/esp8266_at.c ****     minute = AscToHex(cRxBuf[27]) * 10 + AscToHex(cRxBuf[28]);
 1220              		.loc 1 134 40 view .LVU431
 1221 01d0 437E     		ldrb	r3, [r0, #25]	@ zero_extendqisi2
 1222              	.LVL111:
 1223              	.LBB232:
 1224              	.LBI232:
  66:user/esp8266/esp8266_at.c **** {
 1225              		.loc 1 66 16 is_stmt 1 view .LVU432
 1226              	.LBB233:
  68:user/esp8266/esp8266_at.c **** 
 1227              		.loc 1 68 5 view .LVU433
  70:user/esp8266/esp8266_at.c ****         hex -= 0x30;
 1228              		.loc 1 70 5 view .LVU434
  70:user/esp8266/esp8266_at.c ****         hex -= 0x30;
 1229              		.loc 1 70 23 is_stmt 0 view .LVU435
 1230 01d2 A3F13008 		sub	r8, r3, #48
 1231 01d6 5FFA88F8 		uxtb	r8, r8
  70:user/esp8266/esp8266_at.c ****         hex -= 0x30;
 1232              		.loc 1 70 8 view .LVU436
 1233 01da B8F1090F 		cmp	r8, #9
 1234 01de 07D9     		bls	.L76
  72:user/esp8266/esp8266_at.c ****         hex -= 0x37;
 1235              		.loc 1 72 12 is_stmt 1 view .LVU437
  72:user/esp8266/esp8266_at.c ****         hex -= 0x37;
 1236              		.loc 1 72 15 is_stmt 0 view .LVU438
 1237 01e0 A3F14102 		sub	r2, r3, #65
 1238 01e4 052A     		cmp	r2, #5
 1239 01e6 00F27E81 		bhi	.L77
  73:user/esp8266/esp8266_at.c ****     } else if ((asc >= 0x61) && (asc <= 0x66)) {
 1240              		.loc 1 73 9 is_stmt 1 view .LVU439
  73:user/esp8266/esp8266_at.c ****     } else if ((asc >= 0x61) && (asc <= 0x66)) {
 1241              		.loc 1 73 13 is_stmt 0 view .LVU440
 1242 01ea 373B     		subs	r3, r3, #55
 1243              	.LVL112:
  73:user/esp8266/esp8266_at.c ****     } else if ((asc >= 0x61) && (asc <= 0x66)) {
 1244              		.loc 1 73 13 view .LVU441
 1245 01ec 5FFA83F8 		uxtb	r8, r3
 1246              	.LVL113:
 1247              	.L76:
  80:user/esp8266/esp8266_at.c **** }
 1248              		.loc 1 80 5 is_stmt 1 view .LVU442
  80:user/esp8266/esp8266_at.c **** }
 1249              		.loc 1 80 5 is_stmt 0 view .LVU443
 1250              	.LBE233:
 1251              	.LBE232:
 135:user/esp8266/esp8266_at.c ****     second = AscToHex(cRxBuf[30]) * 10 + AscToHex(cRxBuf[31]);
 1252              		.loc 1 135 5 is_stmt 1 view .LVU444
 135:user/esp8266/esp8266_at.c ****     second = AscToHex(cRxBuf[30]) * 10 + AscToHex(cRxBuf[31]);
 1253              		.loc 1 135 14 is_stmt 0 view .LVU445
 1254 01f0 C37E     		ldrb	r3, [r0, #27]	@ zero_extendqisi2
 1255              	.LVL114:
 1256              	.LBB237:
 1257              	.LBI237:
ARM GAS  C:\Users\WENHUA~1\AppData\Local\Temp\ccJqRDmD.s 			page 34


  66:user/esp8266/esp8266_at.c **** {
 1258              		.loc 1 66 16 is_stmt 1 view .LVU446
 1259              	.LBB238:
  68:user/esp8266/esp8266_at.c **** 
 1260              		.loc 1 68 5 view .LVU447
  70:user/esp8266/esp8266_at.c ****         hex -= 0x30;
 1261              		.loc 1 70 5 view .LVU448
  70:user/esp8266/esp8266_at.c ****         hex -= 0x30;
 1262              		.loc 1 70 23 is_stmt 0 view .LVU449
 1263 01f2 A3F13005 		sub	r5, r3, #48
 1264              	.LVL115:
  70:user/esp8266/esp8266_at.c ****         hex -= 0x30;
 1265              		.loc 1 70 23 view .LVU450
 1266 01f6 EDB2     		uxtb	r5, r5
  70:user/esp8266/esp8266_at.c ****         hex -= 0x30;
 1267              		.loc 1 70 8 view .LVU451
 1268 01f8 092D     		cmp	r5, #9
 1269 01fa 00F21781 		bhi	.L78
 1270              	.LBE238:
 1271              	.LBE237:
 135:user/esp8266/esp8266_at.c ****     second = AscToHex(cRxBuf[30]) * 10 + AscToHex(cRxBuf[31]);
 1272              		.loc 1 135 40 view .LVU452
 1273 01fe 05EB8505 		add	r5, r5, r5, lsl #2
 1274 0202 6D00     		lsls	r5, r5, #1
 1275 0204 EDB2     		uxtb	r5, r5
 1276              	.LVL116:
 1277              	.L79:
 1278              	.LBB251:
 1279              	.LBB245:
  80:user/esp8266/esp8266_at.c **** }
 1280              		.loc 1 80 5 is_stmt 1 view .LVU453
  80:user/esp8266/esp8266_at.c **** }
 1281              		.loc 1 80 5 is_stmt 0 view .LVU454
 1282              	.LBE245:
 1283              	.LBE251:
 135:user/esp8266/esp8266_at.c ****     second = AscToHex(cRxBuf[30]) * 10 + AscToHex(cRxBuf[31]);
 1284              		.loc 1 135 42 view .LVU455
 1285 0206 037F     		ldrb	r3, [r0, #28]	@ zero_extendqisi2
 1286              	.LVL117:
 1287              	.LBB252:
 1288              	.LBI252:
  66:user/esp8266/esp8266_at.c **** {
 1289              		.loc 1 66 16 is_stmt 1 view .LVU456
 1290              	.LBB253:
  68:user/esp8266/esp8266_at.c **** 
 1291              		.loc 1 68 5 view .LVU457
  70:user/esp8266/esp8266_at.c ****         hex -= 0x30;
 1292              		.loc 1 70 5 view .LVU458
  70:user/esp8266/esp8266_at.c ****         hex -= 0x30;
 1293              		.loc 1 70 23 is_stmt 0 view .LVU459
 1294 0208 A3F13009 		sub	r9, r3, #48
 1295 020c 5FFA89F9 		uxtb	r9, r9
  70:user/esp8266/esp8266_at.c ****         hex -= 0x30;
 1296              		.loc 1 70 8 view .LVU460
 1297 0210 B9F1090F 		cmp	r9, #9
 1298 0214 07D9     		bls	.L81
  72:user/esp8266/esp8266_at.c ****         hex -= 0x37;
ARM GAS  C:\Users\WENHUA~1\AppData\Local\Temp\ccJqRDmD.s 			page 35


 1299              		.loc 1 72 12 is_stmt 1 view .LVU461
  72:user/esp8266/esp8266_at.c ****         hex -= 0x37;
 1300              		.loc 1 72 15 is_stmt 0 view .LVU462
 1301 0216 A3F14102 		sub	r2, r3, #65
 1302 021a 052A     		cmp	r2, #5
 1303 021c 00F25981 		bhi	.L82
  73:user/esp8266/esp8266_at.c ****     } else if ((asc >= 0x61) && (asc <= 0x66)) {
 1304              		.loc 1 73 9 is_stmt 1 view .LVU463
  73:user/esp8266/esp8266_at.c ****     } else if ((asc >= 0x61) && (asc <= 0x66)) {
 1305              		.loc 1 73 13 is_stmt 0 view .LVU464
 1306 0220 373B     		subs	r3, r3, #55
 1307              	.LVL118:
  73:user/esp8266/esp8266_at.c ****     } else if ((asc >= 0x61) && (asc <= 0x66)) {
 1308              		.loc 1 73 13 view .LVU465
 1309 0222 5FFA83F9 		uxtb	r9, r3
 1310              	.LVL119:
 1311              	.L81:
  80:user/esp8266/esp8266_at.c **** }
 1312              		.loc 1 80 5 is_stmt 1 view .LVU466
  80:user/esp8266/esp8266_at.c **** }
 1313              		.loc 1 80 5 is_stmt 0 view .LVU467
 1314              	.LBE253:
 1315              	.LBE252:
 136:user/esp8266/esp8266_at.c ****     year = AscToHex(cRxBuf[33]) * 1000 + AscToHex(cRxBuf[34]) * 100 + AscToHex(cRxBuf[35]) * 10 + A
 1316              		.loc 1 136 5 is_stmt 1 view .LVU468
 136:user/esp8266/esp8266_at.c ****     year = AscToHex(cRxBuf[33]) * 1000 + AscToHex(cRxBuf[34]) * 100 + AscToHex(cRxBuf[35]) * 10 + A
 1317              		.loc 1 136 14 is_stmt 0 view .LVU469
 1318 0226 837F     		ldrb	r3, [r0, #30]	@ zero_extendqisi2
 1319              	.LVL120:
 1320              	.LBB257:
 1321              	.LBI257:
  66:user/esp8266/esp8266_at.c **** {
 1322              		.loc 1 66 16 is_stmt 1 view .LVU470
 1323              	.LBB258:
  68:user/esp8266/esp8266_at.c **** 
 1324              		.loc 1 68 5 view .LVU471
  70:user/esp8266/esp8266_at.c ****         hex -= 0x30;
 1325              		.loc 1 70 5 view .LVU472
  70:user/esp8266/esp8266_at.c ****         hex -= 0x30;
 1326              		.loc 1 70 23 is_stmt 0 view .LVU473
 1327 0228 A3F1300E 		sub	lr, r3, #48
 1328 022c 5FFA8EFE 		uxtb	lr, lr
  70:user/esp8266/esp8266_at.c ****         hex -= 0x30;
 1329              		.loc 1 70 8 view .LVU474
 1330 0230 BEF1090F 		cmp	lr, #9
 1331 0234 00F2E980 		bhi	.L83
 1332              	.LBE258:
 1333              	.LBE257:
 136:user/esp8266/esp8266_at.c ****     year = AscToHex(cRxBuf[33]) * 1000 + AscToHex(cRxBuf[34]) * 100 + AscToHex(cRxBuf[35]) * 10 + A
 1334              		.loc 1 136 40 view .LVU475
 1335 0238 0EEB8E0E 		add	lr, lr, lr, lsl #2
 1336 023c 4FEA4E0E 		lsl	lr, lr, #1
 1337 0240 5FFA8EFE 		uxtb	lr, lr
 1338              	.LVL121:
 1339              	.L84:
 1340              	.LBB271:
 1341              	.LBB265:
ARM GAS  C:\Users\WENHUA~1\AppData\Local\Temp\ccJqRDmD.s 			page 36


  80:user/esp8266/esp8266_at.c **** }
 1342              		.loc 1 80 5 is_stmt 1 view .LVU476
  80:user/esp8266/esp8266_at.c **** }
 1343              		.loc 1 80 5 is_stmt 0 view .LVU477
 1344              	.LBE265:
 1345              	.LBE271:
 136:user/esp8266/esp8266_at.c ****     year = AscToHex(cRxBuf[33]) * 1000 + AscToHex(cRxBuf[34]) * 100 + AscToHex(cRxBuf[35]) * 10 + A
 1346              		.loc 1 136 42 view .LVU478
 1347 0244 C37F     		ldrb	r3, [r0, #31]	@ zero_extendqisi2
 1348              	.LVL122:
 1349              	.LBB272:
 1350              	.LBI272:
  66:user/esp8266/esp8266_at.c **** {
 1351              		.loc 1 66 16 is_stmt 1 view .LVU479
 1352              	.LBB273:
  68:user/esp8266/esp8266_at.c **** 
 1353              		.loc 1 68 5 view .LVU480
  70:user/esp8266/esp8266_at.c ****         hex -= 0x30;
 1354              		.loc 1 70 5 view .LVU481
  70:user/esp8266/esp8266_at.c ****         hex -= 0x30;
 1355              		.loc 1 70 23 is_stmt 0 view .LVU482
 1356 0246 A3F1300A 		sub	r10, r3, #48
 1357 024a 5FFA8AFA 		uxtb	r10, r10
  70:user/esp8266/esp8266_at.c ****         hex -= 0x30;
 1358              		.loc 1 70 8 view .LVU483
 1359 024e BAF1090F 		cmp	r10, #9
 1360 0252 08D9     		bls	.L86
  72:user/esp8266/esp8266_at.c ****         hex -= 0x37;
 1361              		.loc 1 72 12 is_stmt 1 view .LVU484
  72:user/esp8266/esp8266_at.c ****         hex -= 0x37;
 1362              		.loc 1 72 15 is_stmt 0 view .LVU485
 1363 0254 A3F14102 		sub	r2, r3, #65
 1364 0258 052A     		cmp	r2, #5
 1365 025a 00F25681 		bhi	.L87
  73:user/esp8266/esp8266_at.c ****     } else if ((asc >= 0x61) && (asc <= 0x66)) {
 1366              		.loc 1 73 9 is_stmt 1 view .LVU486
  73:user/esp8266/esp8266_at.c ****     } else if ((asc >= 0x61) && (asc <= 0x66)) {
 1367              		.loc 1 73 13 is_stmt 0 view .LVU487
 1368 025e A3F1370A 		sub	r10, r3, #55
 1369 0262 5FFA8AFA 		uxtb	r10, r10
 1370              	.LVL123:
 1371              	.L86:
  80:user/esp8266/esp8266_at.c **** }
 1372              		.loc 1 80 5 is_stmt 1 view .LVU488
  80:user/esp8266/esp8266_at.c **** }
 1373              		.loc 1 80 5 is_stmt 0 view .LVU489
 1374              	.LBE273:
 1375              	.LBE272:
 137:user/esp8266/esp8266_at.c **** 
 1376              		.loc 1 137 5 is_stmt 1 view .LVU490
 137:user/esp8266/esp8266_at.c **** 
 1377              		.loc 1 137 12 is_stmt 0 view .LVU491
 1378 0266 90F82120 		ldrb	r2, [r0, #33]	@ zero_extendqisi2
 1379              	.LVL124:
 1380              	.LBB277:
 1381              	.LBI277:
  66:user/esp8266/esp8266_at.c **** {
ARM GAS  C:\Users\WENHUA~1\AppData\Local\Temp\ccJqRDmD.s 			page 37


 1382              		.loc 1 66 16 is_stmt 1 view .LVU492
 1383              	.LBB278:
  68:user/esp8266/esp8266_at.c **** 
 1384              		.loc 1 68 5 view .LVU493
  70:user/esp8266/esp8266_at.c ****         hex -= 0x30;
 1385              		.loc 1 70 5 view .LVU494
  70:user/esp8266/esp8266_at.c ****         hex -= 0x30;
 1386              		.loc 1 70 23 is_stmt 0 view .LVU495
 1387 026a A2F13003 		sub	r3, r2, #48
 1388 026e DBB2     		uxtb	r3, r3
  70:user/esp8266/esp8266_at.c ****         hex -= 0x30;
 1389              		.loc 1 70 8 view .LVU496
 1390 0270 092B     		cmp	r3, #9
 1391 0272 00F2B880 		bhi	.L88
 1392              	.LBE278:
 1393              	.LBE277:
 137:user/esp8266/esp8266_at.c **** 
 1394              		.loc 1 137 40 view .LVU497
 1395 0276 C3EB4312 		rsb	r2, r3, r3, lsl #5
 1396              	.LVL125:
 137:user/esp8266/esp8266_at.c **** 
 1397              		.loc 1 137 40 view .LVU498
 1398 027a 03EB8203 		add	r3, r3, r2, lsl #2
 1399 027e DB00     		lsls	r3, r3, #3
 1400 0280 9BB2     		uxth	r3, r3
 1401              	.LVL126:
 1402              	.L89:
 1403              	.LBB290:
 1404              	.LBB285:
  80:user/esp8266/esp8266_at.c **** }
 1405              		.loc 1 80 5 is_stmt 1 view .LVU499
  80:user/esp8266/esp8266_at.c **** }
 1406              		.loc 1 80 5 is_stmt 0 view .LVU500
 1407              	.LBE285:
 1408              	.LBE290:
 137:user/esp8266/esp8266_at.c **** 
 1409              		.loc 1 137 42 view .LVU501
 1410 0282 90F822B0 		ldrb	fp, [r0, #34]	@ zero_extendqisi2
 1411              	.LVL127:
 1412              	.LBB291:
 1413              	.LBI291:
  66:user/esp8266/esp8266_at.c **** {
 1414              		.loc 1 66 16 is_stmt 1 view .LVU502
 1415              	.LBB292:
  68:user/esp8266/esp8266_at.c **** 
 1416              		.loc 1 68 5 view .LVU503
  70:user/esp8266/esp8266_at.c ****         hex -= 0x30;
 1417              		.loc 1 70 5 view .LVU504
  70:user/esp8266/esp8266_at.c ****         hex -= 0x30;
 1418              		.loc 1 70 23 is_stmt 0 view .LVU505
 1419 0286 ABF13002 		sub	r2, fp, #48
 1420 028a D2B2     		uxtb	r2, r2
  70:user/esp8266/esp8266_at.c ****         hex -= 0x30;
 1421              		.loc 1 70 8 view .LVU506
 1422 028c 092A     		cmp	r2, #9
 1423 028e 16D9     		bls	.L147
  72:user/esp8266/esp8266_at.c ****         hex -= 0x37;
ARM GAS  C:\Users\WENHUA~1\AppData\Local\Temp\ccJqRDmD.s 			page 38


 1424              		.loc 1 72 12 is_stmt 1 view .LVU507
  72:user/esp8266/esp8266_at.c ****         hex -= 0x37;
 1425              		.loc 1 72 15 is_stmt 0 view .LVU508
 1426 0290 ABF14102 		sub	r2, fp, #65
 1427 0294 052A     		cmp	r2, #5
 1428 0296 0FD9     		bls	.L150
 1429              	.LVL128:
 1430              	.LBB293:
 1431              	.LBI293:
  66:user/esp8266/esp8266_at.c **** {
 1432              		.loc 1 66 16 is_stmt 1 view .LVU509
 1433              	.LBB294:
  74:user/esp8266/esp8266_at.c ****         hex -= 0x57;
 1434              		.loc 1 74 12 view .LVU510
  74:user/esp8266/esp8266_at.c ****         hex -= 0x57;
 1435              		.loc 1 74 15 is_stmt 0 view .LVU511
 1436 0298 ABF16102 		sub	r2, fp, #97
 1437 029c 052A     		cmp	r2, #5
 1438 029e 00F24F81 		bhi	.L130
  75:user/esp8266/esp8266_at.c ****     } else {
 1439              		.loc 1 75 9 is_stmt 1 view .LVU512
 1440              	.LVL129:
  75:user/esp8266/esp8266_at.c ****     } else {
 1441              		.loc 1 75 13 is_stmt 0 view .LVU513
 1442 02a2 ABF15702 		sub	r2, fp, #87
 1443              	.LBE294:
 1444              	.LBE293:
 1445              	.LBE292:
 1446              	.LBE291:
 137:user/esp8266/esp8266_at.c **** 
 1447              		.loc 1 137 40 view .LVU514
 1448 02a6 D2B2     		uxtb	r2, r2
 1449 02a8 02EB8202 		add	r2, r2, r2, lsl #2
 1450 02ac 02EB8202 		add	r2, r2, r2, lsl #2
 1451 02b0 9200     		lsls	r2, r2, #2
 1452              	.LBB302:
 1453              	.LBB299:
 1454              	.LBB297:
 1455              	.LBB295:
 1456 02b2 09E0     		b	.L92
 1457              	.LVL130:
 1458              	.L149:
 137:user/esp8266/esp8266_at.c **** 
 1459              		.loc 1 137 40 view .LVU515
 1460 02b4 124C     		ldr	r4, .L157+4
 1461 02b6 B2E6     		b	.L61
 1462              	.LVL131:
 1463              	.L150:
 137:user/esp8266/esp8266_at.c **** 
 1464              		.loc 1 137 40 view .LVU516
 1465              	.LBE295:
 1466              	.LBE297:
  73:user/esp8266/esp8266_at.c ****     } else if ((asc >= 0x61) && (asc <= 0x66)) {
 1467              		.loc 1 73 9 is_stmt 1 view .LVU517
  73:user/esp8266/esp8266_at.c ****     } else if ((asc >= 0x61) && (asc <= 0x66)) {
 1468              		.loc 1 73 13 is_stmt 0 view .LVU518
 1469 02b8 ABF13702 		sub	r2, fp, #55
ARM GAS  C:\Users\WENHUA~1\AppData\Local\Temp\ccJqRDmD.s 			page 39


 1470              	.LBE299:
 1471              	.LBE302:
 137:user/esp8266/esp8266_at.c **** 
 1472              		.loc 1 137 40 view .LVU519
 1473 02bc D2B2     		uxtb	r2, r2
 1474              	.LVL132:
 1475              	.L147:
 137:user/esp8266/esp8266_at.c **** 
 1476              		.loc 1 137 40 view .LVU520
 1477 02be 02EB8202 		add	r2, r2, r2, lsl #2
 1478 02c2 02EB8202 		add	r2, r2, r2, lsl #2
 1479 02c6 9200     		lsls	r2, r2, #2
 1480              	.L92:
 1481              	.LBB303:
 1482              	.LBB300:
  80:user/esp8266/esp8266_at.c **** }
 1483              		.loc 1 80 5 is_stmt 1 view .LVU521
 1484              	.LVL133:
  80:user/esp8266/esp8266_at.c **** }
 1485              		.loc 1 80 5 is_stmt 0 view .LVU522
 1486              	.LBE300:
 1487              	.LBE303:
 137:user/esp8266/esp8266_at.c **** 
 1488              		.loc 1 137 71 view .LVU523
 1489 02c8 90F823B0 		ldrb	fp, [r0, #35]	@ zero_extendqisi2
 1490              	.LVL134:
 1491              	.LBB304:
 1492              	.LBI304:
  66:user/esp8266/esp8266_at.c **** {
 1493              		.loc 1 66 16 is_stmt 1 view .LVU524
 1494              	.LBB305:
  68:user/esp8266/esp8266_at.c **** 
 1495              		.loc 1 68 5 view .LVU525
  70:user/esp8266/esp8266_at.c ****         hex -= 0x30;
 1496              		.loc 1 70 5 view .LVU526
 1497              	.LBE305:
 1498              	.LBE304:
 137:user/esp8266/esp8266_at.c **** 
 1499              		.loc 1 137 40 is_stmt 0 view .LVU527
 1500 02cc 1344     		add	r3, r3, r2
 1501              	.LBB317:
 1502              	.LBB312:
  70:user/esp8266/esp8266_at.c ****         hex -= 0x30;
 1503              		.loc 1 70 23 view .LVU528
 1504 02ce ABF13002 		sub	r2, fp, #48
 1505 02d2 D2B2     		uxtb	r2, r2
  70:user/esp8266/esp8266_at.c ****         hex -= 0x30;
 1506              		.loc 1 70 8 view .LVU529
 1507 02d4 092A     		cmp	r2, #9
 1508              	.LBE312:
 1509              	.LBE317:
 137:user/esp8266/esp8266_at.c **** 
 1510              		.loc 1 137 40 view .LVU530
 1511 02d6 9BB2     		uxth	r3, r3
 1512              	.LBB318:
 1513              	.LBB313:
  70:user/esp8266/esp8266_at.c ****         hex -= 0x30;
ARM GAS  C:\Users\WENHUA~1\AppData\Local\Temp\ccJqRDmD.s 			page 40


 1514              		.loc 1 70 8 view .LVU531
 1515 02d8 27D9     		bls	.L148
  72:user/esp8266/esp8266_at.c ****         hex -= 0x37;
 1516              		.loc 1 72 12 is_stmt 1 view .LVU532
  72:user/esp8266/esp8266_at.c ****         hex -= 0x37;
 1517              		.loc 1 72 15 is_stmt 0 view .LVU533
 1518 02da ABF14102 		sub	r2, fp, #65
 1519 02de 052A     		cmp	r2, #5
 1520 02e0 20D9     		bls	.L151
 1521              	.LVL135:
 1522              	.LBB306:
 1523              	.LBI306:
  66:user/esp8266/esp8266_at.c **** {
 1524              		.loc 1 66 16 is_stmt 1 view .LVU534
 1525              	.LBB307:
  74:user/esp8266/esp8266_at.c ****         hex -= 0x57;
 1526              		.loc 1 74 12 view .LVU535
  74:user/esp8266/esp8266_at.c ****         hex -= 0x57;
 1527              		.loc 1 74 15 is_stmt 0 view .LVU536
 1528 02e2 ABF16102 		sub	r2, fp, #97
 1529 02e6 052A     		cmp	r2, #5
 1530 02e8 00F22581 		bhi	.L131
  75:user/esp8266/esp8266_at.c ****     } else {
 1531              		.loc 1 75 9 is_stmt 1 view .LVU537
 1532              	.LVL136:
  75:user/esp8266/esp8266_at.c ****     } else {
 1533              		.loc 1 75 13 is_stmt 0 view .LVU538
 1534 02ec ABF15702 		sub	r2, fp, #87
 1535              	.LBE307:
 1536              	.LBE306:
 1537              	.LBE313:
 1538              	.LBE318:
 137:user/esp8266/esp8266_at.c **** 
 1539              		.loc 1 137 69 view .LVU539
 1540 02f0 D2B2     		uxtb	r2, r2
 1541 02f2 02EB8202 		add	r2, r2, r2, lsl #2
 1542 02f6 5200     		lsls	r2, r2, #1
 1543              	.LBB319:
 1544              	.LBB314:
 1545              	.LBB310:
 1546              	.LBB308:
 1547 02f8 1AE0     		b	.L95
 1548              	.L158:
 1549 02fa 00BF     		.align	2
 1550              	.L157:
 1551 02fc 00000000 		.word	.LC7
 1552 0300 00000000 		.word	.LANCHOR0
 1553 0304 0C000000 		.word	.LC8
 1554 0308 000C0140 		.word	1073810432
 1555 030c 18000000 		.word	.LC9
 1556 0310 24000000 		.word	.LC10
 1557 0314 6E755300 		.word	5469550
 1558 0318 6E614A00 		.word	4874606
 1559 031c 70655300 		.word	5465456
 1560 0320 63654400 		.word	4482403
 1561              	.LVL137:
 1562              	.L151:
ARM GAS  C:\Users\WENHUA~1\AppData\Local\Temp\ccJqRDmD.s 			page 41


 137:user/esp8266/esp8266_at.c **** 
 1563              		.loc 1 137 69 view .LVU540
 1564              	.LBE308:
 1565              	.LBE310:
  73:user/esp8266/esp8266_at.c ****     } else if ((asc >= 0x61) && (asc <= 0x66)) {
 1566              		.loc 1 73 9 is_stmt 1 view .LVU541
  73:user/esp8266/esp8266_at.c ****     } else if ((asc >= 0x61) && (asc <= 0x66)) {
 1567              		.loc 1 73 13 is_stmt 0 view .LVU542
 1568 0324 ABF13702 		sub	r2, fp, #55
 1569              	.LBE314:
 1570              	.LBE319:
 137:user/esp8266/esp8266_at.c **** 
 1571              		.loc 1 137 69 view .LVU543
 1572 0328 D2B2     		uxtb	r2, r2
 1573              	.LVL138:
 1574              	.L148:
 137:user/esp8266/esp8266_at.c **** 
 1575              		.loc 1 137 69 view .LVU544
 1576 032a 02EB8202 		add	r2, r2, r2, lsl #2
 1577 032e 5200     		lsls	r2, r2, #1
 1578              	.L95:
 1579              	.LBB320:
 1580              	.LBB315:
  80:user/esp8266/esp8266_at.c **** }
 1581              		.loc 1 80 5 is_stmt 1 view .LVU545
 1582              	.LVL139:
  80:user/esp8266/esp8266_at.c **** }
 1583              		.loc 1 80 5 is_stmt 0 view .LVU546
 1584              	.LBE315:
 1585              	.LBE320:
 137:user/esp8266/esp8266_at.c **** 
 1586              		.loc 1 137 99 view .LVU547
 1587 0330 90F82400 		ldrb	r0, [r0, #36]	@ zero_extendqisi2
 1588              	.LVL140:
 1589              	.LBB321:
 1590              	.LBI321:
  66:user/esp8266/esp8266_at.c **** {
 1591              		.loc 1 66 16 is_stmt 1 view .LVU548
 1592              	.LBB322:
  68:user/esp8266/esp8266_at.c **** 
 1593              		.loc 1 68 5 view .LVU549
  70:user/esp8266/esp8266_at.c ****         hex -= 0x30;
 1594              		.loc 1 70 5 view .LVU550
 1595              	.LBE322:
 1596              	.LBE321:
 137:user/esp8266/esp8266_at.c **** 
 1597              		.loc 1 137 69 is_stmt 0 view .LVU551
 1598 0334 1A44     		add	r2, r2, r3
 1599              	.LBB331:
 1600              	.LBB325:
  70:user/esp8266/esp8266_at.c ****         hex -= 0x30;
 1601              		.loc 1 70 23 view .LVU552
 1602 0336 A0F13003 		sub	r3, r0, #48
 1603 033a DBB2     		uxtb	r3, r3
  70:user/esp8266/esp8266_at.c ****         hex -= 0x30;
 1604              		.loc 1 70 8 view .LVU553
 1605 033c 092B     		cmp	r3, #9
ARM GAS  C:\Users\WENHUA~1\AppData\Local\Temp\ccJqRDmD.s 			page 42


 1606              	.LBE325:
 1607              	.LBE331:
 137:user/esp8266/esp8266_at.c **** 
 1608              		.loc 1 137 69 view .LVU554
 1609 033e 92B2     		uxth	r2, r2
 1610              	.LBB332:
 1611              	.LBB326:
  70:user/esp8266/esp8266_at.c ****         hex -= 0x30;
 1612              		.loc 1 70 8 view .LVU555
 1613 0340 49D8     		bhi	.L97
 1614              	.LBE326:
 1615              	.LBE332:
 137:user/esp8266/esp8266_at.c **** 
 1616              		.loc 1 137 99 view .LVU556
 1617 0342 9BB2     		uxth	r3, r3
 1618              	.LVL141:
 1619              	.L98:
 1620              	.LBB333:
 1621              	.LBB327:
  80:user/esp8266/esp8266_at.c **** }
 1622              		.loc 1 80 5 is_stmt 1 view .LVU557
  80:user/esp8266/esp8266_at.c **** }
 1623              		.loc 1 80 5 is_stmt 0 view .LVU558
 1624              	.LBE327:
 1625              	.LBE333:
 137:user/esp8266/esp8266_at.c **** 
 1626              		.loc 1 137 10 view .LVU559
 1627 0344 1344     		add	r3, r3, r2
 1628 0346 9BB2     		uxth	r3, r3
 1629              	.LVL142:
 139:user/esp8266/esp8266_at.c ****         status = false;
 1630              		.loc 1 139 5 is_stmt 1 view .LVU560
 139:user/esp8266/esp8266_at.c ****         status = false;
 1631              		.loc 1 139 8 is_stmt 0 view .LVU561
 1632 0348 A3F5FA62 		sub	r2, r3, #2000
 1633 034c 632A     		cmp	r2, #99
 1634 034e 3BD8     		bhi	.L100
 142:user/esp8266/esp8266_at.c ****             (minute > 59) || (second > 59)) {
 1635              		.loc 1 142 9 is_stmt 1 view .LVU562
 142:user/esp8266/esp8266_at.c ****             (minute > 59) || (second > 59)) {
 1636              		.loc 1 142 44 is_stmt 0 view .LVU563
 1637 0350 002E     		cmp	r6, #0
 1638 0352 39D0     		beq	.L100
 142:user/esp8266/esp8266_at.c ****             (minute > 59) || (second > 59)) {
 1639              		.loc 1 142 60 view .LVU564
 1640 0354 0D2E     		cmp	r6, #13
 1641 0356 37D0     		beq	.L100
 133:user/esp8266/esp8266_at.c ****     hour = AscToHex(cRxBuf[24]) * 10 + AscToHex(cRxBuf[25]);
 1642              		.loc 1 133 9 view .LVU565
 1643 0358 7A18     		adds	r2, r7, r1
 1644 035a D2B2     		uxtb	r2, r2
 142:user/esp8266/esp8266_at.c ****             (minute > 59) || (second > 59)) {
 1645              		.loc 1 142 76 view .LVU566
 1646 035c 511E     		subs	r1, r2, #1
 1647              	.LVL143:
 142:user/esp8266/esp8266_at.c ****             (minute > 59) || (second > 59)) {
 1648              		.loc 1 142 76 view .LVU567
ARM GAS  C:\Users\WENHUA~1\AppData\Local\Temp\ccJqRDmD.s 			page 43


 1649 035e 1E29     		cmp	r1, #30
 1650 0360 32D8     		bhi	.L100
 134:user/esp8266/esp8266_at.c ****     minute = AscToHex(cRxBuf[27]) * 10 + AscToHex(cRxBuf[28]);
 1651              		.loc 1 134 10 view .LVU568
 1652 0362 08EB0C01 		add	r1, r8, ip
 1653 0366 C9B2     		uxtb	r1, r1
 142:user/esp8266/esp8266_at.c ****             (minute > 59) || (second > 59)) {
 1654              		.loc 1 142 104 view .LVU569
 1655 0368 1729     		cmp	r1, #23
 1656 036a 2DD8     		bhi	.L100
 135:user/esp8266/esp8266_at.c ****     second = AscToHex(cRxBuf[30]) * 10 + AscToHex(cRxBuf[31]);
 1657              		.loc 1 135 12 view .LVU570
 1658 036c 09EB0500 		add	r0, r9, r5
 1659 0370 C0B2     		uxtb	r0, r0
 142:user/esp8266/esp8266_at.c ****             (minute > 59) || (second > 59)) {
 1660              		.loc 1 142 119 view .LVU571
 1661 0372 3B28     		cmp	r0, #59
 1662 0374 28D8     		bhi	.L100
 136:user/esp8266/esp8266_at.c ****     year = AscToHex(cRxBuf[33]) * 1000 + AscToHex(cRxBuf[34]) * 100 + AscToHex(cRxBuf[35]) * 10 + A
 1663              		.loc 1 136 12 view .LVU572
 1664 0376 0AEB0E05 		add	r5, r10, lr
 1665              	.LVL144:
 136:user/esp8266/esp8266_at.c ****     year = AscToHex(cRxBuf[33]) * 1000 + AscToHex(cRxBuf[34]) * 100 + AscToHex(cRxBuf[35]) * 10 + A
 1666              		.loc 1 136 12 view .LVU573
 1667 037a EDB2     		uxtb	r5, r5
 143:user/esp8266/esp8266_at.c ****             status = false;
 1668              		.loc 1 143 27 view .LVU574
 1669 037c 3B2D     		cmp	r5, #59
 1670 037e 23D8     		bhi	.L100
 148:user/esp8266/esp8266_at.c ****         time.year = year;
 1671              		.loc 1 148 5 is_stmt 1 view .LVU575
 149:user/esp8266/esp8266_at.c ****         time.month = month;
 1672              		.loc 1 149 9 view .LVU576
 149:user/esp8266/esp8266_at.c ****         time.month = month;
 1673              		.loc 1 149 19 is_stmt 0 view .LVU577
 1674 0380 ADF80E30 		strh	r3, [sp, #14]	@ movhi
 150:user/esp8266/esp8266_at.c ****         time.day = day;
 1675              		.loc 1 150 9 is_stmt 1 view .LVU578
 152:user/esp8266/esp8266_at.c ****         time.hour = hour;
 1676              		.loc 1 152 19 is_stmt 0 view .LVU579
 1677 0384 019B     		ldr	r3, [sp, #4]
 1678              	.LVL145:
 150:user/esp8266/esp8266_at.c ****         time.day = day;
 1679              		.loc 1 150 20 view .LVU580
 1680 0386 8DF80D60 		strb	r6, [sp, #13]
 151:user/esp8266/esp8266_at.c ****         time.week = week;
 1681              		.loc 1 151 9 is_stmt 1 view .LVU581
 152:user/esp8266/esp8266_at.c ****         time.hour = hour;
 1682              		.loc 1 152 9 view .LVU582
 152:user/esp8266/esp8266_at.c ****         time.hour = hour;
 1683              		.loc 1 152 19 is_stmt 0 view .LVU583
 1684 038a 8DF80C30 		strb	r3, [sp, #12]
 153:user/esp8266/esp8266_at.c ****         time.min = minute;
 1685              		.loc 1 153 9 is_stmt 1 view .LVU584
 154:user/esp8266/esp8266_at.c ****         time.sec = second;
 1686              		.loc 1 154 9 view .LVU585
 155:user/esp8266/esp8266_at.c **** 
ARM GAS  C:\Users\WENHUA~1\AppData\Local\Temp\ccJqRDmD.s 			page 44


 1687              		.loc 1 155 9 view .LVU586
 155:user/esp8266/esp8266_at.c **** 
 1688              		.loc 1 155 18 is_stmt 0 view .LVU587
 1689 038e 0023     		movs	r3, #0
 1690 0390 65F30703 		bfi	r3, r5, #0, #8
 1691              	.LVL146:
 155:user/esp8266/esp8266_at.c **** 
 1692              		.loc 1 155 18 view .LVU588
 1693 0394 60F30F23 		bfi	r3, r0, #8, #8
 1694 0398 61F31743 		bfi	r3, r1, #16, #8
 1695 039c 62F31F63 		bfi	r3, r2, #24, #8
 157:user/esp8266/esp8266_at.c ****         g_getTime.powerOffCtr = 0x00;
 1696              		.loc 1 157 9 view .LVU589
 1697 03a0 7C48     		ldr	r0, .L159
 155:user/esp8266/esp8266_at.c **** 
 1698              		.loc 1 155 18 view .LVU590
 1699 03a2 0293     		str	r3, [sp, #8]
 157:user/esp8266/esp8266_at.c ****         g_getTime.powerOffCtr = 0x00;
 1700              		.loc 1 157 9 is_stmt 1 view .LVU591
 1701 03a4 FFF7FEFF 		bl	HAL_UART_DeInit
 1702              	.LVL147:
 158:user/esp8266/esp8266_at.c ****         ESP8266_AT_POWER_PIN_LOW();
 1703              		.loc 1 158 9 view .LVU592
 158:user/esp8266/esp8266_at.c ****         ESP8266_AT_POWER_PIN_LOW();
 1704              		.loc 1 158 31 is_stmt 0 view .LVU593
 1705 03a8 0022     		movs	r2, #0
 159:user/esp8266/esp8266_at.c ****         SetTimeData(&time);
 1706              		.loc 1 159 9 view .LVU594
 1707 03aa 2021     		movs	r1, #32
 1708 03ac 7A48     		ldr	r0, .L159+4
 158:user/esp8266/esp8266_at.c ****         ESP8266_AT_POWER_PIN_LOW();
 1709              		.loc 1 158 31 view .LVU595
 1710 03ae 2270     		strb	r2, [r4]
 159:user/esp8266/esp8266_at.c ****         SetTimeData(&time);
 1711              		.loc 1 159 9 is_stmt 1 view .LVU596
 159:user/esp8266/esp8266_at.c ****         SetTimeData(&time);
 1712              		.loc 1 159 9 view .LVU597
 1713 03b0 FFF7FEFF 		bl	HAL_GPIO_WritePin
 1714              	.LVL148:
 159:user/esp8266/esp8266_at.c ****         SetTimeData(&time);
 1715              		.loc 1 159 9 view .LVU598
 160:user/esp8266/esp8266_at.c ****         SetClock(&time);
 1716              		.loc 1 160 9 view .LVU599
 1717 03b4 02A8     		add	r0, sp, #8
 1718 03b6 FFF7FEFF 		bl	SetTimeData
 1719              	.LVL149:
 161:user/esp8266/esp8266_at.c ****         CalculationLunarCalendar(&time);
 1720              		.loc 1 161 9 view .LVU600
 1721 03ba 02A8     		add	r0, sp, #8
 1722 03bc FFF7FEFF 		bl	SetClock
 1723              	.LVL150:
 162:user/esp8266/esp8266_at.c ****     } else {
 1724              		.loc 1 162 9 view .LVU601
 1725 03c0 02A8     		add	r0, sp, #8
 1726 03c2 FFF7FEFF 		bl	CalculationLunarCalendar
 1727              	.LVL151:
 1728 03c6 01E0     		b	.L101
ARM GAS  C:\Users\WENHUA~1\AppData\Local\Temp\ccJqRDmD.s 			page 45


 1729              	.LVL152:
 1730              	.L100:
 164:user/esp8266/esp8266_at.c ****     }
 1731              		.loc 1 164 9 view .LVU602
 164:user/esp8266/esp8266_at.c ****     }
 1732              		.loc 1 164 30 is_stmt 0 view .LVU603
 1733 03c8 0A23     		movs	r3, #10
 1734              	.LVL153:
 164:user/esp8266/esp8266_at.c ****     }
 1735              		.loc 1 164 30 view .LVU604
 1736 03ca 6370     		strb	r3, [r4, #1]
 1737              	.LVL154:
 1738              	.L101:
 167:user/esp8266/esp8266_at.c **** }
 1739              		.loc 1 167 5 is_stmt 1 view .LVU605
 167:user/esp8266/esp8266_at.c **** }
 1740              		.loc 1 167 5 is_stmt 0 view .LVU606
 1741              	.LBE184:
 1742              	.LBE183:
 281:user/esp8266/esp8266_at.c ****         }
 1743              		.loc 1 281 13 is_stmt 1 view .LVU607
 281:user/esp8266/esp8266_at.c ****         }
 1744              		.loc 1 281 30 is_stmt 0 view .LVU608
 1745 03cc 0123     		movs	r3, #1
 1746 03ce 6371     		strb	r3, [r4, #5]
 1747              		.loc 1 284 1 view .LVU609
 1748 03d0 05B0     		add	sp, sp, #20
 1749              	.LCFI10:
 1750              		.cfi_remember_state
 1751              		.cfi_def_cfa_offset 36
 1752              		@ sp needed
 1753 03d2 BDE8F08F 		pop	{r4, r5, r6, r7, r8, r9, r10, fp, pc}
 1754              	.LVL155:
 1755              	.L97:
 1756              	.LCFI11:
 1757              		.cfi_restore_state
 1758              	.LBB376:
 1759              	.LBB375:
 1760              	.LBB334:
 1761              	.LBB328:
  72:user/esp8266/esp8266_at.c ****         hex -= 0x37;
 1762              		.loc 1 72 12 is_stmt 1 view .LVU610
  72:user/esp8266/esp8266_at.c ****         hex -= 0x37;
 1763              		.loc 1 72 15 is_stmt 0 view .LVU611
 1764 03d6 A0F14103 		sub	r3, r0, #65
 1765 03da 052B     		cmp	r3, #5
 1766 03dc 70D8     		bhi	.L99
  73:user/esp8266/esp8266_at.c ****     } else if ((asc >= 0x61) && (asc <= 0x66)) {
 1767              		.loc 1 73 9 is_stmt 1 view .LVU612
 1768              	.LVL156:
  73:user/esp8266/esp8266_at.c ****     } else if ((asc >= 0x61) && (asc <= 0x66)) {
 1769              		.loc 1 73 13 is_stmt 0 view .LVU613
 1770 03de A0F13703 		sub	r3, r0, #55
 1771              	.LBE328:
 1772              	.LBE334:
 137:user/esp8266/esp8266_at.c **** 
 1773              		.loc 1 137 99 view .LVU614
ARM GAS  C:\Users\WENHUA~1\AppData\Local\Temp\ccJqRDmD.s 			page 46


 1774 03e2 DBB2     		uxtb	r3, r3
 1775              	.LBB335:
 1776              	.LBB329:
 1777 03e4 AEE7     		b	.L98
 1778              	.LVL157:
 1779              	.L88:
 137:user/esp8266/esp8266_at.c **** 
 1780              		.loc 1 137 99 view .LVU615
 1781              	.LBE329:
 1782              	.LBE335:
 1783              	.LBB336:
 1784              	.LBB286:
  72:user/esp8266/esp8266_at.c ****         hex -= 0x37;
 1785              		.loc 1 72 12 is_stmt 1 view .LVU616
  72:user/esp8266/esp8266_at.c ****         hex -= 0x37;
 1786              		.loc 1 72 15 is_stmt 0 view .LVU617
 1787 03e6 A2F14103 		sub	r3, r2, #65
 1788 03ea 052B     		cmp	r3, #5
 1789 03ec 60D9     		bls	.L152
 1790              	.LVL158:
 1791              	.LBB279:
 1792              	.LBI279:
  66:user/esp8266/esp8266_at.c **** {
 1793              		.loc 1 66 16 is_stmt 1 view .LVU618
 1794              	.LBB280:
  74:user/esp8266/esp8266_at.c ****         hex -= 0x57;
 1795              		.loc 1 74 12 view .LVU619
  74:user/esp8266/esp8266_at.c ****         hex -= 0x57;
 1796              		.loc 1 74 15 is_stmt 0 view .LVU620
 1797 03ee A2F16103 		sub	r3, r2, #97
 1798 03f2 052B     		cmp	r3, #5
 1799 03f4 00F29780 		bhi	.L129
  75:user/esp8266/esp8266_at.c ****     } else {
 1800              		.loc 1 75 9 is_stmt 1 view .LVU621
 1801              	.LVL159:
  75:user/esp8266/esp8266_at.c ****     } else {
 1802              		.loc 1 75 13 is_stmt 0 view .LVU622
 1803 03f8 573A     		subs	r2, r2, #87
 1804              	.LVL160:
 1805              	.L146:
  75:user/esp8266/esp8266_at.c ****     } else {
 1806              		.loc 1 75 13 view .LVU623
 1807              	.LBE280:
 1808              	.LBE279:
 1809              	.LBE286:
 1810              	.LBE336:
 137:user/esp8266/esp8266_at.c **** 
 1811              		.loc 1 137 40 view .LVU624
 1812 03fa D2B2     		uxtb	r2, r2
 1813 03fc C2EB4213 		rsb	r3, r2, r2, lsl #5
 1814 0400 02EB8303 		add	r3, r2, r3, lsl #2
 1815 0404 DB00     		lsls	r3, r3, #3
 1816 0406 9BB2     		uxth	r3, r3
 1817              	.LBB337:
 1818              	.LBB287:
 1819              	.LBB283:
 1820              	.LBB281:
ARM GAS  C:\Users\WENHUA~1\AppData\Local\Temp\ccJqRDmD.s 			page 47


 1821 0408 3BE7     		b	.L89
 1822              	.LVL161:
 1823              	.L83:
 137:user/esp8266/esp8266_at.c **** 
 1824              		.loc 1 137 40 view .LVU625
 1825              	.LBE281:
 1826              	.LBE283:
 1827              	.LBE287:
 1828              	.LBE337:
 1829              	.LBB338:
 1830              	.LBB266:
  72:user/esp8266/esp8266_at.c ****         hex -= 0x37;
 1831              		.loc 1 72 12 is_stmt 1 view .LVU626
  72:user/esp8266/esp8266_at.c ****         hex -= 0x37;
 1832              		.loc 1 72 15 is_stmt 0 view .LVU627
 1833 040a A3F14102 		sub	r2, r3, #65
 1834 040e 052A     		cmp	r2, #5
 1835 0410 46D9     		bls	.L153
 1836              	.LVL162:
 1837              	.LBB259:
 1838              	.LBI259:
  66:user/esp8266/esp8266_at.c **** {
 1839              		.loc 1 66 16 is_stmt 1 view .LVU628
 1840              	.LBB260:
  74:user/esp8266/esp8266_at.c ****         hex -= 0x57;
 1841              		.loc 1 74 12 view .LVU629
  74:user/esp8266/esp8266_at.c ****         hex -= 0x57;
 1842              		.loc 1 74 15 is_stmt 0 view .LVU630
 1843 0412 A3F16102 		sub	r2, r3, #97
 1844 0416 052A     		cmp	r2, #5
 1845 0418 00F28280 		bhi	.L127
  75:user/esp8266/esp8266_at.c ****     } else {
 1846              		.loc 1 75 9 is_stmt 1 view .LVU631
 1847              	.LVL163:
  75:user/esp8266/esp8266_at.c ****     } else {
 1848              		.loc 1 75 13 is_stmt 0 view .LVU632
 1849 041c 573B     		subs	r3, r3, #87
 1850              	.LVL164:
  75:user/esp8266/esp8266_at.c ****     } else {
 1851              		.loc 1 75 13 view .LVU633
 1852              	.LBE260:
 1853              	.LBE259:
 1854              	.LBE266:
 1855              	.LBE338:
 136:user/esp8266/esp8266_at.c ****     year = AscToHex(cRxBuf[33]) * 1000 + AscToHex(cRxBuf[34]) * 100 + AscToHex(cRxBuf[35]) * 10 + A
 1856              		.loc 1 136 40 view .LVU634
 1857 041e 03EB8303 		add	r3, r3, r3, lsl #2
 1858 0422 4FEA430E 		lsl	lr, r3, #1
 1859 0426 5FFA8EFE 		uxtb	lr, lr
 1860              	.LBB339:
 1861              	.LBB267:
 1862              	.LBB263:
 1863              	.LBB261:
 1864 042a 0BE7     		b	.L84
 1865              	.LVL165:
 1866              	.L78:
 136:user/esp8266/esp8266_at.c ****     year = AscToHex(cRxBuf[33]) * 1000 + AscToHex(cRxBuf[34]) * 100 + AscToHex(cRxBuf[35]) * 10 + A
ARM GAS  C:\Users\WENHUA~1\AppData\Local\Temp\ccJqRDmD.s 			page 48


 1867              		.loc 1 136 40 view .LVU635
 1868              	.LBE261:
 1869              	.LBE263:
 1870              	.LBE267:
 1871              	.LBE339:
 1872              	.LBB340:
 1873              	.LBB246:
  72:user/esp8266/esp8266_at.c ****         hex -= 0x37;
 1874              		.loc 1 72 12 is_stmt 1 view .LVU636
  72:user/esp8266/esp8266_at.c ****         hex -= 0x37;
 1875              		.loc 1 72 15 is_stmt 0 view .LVU637
 1876 042c A3F14102 		sub	r2, r3, #65
 1877 0430 052A     		cmp	r2, #5
 1878 0432 3FD9     		bls	.L154
 1879              	.LVL166:
 1880              	.LBB239:
 1881              	.LBI239:
  66:user/esp8266/esp8266_at.c **** {
 1882              		.loc 1 66 16 is_stmt 1 view .LVU638
 1883              	.LBB240:
  74:user/esp8266/esp8266_at.c ****         hex -= 0x57;
 1884              		.loc 1 74 12 view .LVU639
  74:user/esp8266/esp8266_at.c ****         hex -= 0x57;
 1885              		.loc 1 74 15 is_stmt 0 view .LVU640
 1886 0434 A3F16102 		sub	r2, r3, #97
 1887 0438 052A     		cmp	r2, #5
 1888 043a 7FD8     		bhi	.L125
  75:user/esp8266/esp8266_at.c ****     } else {
 1889              		.loc 1 75 9 is_stmt 1 view .LVU641
 1890              	.LVL167:
  75:user/esp8266/esp8266_at.c ****     } else {
 1891              		.loc 1 75 13 is_stmt 0 view .LVU642
 1892 043c 573B     		subs	r3, r3, #87
 1893              	.LVL168:
  75:user/esp8266/esp8266_at.c ****     } else {
 1894              		.loc 1 75 13 view .LVU643
 1895              	.LBE240:
 1896              	.LBE239:
 1897              	.LBE246:
 1898              	.LBE340:
 135:user/esp8266/esp8266_at.c ****     second = AscToHex(cRxBuf[30]) * 10 + AscToHex(cRxBuf[31]);
 1899              		.loc 1 135 40 view .LVU644
 1900 043e 03EB8303 		add	r3, r3, r3, lsl #2
 1901              	.LVL169:
 135:user/esp8266/esp8266_at.c ****     second = AscToHex(cRxBuf[30]) * 10 + AscToHex(cRxBuf[31]);
 1902              		.loc 1 135 40 view .LVU645
 1903 0442 5D00     		lsls	r5, r3, #1
 1904 0444 EDB2     		uxtb	r5, r5
 1905              	.LBB341:
 1906              	.LBB247:
 1907              	.LBB243:
 1908              	.LBB241:
 1909 0446 DEE6     		b	.L79
 1910              	.LVL170:
 1911              	.L73:
 135:user/esp8266/esp8266_at.c ****     second = AscToHex(cRxBuf[30]) * 10 + AscToHex(cRxBuf[31]);
 1912              		.loc 1 135 40 view .LVU646
ARM GAS  C:\Users\WENHUA~1\AppData\Local\Temp\ccJqRDmD.s 			page 49


 1913              	.LBE241:
 1914              	.LBE243:
 1915              	.LBE247:
 1916              	.LBE341:
 1917              	.LBB342:
 1918              	.LBB226:
  72:user/esp8266/esp8266_at.c ****         hex -= 0x37;
 1919              		.loc 1 72 12 is_stmt 1 view .LVU647
  72:user/esp8266/esp8266_at.c ****         hex -= 0x37;
 1920              		.loc 1 72 15 is_stmt 0 view .LVU648
 1921 0448 A3F14102 		sub	r2, r3, #65
 1922 044c 052A     		cmp	r2, #5
 1923 044e 1FD9     		bls	.L155
 1924              	.LVL171:
 1925              	.LBB219:
 1926              	.LBI219:
  66:user/esp8266/esp8266_at.c **** {
 1927              		.loc 1 66 16 is_stmt 1 view .LVU649
 1928              	.LBB220:
  74:user/esp8266/esp8266_at.c ****         hex -= 0x57;
 1929              		.loc 1 74 12 view .LVU650
  74:user/esp8266/esp8266_at.c ****         hex -= 0x57;
 1930              		.loc 1 74 15 is_stmt 0 view .LVU651
 1931 0450 A3F16102 		sub	r2, r3, #97
 1932 0454 052A     		cmp	r2, #5
 1933 0456 6BD8     		bhi	.L123
  75:user/esp8266/esp8266_at.c ****     } else {
 1934              		.loc 1 75 9 is_stmt 1 view .LVU652
 1935              	.LVL172:
  75:user/esp8266/esp8266_at.c ****     } else {
 1936              		.loc 1 75 13 is_stmt 0 view .LVU653
 1937 0458 573B     		subs	r3, r3, #87
 1938              	.LVL173:
  75:user/esp8266/esp8266_at.c ****     } else {
 1939              		.loc 1 75 13 view .LVU654
 1940              	.LBE220:
 1941              	.LBE219:
 1942              	.LBE226:
 1943              	.LBE342:
 134:user/esp8266/esp8266_at.c ****     minute = AscToHex(cRxBuf[27]) * 10 + AscToHex(cRxBuf[28]);
 1944              		.loc 1 134 38 view .LVU655
 1945 045a 03EB8303 		add	r3, r3, r3, lsl #2
 1946 045e 4FEA430C 		lsl	ip, r3, #1
 1947 0462 5FFA8CFC 		uxtb	ip, ip
 1948              	.LBB343:
 1949              	.LBB227:
 1950              	.LBB223:
 1951              	.LBB221:
 1952 0466 B3E6     		b	.L74
 1953              	.LVL174:
 1954              	.L68:
 134:user/esp8266/esp8266_at.c ****     minute = AscToHex(cRxBuf[27]) * 10 + AscToHex(cRxBuf[28]);
 1955              		.loc 1 134 38 view .LVU656
 1956              	.LBE221:
 1957              	.LBE223:
 1958              	.LBE227:
 1959              	.LBE343:
ARM GAS  C:\Users\WENHUA~1\AppData\Local\Temp\ccJqRDmD.s 			page 50


 1960              	.LBB344:
 1961              	.LBB207:
  72:user/esp8266/esp8266_at.c ****         hex -= 0x37;
 1962              		.loc 1 72 12 is_stmt 1 view .LVU657
  72:user/esp8266/esp8266_at.c ****         hex -= 0x37;
 1963              		.loc 1 72 15 is_stmt 0 view .LVU658
 1964 0468 A3F14102 		sub	r2, r3, #65
 1965 046c 052A     		cmp	r2, #5
 1966 046e 09D9     		bls	.L156
 1967              	.LVL175:
 1968              	.LBB200:
 1969              	.LBI200:
  66:user/esp8266/esp8266_at.c **** {
 1970              		.loc 1 66 16 is_stmt 1 view .LVU659
 1971              	.LBB201:
  74:user/esp8266/esp8266_at.c ****         hex -= 0x57;
 1972              		.loc 1 74 12 view .LVU660
  74:user/esp8266/esp8266_at.c ****         hex -= 0x57;
 1973              		.loc 1 74 15 is_stmt 0 view .LVU661
 1974 0470 A3F16102 		sub	r2, r3, #97
 1975 0474 052A     		cmp	r2, #5
 1976 0476 59D8     		bhi	.L121
  75:user/esp8266/esp8266_at.c ****     } else {
 1977              		.loc 1 75 9 is_stmt 1 view .LVU662
 1978              	.LVL176:
  75:user/esp8266/esp8266_at.c ****     } else {
 1979              		.loc 1 75 13 is_stmt 0 view .LVU663
 1980 0478 573B     		subs	r3, r3, #87
 1981              	.LVL177:
  75:user/esp8266/esp8266_at.c ****     } else {
 1982              		.loc 1 75 13 view .LVU664
 1983              	.LBE201:
 1984              	.LBE200:
 1985              	.LBE207:
 1986              	.LBE344:
 133:user/esp8266/esp8266_at.c ****     hour = AscToHex(cRxBuf[24]) * 10 + AscToHex(cRxBuf[25]);
 1987              		.loc 1 133 37 view .LVU665
 1988 047a 03EB8303 		add	r3, r3, r3, lsl #2
 1989              	.LVL178:
 133:user/esp8266/esp8266_at.c ****     hour = AscToHex(cRxBuf[24]) * 10 + AscToHex(cRxBuf[25]);
 1990              		.loc 1 133 37 view .LVU666
 1991 047e 5900     		lsls	r1, r3, #1
 1992 0480 C9B2     		uxtb	r1, r1
 1993              	.LBB345:
 1994              	.LBB208:
 1995              	.LBB204:
 1996              	.LBB202:
 1997 0482 89E6     		b	.L69
 1998              	.LVL179:
 1999              	.L156:
 133:user/esp8266/esp8266_at.c ****     hour = AscToHex(cRxBuf[24]) * 10 + AscToHex(cRxBuf[25]);
 2000              		.loc 1 133 37 view .LVU667
 2001              	.LBE202:
 2002              	.LBE204:
  73:user/esp8266/esp8266_at.c ****     } else if ((asc >= 0x61) && (asc <= 0x66)) {
 2003              		.loc 1 73 9 is_stmt 1 view .LVU668
  73:user/esp8266/esp8266_at.c ****     } else if ((asc >= 0x61) && (asc <= 0x66)) {
ARM GAS  C:\Users\WENHUA~1\AppData\Local\Temp\ccJqRDmD.s 			page 51


 2004              		.loc 1 73 13 is_stmt 0 view .LVU669
 2005 0484 373B     		subs	r3, r3, #55
 2006              	.LVL180:
  73:user/esp8266/esp8266_at.c ****     } else if ((asc >= 0x61) && (asc <= 0x66)) {
 2007              		.loc 1 73 13 view .LVU670
 2008              	.LBE208:
 2009              	.LBE345:
 133:user/esp8266/esp8266_at.c ****     hour = AscToHex(cRxBuf[24]) * 10 + AscToHex(cRxBuf[25]);
 2010              		.loc 1 133 37 view .LVU671
 2011 0486 03EB8303 		add	r3, r3, r3, lsl #2
 2012 048a 5900     		lsls	r1, r3, #1
 2013 048c C9B2     		uxtb	r1, r1
 2014              	.LBB346:
 2015              	.LBB209:
 2016 048e 83E6     		b	.L69
 2017              	.LVL181:
 2018              	.L155:
 133:user/esp8266/esp8266_at.c ****     hour = AscToHex(cRxBuf[24]) * 10 + AscToHex(cRxBuf[25]);
 2019              		.loc 1 133 37 view .LVU672
 2020              	.LBE209:
 2021              	.LBE346:
 2022              	.LBB347:
 2023              	.LBB228:
  73:user/esp8266/esp8266_at.c ****     } else if ((asc >= 0x61) && (asc <= 0x66)) {
 2024              		.loc 1 73 9 is_stmt 1 view .LVU673
  73:user/esp8266/esp8266_at.c ****     } else if ((asc >= 0x61) && (asc <= 0x66)) {
 2025              		.loc 1 73 13 is_stmt 0 view .LVU674
 2026 0490 373B     		subs	r3, r3, #55
 2027              	.LVL182:
  73:user/esp8266/esp8266_at.c ****     } else if ((asc >= 0x61) && (asc <= 0x66)) {
 2028              		.loc 1 73 13 view .LVU675
 2029              	.LBE228:
 2030              	.LBE347:
 134:user/esp8266/esp8266_at.c ****     minute = AscToHex(cRxBuf[27]) * 10 + AscToHex(cRxBuf[28]);
 2031              		.loc 1 134 38 view .LVU676
 2032 0492 03EB8303 		add	r3, r3, r3, lsl #2
 2033 0496 4FEA430C 		lsl	ip, r3, #1
 2034 049a 5FFA8CFC 		uxtb	ip, ip
 2035              	.LBB348:
 2036              	.LBB229:
 2037 049e 97E6     		b	.L74
 2038              	.LVL183:
 2039              	.L153:
 134:user/esp8266/esp8266_at.c ****     minute = AscToHex(cRxBuf[27]) * 10 + AscToHex(cRxBuf[28]);
 2040              		.loc 1 134 38 view .LVU677
 2041              	.LBE229:
 2042              	.LBE348:
 2043              	.LBB349:
 2044              	.LBB268:
  73:user/esp8266/esp8266_at.c ****     } else if ((asc >= 0x61) && (asc <= 0x66)) {
 2045              		.loc 1 73 9 is_stmt 1 view .LVU678
  73:user/esp8266/esp8266_at.c ****     } else if ((asc >= 0x61) && (asc <= 0x66)) {
 2046              		.loc 1 73 13 is_stmt 0 view .LVU679
 2047 04a0 373B     		subs	r3, r3, #55
 2048              	.LVL184:
  73:user/esp8266/esp8266_at.c ****     } else if ((asc >= 0x61) && (asc <= 0x66)) {
 2049              		.loc 1 73 13 view .LVU680
ARM GAS  C:\Users\WENHUA~1\AppData\Local\Temp\ccJqRDmD.s 			page 52


 2050              	.LBE268:
 2051              	.LBE349:
 136:user/esp8266/esp8266_at.c ****     year = AscToHex(cRxBuf[33]) * 1000 + AscToHex(cRxBuf[34]) * 100 + AscToHex(cRxBuf[35]) * 10 + A
 2052              		.loc 1 136 40 view .LVU681
 2053 04a2 03EB8303 		add	r3, r3, r3, lsl #2
 2054 04a6 4FEA430E 		lsl	lr, r3, #1
 2055 04aa 5FFA8EFE 		uxtb	lr, lr
 2056              	.LBB350:
 2057              	.LBB269:
 2058 04ae C9E6     		b	.L84
 2059              	.LVL185:
 2060              	.L152:
 136:user/esp8266/esp8266_at.c ****     year = AscToHex(cRxBuf[33]) * 1000 + AscToHex(cRxBuf[34]) * 100 + AscToHex(cRxBuf[35]) * 10 + A
 2061              		.loc 1 136 40 view .LVU682
 2062              	.LBE269:
 2063              	.LBE350:
 2064              	.LBB351:
 2065              	.LBB288:
  73:user/esp8266/esp8266_at.c ****     } else if ((asc >= 0x61) && (asc <= 0x66)) {
 2066              		.loc 1 73 9 is_stmt 1 view .LVU683
  73:user/esp8266/esp8266_at.c ****     } else if ((asc >= 0x61) && (asc <= 0x66)) {
 2067              		.loc 1 73 13 is_stmt 0 view .LVU684
 2068 04b0 373A     		subs	r2, r2, #55
 2069              	.LVL186:
  73:user/esp8266/esp8266_at.c ****     } else if ((asc >= 0x61) && (asc <= 0x66)) {
 2070              		.loc 1 73 13 view .LVU685
 2071 04b2 A2E7     		b	.L146
 2072              	.LVL187:
 2073              	.L154:
  73:user/esp8266/esp8266_at.c ****     } else if ((asc >= 0x61) && (asc <= 0x66)) {
 2074              		.loc 1 73 13 view .LVU686
 2075              	.LBE288:
 2076              	.LBE351:
 2077              	.LBB352:
 2078              	.LBB248:
  73:user/esp8266/esp8266_at.c ****     } else if ((asc >= 0x61) && (asc <= 0x66)) {
 2079              		.loc 1 73 9 is_stmt 1 view .LVU687
  73:user/esp8266/esp8266_at.c ****     } else if ((asc >= 0x61) && (asc <= 0x66)) {
 2080              		.loc 1 73 13 is_stmt 0 view .LVU688
 2081 04b4 373B     		subs	r3, r3, #55
 2082              	.LVL188:
  73:user/esp8266/esp8266_at.c ****     } else if ((asc >= 0x61) && (asc <= 0x66)) {
 2083              		.loc 1 73 13 view .LVU689
 2084              	.LBE248:
 2085              	.LBE352:
 135:user/esp8266/esp8266_at.c ****     second = AscToHex(cRxBuf[30]) * 10 + AscToHex(cRxBuf[31]);
 2086              		.loc 1 135 40 view .LVU690
 2087 04b6 03EB8303 		add	r3, r3, r3, lsl #2
 2088 04ba 5D00     		lsls	r5, r3, #1
 2089 04bc EDB2     		uxtb	r5, r5
 2090              	.LBB353:
 2091              	.LBB249:
 2092 04be A2E6     		b	.L79
 2093              	.LVL189:
 2094              	.L99:
 135:user/esp8266/esp8266_at.c ****     second = AscToHex(cRxBuf[30]) * 10 + AscToHex(cRxBuf[31]);
 2095              		.loc 1 135 40 view .LVU691
ARM GAS  C:\Users\WENHUA~1\AppData\Local\Temp\ccJqRDmD.s 			page 53


 2096              	.LBE249:
 2097              	.LBE353:
 2098              	.LBB354:
 2099              	.LBB330:
 2100              	.LBB323:
 2101              	.LBI323:
  66:user/esp8266/esp8266_at.c **** {
 2102              		.loc 1 66 16 is_stmt 1 view .LVU692
 2103              	.LBB324:
  74:user/esp8266/esp8266_at.c ****         hex -= 0x57;
 2104              		.loc 1 74 12 view .LVU693
  75:user/esp8266/esp8266_at.c ****     } else {
 2105              		.loc 1 75 9 view .LVU694
  74:user/esp8266/esp8266_at.c ****         hex -= 0x57;
 2106              		.loc 1 74 15 is_stmt 0 view .LVU695
 2107 04c0 A0F16103 		sub	r3, r0, #97
 2108 04c4 052B     		cmp	r3, #5
  75:user/esp8266/esp8266_at.c ****     } else {
 2109              		.loc 1 75 13 view .LVU696
 2110 04c6 96BF     		itet	ls
 2111 04c8 A0F15703 		subls	r3, r0, #87
 2112 04cc FF23     		movhi	r3, #255
 2113              	.LBE324:
 2114              	.LBE323:
 2115              	.LBE330:
 2116              	.LBE354:
 137:user/esp8266/esp8266_at.c **** 
 2117              		.loc 1 137 99 view .LVU697
 2118 04ce DBB2     		uxtbls	r3, r3
 2119 04d0 38E7     		b	.L98
 2120              	.LVL190:
 2121              	.L82:
 2122              	.LBB355:
 2123              	.LBB256:
 2124              	.LBB254:
 2125              	.LBI254:
  66:user/esp8266/esp8266_at.c **** {
 2126              		.loc 1 66 16 is_stmt 1 view .LVU698
 2127              	.LBB255:
  74:user/esp8266/esp8266_at.c ****         hex -= 0x57;
 2128              		.loc 1 74 12 view .LVU699
  74:user/esp8266/esp8266_at.c ****         hex -= 0x57;
 2129              		.loc 1 74 15 is_stmt 0 view .LVU700
 2130 04d2 A3F16102 		sub	r2, r3, #97
 2131 04d6 052A     		cmp	r2, #5
  75:user/esp8266/esp8266_at.c ****     } else {
 2132              		.loc 1 75 9 is_stmt 1 view .LVU701
  75:user/esp8266/esp8266_at.c ****     } else {
 2133              		.loc 1 75 13 is_stmt 0 view .LVU702
 2134 04d8 96BF     		itet	ls
 2135 04da 573B     		subls	r3, r3, #87
 2136              	.LVL191:
  77:user/esp8266/esp8266_at.c ****     }
 2137              		.loc 1 77 13 view .LVU703
 2138 04dc 4FF0FF09 		movhi	r9, #255
  75:user/esp8266/esp8266_at.c ****     } else {
 2139              		.loc 1 75 13 view .LVU704
ARM GAS  C:\Users\WENHUA~1\AppData\Local\Temp\ccJqRDmD.s 			page 54


 2140 04e0 5FFA83F9 		uxtbls	r9, r3
 2141 04e4 9FE6     		b	.L81
 2142              	.LVL192:
 2143              	.L77:
  75:user/esp8266/esp8266_at.c ****     } else {
 2144              		.loc 1 75 13 view .LVU705
 2145              	.LBE255:
 2146              	.LBE254:
 2147              	.LBE256:
 2148              	.LBE355:
 2149              	.LBB356:
 2150              	.LBB236:
 2151              	.LBB234:
 2152              	.LBI234:
  66:user/esp8266/esp8266_at.c **** {
 2153              		.loc 1 66 16 is_stmt 1 view .LVU706
 2154              	.LBB235:
  74:user/esp8266/esp8266_at.c ****         hex -= 0x57;
 2155              		.loc 1 74 12 view .LVU707
  74:user/esp8266/esp8266_at.c ****         hex -= 0x57;
 2156              		.loc 1 74 15 is_stmt 0 view .LVU708
 2157 04e6 A3F16102 		sub	r2, r3, #97
 2158 04ea 052A     		cmp	r2, #5
  75:user/esp8266/esp8266_at.c ****     } else {
 2159              		.loc 1 75 9 is_stmt 1 view .LVU709
  75:user/esp8266/esp8266_at.c ****     } else {
 2160              		.loc 1 75 13 is_stmt 0 view .LVU710
 2161 04ec 96BF     		itet	ls
 2162 04ee 573B     		subls	r3, r3, #87
 2163              	.LVL193:
  77:user/esp8266/esp8266_at.c ****     }
 2164              		.loc 1 77 13 view .LVU711
 2165 04f0 4FF0FF08 		movhi	r8, #255
  75:user/esp8266/esp8266_at.c ****     } else {
 2166              		.loc 1 75 13 view .LVU712
 2167 04f4 5FFA83F8 		uxtbls	r8, r3
 2168 04f8 7AE6     		b	.L76
 2169              	.LVL194:
 2170              	.L72:
  75:user/esp8266/esp8266_at.c ****     } else {
 2171              		.loc 1 75 13 view .LVU713
 2172              	.LBE235:
 2173              	.LBE234:
 2174              	.LBE236:
 2175              	.LBE356:
 2176              	.LBB357:
 2177              	.LBB216:
 2178              	.LBB214:
 2179              	.LBI214:
  66:user/esp8266/esp8266_at.c **** {
 2180              		.loc 1 66 16 is_stmt 1 view .LVU714
 2181              	.LBB215:
  74:user/esp8266/esp8266_at.c ****         hex -= 0x57;
 2182              		.loc 1 74 12 view .LVU715
  74:user/esp8266/esp8266_at.c ****         hex -= 0x57;
 2183              		.loc 1 74 15 is_stmt 0 view .LVU716
 2184 04fa A3F16102 		sub	r2, r3, #97
ARM GAS  C:\Users\WENHUA~1\AppData\Local\Temp\ccJqRDmD.s 			page 55


 2185 04fe 052A     		cmp	r2, #5
  75:user/esp8266/esp8266_at.c ****     } else {
 2186              		.loc 1 75 9 is_stmt 1 view .LVU717
  75:user/esp8266/esp8266_at.c ****     } else {
 2187              		.loc 1 75 13 is_stmt 0 view .LVU718
 2188 0500 96BF     		itet	ls
 2189 0502 573B     		subls	r3, r3, #87
 2190              	.LVL195:
  77:user/esp8266/esp8266_at.c ****     }
 2191              		.loc 1 77 13 view .LVU719
 2192 0504 FF27     		movhi	r7, #255
  75:user/esp8266/esp8266_at.c ****     } else {
 2193              		.loc 1 75 13 view .LVU720
 2194 0506 DFB2     		uxtbls	r7, r3
 2195 0508 53E6     		b	.L71
 2196              	.LVL196:
 2197              	.L87:
  75:user/esp8266/esp8266_at.c ****     } else {
 2198              		.loc 1 75 13 view .LVU721
 2199              	.LBE215:
 2200              	.LBE214:
 2201              	.LBE216:
 2202              	.LBE357:
 2203              	.LBB358:
 2204              	.LBB276:
 2205              	.LBB274:
 2206              	.LBI274:
  66:user/esp8266/esp8266_at.c **** {
 2207              		.loc 1 66 16 is_stmt 1 view .LVU722
 2208              	.LBB275:
  74:user/esp8266/esp8266_at.c ****         hex -= 0x57;
 2209              		.loc 1 74 12 view .LVU723
  74:user/esp8266/esp8266_at.c ****         hex -= 0x57;
 2210              		.loc 1 74 15 is_stmt 0 view .LVU724
 2211 050a A3F16102 		sub	r2, r3, #97
 2212 050e 052A     		cmp	r2, #5
  75:user/esp8266/esp8266_at.c ****     } else {
 2213              		.loc 1 75 9 is_stmt 1 view .LVU725
  75:user/esp8266/esp8266_at.c ****     } else {
 2214              		.loc 1 75 13 is_stmt 0 view .LVU726
 2215 0510 96BF     		itet	ls
 2216 0512 A3F1570A 		subls	r10, r3, #87
  77:user/esp8266/esp8266_at.c ****     }
 2217              		.loc 1 77 13 view .LVU727
 2218 0516 4FF0FF0A 		movhi	r10, #255
  75:user/esp8266/esp8266_at.c ****     } else {
 2219              		.loc 1 75 13 view .LVU728
 2220 051a 5FFA8AFA 		uxtbls	r10, r10
 2221 051e A2E6     		b	.L86
 2222              	.LVL197:
 2223              	.L127:
  75:user/esp8266/esp8266_at.c ****     } else {
 2224              		.loc 1 75 13 view .LVU729
 2225              	.LBE275:
 2226              	.LBE274:
 2227              	.LBE276:
 2228              	.LBE358:
ARM GAS  C:\Users\WENHUA~1\AppData\Local\Temp\ccJqRDmD.s 			page 56


 2229              	.LBB359:
 2230              	.LBB270:
 2231              	.LBB264:
 2232              	.LBB262:
 2233 0520 4FF0F60E 		mov	lr, #246
 2234 0524 8EE6     		b	.L84
 2235              	.LVL198:
 2236              	.L129:
  75:user/esp8266/esp8266_at.c ****     } else {
 2237              		.loc 1 75 13 view .LVU730
 2238              	.LBE262:
 2239              	.LBE264:
 2240              	.LBE270:
 2241              	.LBE359:
 2242              	.LBB360:
 2243              	.LBB289:
 2244              	.LBB284:
 2245              	.LBB282:
 2246 0526 4EF21843 		movw	r3, #58392
 2247 052a AAE6     		b	.L89
 2248              	.LVL199:
 2249              	.L121:
  75:user/esp8266/esp8266_at.c ****     } else {
 2250              		.loc 1 75 13 view .LVU731
 2251              	.LBE282:
 2252              	.LBE284:
 2253              	.LBE289:
 2254              	.LBE360:
 2255              	.LBB361:
 2256              	.LBB210:
 2257              	.LBB205:
 2258              	.LBB203:
 2259 052c F621     		movs	r1, #246
 2260 052e 33E6     		b	.L69
 2261              	.LVL200:
 2262              	.L123:
  75:user/esp8266/esp8266_at.c ****     } else {
 2263              		.loc 1 75 13 view .LVU732
 2264              	.LBE203:
 2265              	.LBE205:
 2266              	.LBE210:
 2267              	.LBE361:
 2268              	.LBB362:
 2269              	.LBB230:
 2270              	.LBB224:
 2271              	.LBB222:
 2272 0530 4FF0F60C 		mov	ip, #246
 2273 0534 4CE6     		b	.L74
 2274              	.LVL201:
 2275              	.L131:
  75:user/esp8266/esp8266_at.c ****     } else {
 2276              		.loc 1 75 13 view .LVU733
 2277              	.LBE222:
 2278              	.LBE224:
 2279              	.LBE230:
 2280              	.LBE362:
 2281              	.LBB363:
ARM GAS  C:\Users\WENHUA~1\AppData\Local\Temp\ccJqRDmD.s 			page 57


 2282              	.LBB316:
 2283              	.LBB311:
 2284              	.LBB309:
 2285 0536 40F6F612 		movw	r2, #2550
 2286 053a F9E6     		b	.L95
 2287              	.LVL202:
 2288              	.L125:
  75:user/esp8266/esp8266_at.c ****     } else {
 2289              		.loc 1 75 13 view .LVU734
 2290              	.LBE309:
 2291              	.LBE311:
 2292              	.LBE316:
 2293              	.LBE363:
 2294              	.LBB364:
 2295              	.LBB250:
 2296              	.LBB244:
 2297              	.LBB242:
 2298 053c F625     		movs	r5, #246
 2299 053e 62E6     		b	.L79
 2300              	.LVL203:
 2301              	.L130:
  75:user/esp8266/esp8266_at.c ****     } else {
 2302              		.loc 1 75 13 view .LVU735
 2303              	.LBE242:
 2304              	.LBE244:
 2305              	.LBE250:
 2306              	.LBE364:
 2307              	.LBB365:
 2308              	.LBB301:
 2309              	.LBB298:
 2310              	.LBB296:
 2311 0540 46F29C32 		movw	r2, #25500
 2312 0544 C0E6     		b	.L92
 2313              	.LVL204:
 2314              	.L109:
  75:user/esp8266/esp8266_at.c ****     } else {
 2315              		.loc 1 75 13 view .LVU736
 2316              	.LBE296:
 2317              	.LBE298:
 2318              	.LBE301:
 2319              	.LBE365:
 2320              	.LBB366:
 2321              	.LBB193:
 106:user/esp8266/esp8266_at.c ****         if (monthTable[i] == monthString) {
 2322              		.loc 1 106 12 view .LVU737
 2323 0546 1E46     		mov	r6, r3
 2324 0548 1BE6     		b	.L67
 2325              	.LVL205:
 2326              	.L102:
 106:user/esp8266/esp8266_at.c ****         if (monthTable[i] == monthString) {
 2327              		.loc 1 106 12 view .LVU738
 2328              	.LBE193:
 2329              	.LBE366:
 2330              	.LBB367:
 2331              	.LBB187:
  90:user/esp8266/esp8266_at.c ****         if (weekTable[i] == weekString) {
 2332              		.loc 1 90 12 view .LVU739
ARM GAS  C:\Users\WENHUA~1\AppData\Local\Temp\ccJqRDmD.s 			page 58


 2333 054a 0197     		str	r7, [sp, #4]
 2334 054c CDE5     		b	.L66
 2335              	.LVL206:
 2336              	.L103:
  90:user/esp8266/esp8266_at.c ****         if (weekTable[i] == weekString) {
 2337              		.loc 1 90 32 view .LVU740
 2338 054e 0196     		str	r6, [sp, #4]
 2339 0550 CBE5     		b	.L66
 2340              	.LVL207:
 2341              	.L104:
  90:user/esp8266/esp8266_at.c ****         if (weekTable[i] == weekString) {
 2342              		.loc 1 90 32 view .LVU741
 2343 0552 0223     		movs	r3, #2
 2344              	.LVL208:
  90:user/esp8266/esp8266_at.c ****         if (weekTable[i] == weekString) {
 2345              		.loc 1 90 32 view .LVU742
 2346 0554 0193     		str	r3, [sp, #4]
 2347 0556 C8E5     		b	.L66
 2348              	.LVL209:
 2349              	.L110:
  90:user/esp8266/esp8266_at.c ****         if (weekTable[i] == weekString) {
 2350              		.loc 1 90 32 view .LVU743
 2351              	.LBE187:
 2352              	.LBE367:
 2353              	.LBB368:
 2354              	.LBB194:
 106:user/esp8266/esp8266_at.c ****         if (monthTable[i] == monthString) {
 2355              		.loc 1 106 32 view .LVU744
 2356 0558 0226     		movs	r6, #2
 2357 055a 12E6     		b	.L67
 2358              	.LVL210:
 2359              	.L105:
 106:user/esp8266/esp8266_at.c ****         if (monthTable[i] == monthString) {
 2360              		.loc 1 106 32 view .LVU745
 2361              	.LBE194:
 2362              	.LBE368:
 2363              	.LBB369:
 2364              	.LBB188:
  90:user/esp8266/esp8266_at.c ****         if (weekTable[i] == weekString) {
 2365              		.loc 1 90 32 view .LVU746
 2366 055c 0323     		movs	r3, #3
 2367              	.LVL211:
  90:user/esp8266/esp8266_at.c ****         if (weekTable[i] == weekString) {
 2368              		.loc 1 90 32 view .LVU747
 2369 055e 0193     		str	r3, [sp, #4]
 2370 0560 C3E5     		b	.L66
 2371              	.LVL212:
 2372              	.L111:
  90:user/esp8266/esp8266_at.c ****         if (weekTable[i] == weekString) {
 2373              		.loc 1 90 32 view .LVU748
 2374              	.LBE188:
 2375              	.LBE369:
 2376              	.LBB370:
 2377              	.LBB195:
 106:user/esp8266/esp8266_at.c ****         if (monthTable[i] == monthString) {
 2378              		.loc 1 106 32 view .LVU749
 2379 0562 0326     		movs	r6, #3
ARM GAS  C:\Users\WENHUA~1\AppData\Local\Temp\ccJqRDmD.s 			page 59


 2380 0564 0DE6     		b	.L67
 2381              	.LVL213:
 2382              	.L106:
 106:user/esp8266/esp8266_at.c ****         if (monthTable[i] == monthString) {
 2383              		.loc 1 106 32 view .LVU750
 2384              	.LBE195:
 2385              	.LBE370:
 2386              	.LBB371:
 2387              	.LBB189:
  90:user/esp8266/esp8266_at.c ****         if (weekTable[i] == weekString) {
 2388              		.loc 1 90 32 view .LVU751
 2389 0566 0423     		movs	r3, #4
 2390              	.LVL214:
  90:user/esp8266/esp8266_at.c ****         if (weekTable[i] == weekString) {
 2391              		.loc 1 90 32 view .LVU752
 2392 0568 0193     		str	r3, [sp, #4]
 2393 056a BEE5     		b	.L66
 2394              	.LVL215:
 2395              	.L112:
  90:user/esp8266/esp8266_at.c ****         if (weekTable[i] == weekString) {
 2396              		.loc 1 90 32 view .LVU753
 2397              	.LBE189:
 2398              	.LBE371:
 2399              	.LBB372:
 2400              	.LBB196:
 106:user/esp8266/esp8266_at.c ****         if (monthTable[i] == monthString) {
 2401              		.loc 1 106 32 view .LVU754
 2402 056c 0426     		movs	r6, #4
 2403 056e 08E6     		b	.L67
 2404              	.LVL216:
 2405              	.L107:
 106:user/esp8266/esp8266_at.c ****         if (monthTable[i] == monthString) {
 2406              		.loc 1 106 32 view .LVU755
 2407              	.LBE196:
 2408              	.LBE372:
 2409              	.LBB373:
 2410              	.LBB190:
  90:user/esp8266/esp8266_at.c ****         if (weekTable[i] == weekString) {
 2411              		.loc 1 90 32 view .LVU756
 2412 0570 0523     		movs	r3, #5
 2413              	.LVL217:
  90:user/esp8266/esp8266_at.c ****         if (weekTable[i] == weekString) {
 2414              		.loc 1 90 32 view .LVU757
 2415 0572 0193     		str	r3, [sp, #4]
 2416 0574 B9E5     		b	.L66
 2417              	.LVL218:
 2418              	.L113:
  90:user/esp8266/esp8266_at.c ****         if (weekTable[i] == weekString) {
 2419              		.loc 1 90 32 view .LVU758
 2420              	.LBE190:
 2421              	.LBE373:
 2422              	.LBB374:
 2423              	.LBB197:
 106:user/esp8266/esp8266_at.c ****         if (monthTable[i] == monthString) {
 2424              		.loc 1 106 32 view .LVU759
 2425 0576 0526     		movs	r6, #5
 2426 0578 03E6     		b	.L67
ARM GAS  C:\Users\WENHUA~1\AppData\Local\Temp\ccJqRDmD.s 			page 60


 2427              	.LVL219:
 2428              	.L114:
 106:user/esp8266/esp8266_at.c ****         if (monthTable[i] == monthString) {
 2429              		.loc 1 106 32 view .LVU760
 2430 057a 0626     		movs	r6, #6
 2431 057c 01E6     		b	.L67
 2432              	.LVL220:
 2433              	.L115:
 106:user/esp8266/esp8266_at.c ****         if (monthTable[i] == monthString) {
 2434              		.loc 1 106 32 view .LVU761
 2435 057e 0726     		movs	r6, #7
 2436 0580 FFE5     		b	.L67
 2437              	.LVL221:
 2438              	.L116:
 106:user/esp8266/esp8266_at.c ****         if (monthTable[i] == monthString) {
 2439              		.loc 1 106 32 view .LVU762
 2440 0582 0826     		movs	r6, #8
 2441 0584 FDE5     		b	.L67
 2442              	.LVL222:
 2443              	.L117:
 106:user/esp8266/esp8266_at.c ****         if (monthTable[i] == monthString) {
 2444              		.loc 1 106 32 view .LVU763
 2445 0586 0926     		movs	r6, #9
 2446 0588 FBE5     		b	.L67
 2447              	.LVL223:
 2448              	.L118:
 106:user/esp8266/esp8266_at.c ****         if (monthTable[i] == monthString) {
 2449              		.loc 1 106 32 view .LVU764
 2450 058a 0A26     		movs	r6, #10
 2451 058c F9E5     		b	.L67
 2452              	.LVL224:
 2453              	.L119:
 106:user/esp8266/esp8266_at.c ****         if (monthTable[i] == monthString) {
 2454              		.loc 1 106 32 view .LVU765
 2455 058e 0B26     		movs	r6, #11
 2456 0590 F7E5     		b	.L67
 2457              	.L160:
 2458 0592 00BF     		.align	2
 2459              	.L159:
 2460 0594 00000000 		.word	huart1
 2461 0598 000C0140 		.word	1073810432
 2462              	.LBE197:
 2463              	.LBE374:
 2464              	.LBE375:
 2465              	.LBE376:
 2466              		.cfi_endproc
 2467              	.LFE77:
 2469              		.section	.text.WIFI_GetTimeDataFlag,"ax",%progbits
 2470              		.align	1
 2471              		.p2align 2,,3
 2472              		.global	WIFI_GetTimeDataFlag
 2473              		.syntax unified
 2474              		.thumb
 2475              		.thumb_func
 2477              	WIFI_GetTimeDataFlag:
 2478              	.LFB78:
 285:user/esp8266/esp8266_at.c **** 
ARM GAS  C:\Users\WENHUA~1\AppData\Local\Temp\ccJqRDmD.s 			page 61


 286:user/esp8266/esp8266_at.c **** bool WIFI_GetTimeDataFlag(void)
 287:user/esp8266/esp8266_at.c **** {
 2479              		.loc 1 287 1 is_stmt 1 view -0
 2480              		.cfi_startproc
 2481              		@ args = 0, pretend = 0, frame = 0
 2482              		@ frame_needed = 0, uses_anonymous_args = 0
 2483              		@ link register save eliminated.
 288:user/esp8266/esp8266_at.c ****     return g_getTime.okFlag;
 2484              		.loc 1 288 5 view .LVU767
 2485              		.loc 1 288 21 is_stmt 0 view .LVU768
 2486 0000 014B     		ldr	r3, .L162
 289:user/esp8266/esp8266_at.c **** }
 2487              		.loc 1 289 1 view .LVU769
 2488 0002 5879     		ldrb	r0, [r3, #5]	@ zero_extendqisi2
 2489 0004 7047     		bx	lr
 2490              	.L163:
 2491 0006 00BF     		.align	2
 2492              	.L162:
 2493 0008 00000000 		.word	.LANCHOR0
 2494              		.cfi_endproc
 2495              	.LFE78:
 2497              		.section	.text.WIFI_SetTimeDataFlag,"ax",%progbits
 2498              		.align	1
 2499              		.p2align 2,,3
 2500              		.global	WIFI_SetTimeDataFlag
 2501              		.syntax unified
 2502              		.thumb
 2503              		.thumb_func
 2505              	WIFI_SetTimeDataFlag:
 2506              	.LVL225:
 2507              	.LFB79:
 290:user/esp8266/esp8266_at.c **** 
 291:user/esp8266/esp8266_at.c **** void WIFI_SetTimeDataFlag(bool value)
 292:user/esp8266/esp8266_at.c **** {
 2508              		.loc 1 292 1 is_stmt 1 view -0
 2509              		.cfi_startproc
 2510              		@ args = 0, pretend = 0, frame = 0
 2511              		@ frame_needed = 0, uses_anonymous_args = 0
 2512              		@ link register save eliminated.
 293:user/esp8266/esp8266_at.c ****     g_getTime.okFlag = value;
 2513              		.loc 1 293 5 view .LVU771
 2514              		.loc 1 293 22 is_stmt 0 view .LVU772
 2515 0000 014B     		ldr	r3, .L165
 2516 0002 5871     		strb	r0, [r3, #5]
 294:user/esp8266/esp8266_at.c **** }
 2517              		.loc 1 294 1 view .LVU773
 2518 0004 7047     		bx	lr
 2519              	.L166:
 2520 0006 00BF     		.align	2
 2521              	.L165:
 2522 0008 00000000 		.word	.LANCHOR0
 2523              		.cfi_endproc
 2524              	.LFE79:
 2526              		.global	g_getTime
 2527              		.section	.bss.g_getTime,"aw",%nobits
 2528              		.align	2
 2529              		.set	.LANCHOR0,. + 0
ARM GAS  C:\Users\WENHUA~1\AppData\Local\Temp\ccJqRDmD.s 			page 62


 2532              	g_getTime:
 2533 0000 00000000 		.space	6
 2533      0000
 2534              		.text
 2535              	.Letext0:
 2536              		.file 2 "d:\\program files (x86)\\gnu arm embedded toolchain\\10 2021.10\\arm-none-eabi\\include\\
 2537              		.file 3 "d:\\program files (x86)\\gnu arm embedded toolchain\\10 2021.10\\arm-none-eabi\\include\\
 2538              		.file 4 "Drivers/CMSIS/Device/ST/STM32F1xx/Include/stm32f103xb.h"
 2539              		.file 5 "Drivers/STM32F1xx_HAL_Driver/Inc/stm32f1xx_hal_def.h"
 2540              		.file 6 "Drivers/STM32F1xx_HAL_Driver/Inc/stm32f1xx_hal_gpio.h"
 2541              		.file 7 "Drivers/STM32F1xx_HAL_Driver/Inc/stm32f1xx_hal_dma.h"
 2542              		.file 8 "Drivers/STM32F1xx_HAL_Driver/Inc/stm32f1xx_hal_uart.h"
 2543              		.file 9 "user/time/time.h"
 2544              		.file 10 "user/esp8266/esp8266_at.h"
 2545              		.file 11 "Core/Inc/usart.h"
 2546              		.file 12 "user/lunar_calendar/lunar_calendar.h"
 2547              		.file 13 "d:\\program files (x86)\\gnu arm embedded toolchain\\10 2021.10\\arm-none-eabi\\include\
 2548              		.file 14 "Drivers/STM32F1xx_HAL_Driver/Inc/stm32f1xx_hal.h"
 2549              		.file 15 "<built-in>"
ARM GAS  C:\Users\WENHUA~1\AppData\Local\Temp\ccJqRDmD.s 			page 63

