ARM GAS  C:\Users\WENHUA~1\AppData\Local\Temp\ccGxOhIX.s 			page 1


   1              		.cpu cortex-m3
   2              		.arch armv7-m
   3              		.fpu softvfp
   4              		.eabi_attribute 20, 1
   5              		.eabi_attribute 21, 1
   6              		.eabi_attribute 23, 3
   7              		.eabi_attribute 24, 1
   8              		.eabi_attribute 25, 1
   9              		.eabi_attribute 26, 1
  10              		.eabi_attribute 30, 2
  11              		.eabi_attribute 34, 1
  12              		.eabi_attribute 18, 4
  13              		.file	"gpio.c"
  14              		.text
  15              	.Ltext0:
  16              		.cfi_sections	.debug_frame
  17              		.section	.text.MX_GPIO_Init,"ax",%progbits
  18              		.align	1
  19              		.p2align 2,,3
  20              		.global	MX_GPIO_Init
  21              		.syntax unified
  22              		.thumb
  23              		.thumb_func
  25              	MX_GPIO_Init:
  26              	.LFB65:
  27              		.file 1 "Core/Src/gpio.c"
   1:Core/Src/gpio.c **** /**
   2:Core/Src/gpio.c ****   ******************************************************************************
   3:Core/Src/gpio.c ****   * @file    gpio.c
   4:Core/Src/gpio.c ****   * @brief   This file provides code for the configuration
   5:Core/Src/gpio.c ****   *          of all used GPIO pins.
   6:Core/Src/gpio.c ****   ******************************************************************************
   7:Core/Src/gpio.c ****   * @attention
   8:Core/Src/gpio.c ****   *
   9:Core/Src/gpio.c ****   * <h2><center>&copy; Copyright (c) 2022 STMicroelectronics.
  10:Core/Src/gpio.c ****   * All rights reserved.</center></h2>
  11:Core/Src/gpio.c ****   *
  12:Core/Src/gpio.c ****   * This software component is licensed by ST under BSD 3-Clause license,
  13:Core/Src/gpio.c ****   * the "License"; You may not use this file except in compliance with the
  14:Core/Src/gpio.c ****   * License. You may obtain a copy of the License at:
  15:Core/Src/gpio.c ****   *                        opensource.org/licenses/BSD-3-Clause
  16:Core/Src/gpio.c ****   *
  17:Core/Src/gpio.c ****   ******************************************************************************
  18:Core/Src/gpio.c ****   */
  19:Core/Src/gpio.c **** 
  20:Core/Src/gpio.c **** /* Includes ------------------------------------------------------------------*/
  21:Core/Src/gpio.c **** #include "gpio.h"
  22:Core/Src/gpio.c **** 
  23:Core/Src/gpio.c **** /* USER CODE BEGIN 0 */
  24:Core/Src/gpio.c **** 
  25:Core/Src/gpio.c **** /* USER CODE END 0 */
  26:Core/Src/gpio.c **** 
  27:Core/Src/gpio.c **** /*----------------------------------------------------------------------------*/
  28:Core/Src/gpio.c **** /* Configure GPIO                                                             */
  29:Core/Src/gpio.c **** /*----------------------------------------------------------------------------*/
  30:Core/Src/gpio.c **** /* USER CODE BEGIN 1 */
  31:Core/Src/gpio.c **** 
ARM GAS  C:\Users\WENHUA~1\AppData\Local\Temp\ccGxOhIX.s 			page 2


  32:Core/Src/gpio.c **** /* USER CODE END 1 */
  33:Core/Src/gpio.c **** 
  34:Core/Src/gpio.c **** /** Configure pins as
  35:Core/Src/gpio.c ****         * Analog
  36:Core/Src/gpio.c ****         * Input
  37:Core/Src/gpio.c ****         * Output
  38:Core/Src/gpio.c ****         * EVENT_OUT
  39:Core/Src/gpio.c ****         * EXTI
  40:Core/Src/gpio.c ****         * Free pins are configured automatically as Analog (this feature is enabled through
  41:Core/Src/gpio.c ****         * the Code Generation settings)
  42:Core/Src/gpio.c **** */
  43:Core/Src/gpio.c **** void MX_GPIO_Init(void)
  44:Core/Src/gpio.c **** {
  28              		.loc 1 44 1 view -0
  29              		.cfi_startproc
  30              		@ args = 0, pretend = 0, frame = 32
  31              		@ frame_needed = 0, uses_anonymous_args = 0
  45:Core/Src/gpio.c **** 
  46:Core/Src/gpio.c ****   GPIO_InitTypeDef GPIO_InitStruct = {0};
  32              		.loc 1 46 3 view .LVU1
  44:Core/Src/gpio.c **** 
  33              		.loc 1 44 1 is_stmt 0 view .LVU2
  34 0000 70B5     		push	{r4, r5, r6, lr}
  35              	.LCFI0:
  36              		.cfi_def_cfa_offset 16
  37              		.cfi_offset 4, -16
  38              		.cfi_offset 5, -12
  39              		.cfi_offset 6, -8
  40              		.cfi_offset 14, -4
  41              		.loc 1 46 20 view .LVU3
  42 0002 0024     		movs	r4, #0
  44:Core/Src/gpio.c **** 
  43              		.loc 1 44 1 view .LVU4
  44 0004 88B0     		sub	sp, sp, #32
  45              	.LCFI1:
  46              		.cfi_def_cfa_offset 48
  47              		.loc 1 46 20 view .LVU5
  48 0006 CDE90444 		strd	r4, r4, [sp, #16]
  49 000a CDE90644 		strd	r4, r4, [sp, #24]
  47:Core/Src/gpio.c **** 
  48:Core/Src/gpio.c ****   /* GPIO Ports Clock Enable */
  49:Core/Src/gpio.c ****   __HAL_RCC_GPIOC_CLK_ENABLE();
  50              		.loc 1 49 3 is_stmt 1 view .LVU6
  51              	.LBB2:
  52              		.loc 1 49 3 view .LVU7
  53              		.loc 1 49 3 view .LVU8
  54 000e 394B     		ldr	r3, .L4
  55              	.LBE2:
  50:Core/Src/gpio.c ****   __HAL_RCC_GPIOD_CLK_ENABLE();
  51:Core/Src/gpio.c ****   __HAL_RCC_GPIOA_CLK_ENABLE();
  52:Core/Src/gpio.c ****   __HAL_RCC_GPIOB_CLK_ENABLE();
  53:Core/Src/gpio.c **** 
  54:Core/Src/gpio.c ****   /*Configure GPIO pin Output Level */
  55:Core/Src/gpio.c ****   HAL_GPIO_WritePin(GPIOA, HUB_G1_Pin|HUB_R1_Pin|HUB_B1_Pin|HUB_D_Pin
  56              		.loc 1 55 3 is_stmt 0 view .LVU9
  57 0010 394D     		ldr	r5, .L4+4
  58              	.LBB3:
ARM GAS  C:\Users\WENHUA~1\AppData\Local\Temp\ccGxOhIX.s 			page 3


  49:Core/Src/gpio.c ****   __HAL_RCC_GPIOD_CLK_ENABLE();
  59              		.loc 1 49 3 view .LVU10
  60 0012 9A69     		ldr	r2, [r3, #24]
  61              	.LBE3:
  56:Core/Src/gpio.c ****                           |HUB_CA15_Pin, GPIO_PIN_RESET);
  57:Core/Src/gpio.c **** 
  58:Core/Src/gpio.c ****   /*Configure GPIO pin Output Level */
  59:Core/Src/gpio.c ****   HAL_GPIO_WritePin(GPIOB, HUB_R2_Pin|HUB_G2_Pin|HUB_B2_Pin|DISP_POWER_Pin
  62              		.loc 1 59 3 view .LVU11
  63 0014 394E     		ldr	r6, .L4+8
  64              	.LBB4:
  49:Core/Src/gpio.c ****   __HAL_RCC_GPIOD_CLK_ENABLE();
  65              		.loc 1 49 3 view .LVU12
  66 0016 42F01002 		orr	r2, r2, #16
  67 001a 9A61     		str	r2, [r3, #24]
  49:Core/Src/gpio.c ****   __HAL_RCC_GPIOD_CLK_ENABLE();
  68              		.loc 1 49 3 is_stmt 1 view .LVU13
  69 001c 9A69     		ldr	r2, [r3, #24]
  70              	.LBE4:
  55:Core/Src/gpio.c ****                           |HUB_CA15_Pin, GPIO_PIN_RESET);
  71              		.loc 1 55 3 is_stmt 0 view .LVU14
  72 001e 2846     		mov	r0, r5
  73              	.LBB5:
  49:Core/Src/gpio.c ****   __HAL_RCC_GPIOD_CLK_ENABLE();
  74              		.loc 1 49 3 view .LVU15
  75 0020 02F01002 		and	r2, r2, #16
  76 0024 0092     		str	r2, [sp]
  49:Core/Src/gpio.c ****   __HAL_RCC_GPIOD_CLK_ENABLE();
  77              		.loc 1 49 3 is_stmt 1 view .LVU16
  78 0026 009A     		ldr	r2, [sp]
  79              	.LBE5:
  49:Core/Src/gpio.c ****   __HAL_RCC_GPIOD_CLK_ENABLE();
  80              		.loc 1 49 3 view .LVU17
  50:Core/Src/gpio.c ****   __HAL_RCC_GPIOA_CLK_ENABLE();
  81              		.loc 1 50 3 view .LVU18
  82              	.LBB6:
  50:Core/Src/gpio.c ****   __HAL_RCC_GPIOA_CLK_ENABLE();
  83              		.loc 1 50 3 view .LVU19
  50:Core/Src/gpio.c ****   __HAL_RCC_GPIOA_CLK_ENABLE();
  84              		.loc 1 50 3 view .LVU20
  85 0028 9A69     		ldr	r2, [r3, #24]
  86              	.LBE6:
  55:Core/Src/gpio.c ****                           |HUB_CA15_Pin, GPIO_PIN_RESET);
  87              		.loc 1 55 3 is_stmt 0 view .LVU21
  88 002a 48F2E011 		movw	r1, #33248
  89              	.LBB7:
  50:Core/Src/gpio.c ****   __HAL_RCC_GPIOA_CLK_ENABLE();
  90              		.loc 1 50 3 view .LVU22
  91 002e 42F02002 		orr	r2, r2, #32
  92 0032 9A61     		str	r2, [r3, #24]
  50:Core/Src/gpio.c ****   __HAL_RCC_GPIOA_CLK_ENABLE();
  93              		.loc 1 50 3 is_stmt 1 view .LVU23
  94 0034 9A69     		ldr	r2, [r3, #24]
  95 0036 02F02002 		and	r2, r2, #32
  96 003a 0192     		str	r2, [sp, #4]
  50:Core/Src/gpio.c ****   __HAL_RCC_GPIOA_CLK_ENABLE();
  97              		.loc 1 50 3 view .LVU24
ARM GAS  C:\Users\WENHUA~1\AppData\Local\Temp\ccGxOhIX.s 			page 4


  98 003c 019A     		ldr	r2, [sp, #4]
  99              	.LBE7:
  50:Core/Src/gpio.c ****   __HAL_RCC_GPIOA_CLK_ENABLE();
 100              		.loc 1 50 3 view .LVU25
  51:Core/Src/gpio.c ****   __HAL_RCC_GPIOB_CLK_ENABLE();
 101              		.loc 1 51 3 view .LVU26
 102              	.LBB8:
  51:Core/Src/gpio.c ****   __HAL_RCC_GPIOB_CLK_ENABLE();
 103              		.loc 1 51 3 view .LVU27
  51:Core/Src/gpio.c ****   __HAL_RCC_GPIOB_CLK_ENABLE();
 104              		.loc 1 51 3 view .LVU28
 105 003e 9A69     		ldr	r2, [r3, #24]
 106 0040 42F00402 		orr	r2, r2, #4
 107 0044 9A61     		str	r2, [r3, #24]
  51:Core/Src/gpio.c ****   __HAL_RCC_GPIOB_CLK_ENABLE();
 108              		.loc 1 51 3 view .LVU29
 109 0046 9A69     		ldr	r2, [r3, #24]
 110 0048 02F00402 		and	r2, r2, #4
 111 004c 0292     		str	r2, [sp, #8]
  51:Core/Src/gpio.c ****   __HAL_RCC_GPIOB_CLK_ENABLE();
 112              		.loc 1 51 3 view .LVU30
 113 004e 029A     		ldr	r2, [sp, #8]
 114              	.LBE8:
  51:Core/Src/gpio.c ****   __HAL_RCC_GPIOB_CLK_ENABLE();
 115              		.loc 1 51 3 view .LVU31
  52:Core/Src/gpio.c **** 
 116              		.loc 1 52 3 view .LVU32
 117              	.LBB9:
  52:Core/Src/gpio.c **** 
 118              		.loc 1 52 3 view .LVU33
  52:Core/Src/gpio.c **** 
 119              		.loc 1 52 3 view .LVU34
 120 0050 9A69     		ldr	r2, [r3, #24]
 121 0052 42F00802 		orr	r2, r2, #8
 122 0056 9A61     		str	r2, [r3, #24]
  52:Core/Src/gpio.c **** 
 123              		.loc 1 52 3 view .LVU35
 124 0058 9B69     		ldr	r3, [r3, #24]
 125              	.LBE9:
  55:Core/Src/gpio.c ****                           |HUB_CA15_Pin, GPIO_PIN_RESET);
 126              		.loc 1 55 3 is_stmt 0 view .LVU36
 127 005a 2246     		mov	r2, r4
 128              	.LBB10:
  52:Core/Src/gpio.c **** 
 129              		.loc 1 52 3 view .LVU37
 130 005c 03F00803 		and	r3, r3, #8
 131 0060 0393     		str	r3, [sp, #12]
  52:Core/Src/gpio.c **** 
 132              		.loc 1 52 3 is_stmt 1 view .LVU38
 133 0062 039B     		ldr	r3, [sp, #12]
 134              	.LBE10:
  52:Core/Src/gpio.c **** 
 135              		.loc 1 52 3 view .LVU39
  55:Core/Src/gpio.c ****                           |HUB_CA15_Pin, GPIO_PIN_RESET);
 136              		.loc 1 55 3 view .LVU40
 137 0064 FFF7FEFF 		bl	HAL_GPIO_WritePin
 138              	.LVL0:
ARM GAS  C:\Users\WENHUA~1\AppData\Local\Temp\ccGxOhIX.s 			page 5


 139              		.loc 1 59 3 view .LVU41
 140 0068 2246     		mov	r2, r4
 141 006a 3046     		mov	r0, r6
 142 006c 4FF6FB41 		movw	r1, #64763
 143 0070 FFF7FEFF 		bl	HAL_GPIO_WritePin
 144              	.LVL1:
  60:Core/Src/gpio.c ****                           |WORK_LED_Pin|HUB_A_Pin|HUB_B_Pin|HUB_C_Pin
  61:Core/Src/gpio.c ****                           |HUB_LAT_Pin|HUB_OE_Pin|WIFI_POWER_Pin|HTU21D_SCL_Pin
  62:Core/Src/gpio.c ****                           |HTU21D_SDA_Pin, GPIO_PIN_RESET);
  63:Core/Src/gpio.c **** 
  64:Core/Src/gpio.c ****   /*Configure GPIO pin : PC13 */
  65:Core/Src/gpio.c ****   GPIO_InitStruct.Pin = GPIO_PIN_13;
 145              		.loc 1 65 3 view .LVU42
  66:Core/Src/gpio.c ****   GPIO_InitStruct.Mode = GPIO_MODE_ANALOG;
 146              		.loc 1 66 3 view .LVU43
  65:Core/Src/gpio.c ****   GPIO_InitStruct.Mode = GPIO_MODE_ANALOG;
 147              		.loc 1 65 23 is_stmt 0 view .LVU44
 148 0074 4FF40052 		mov	r2, #8192
 149 0078 0323     		movs	r3, #3
  67:Core/Src/gpio.c ****   HAL_GPIO_Init(GPIOC, &GPIO_InitStruct);
 150              		.loc 1 67 3 view .LVU45
 151 007a 04A9     		add	r1, sp, #16
 152 007c 2048     		ldr	r0, .L4+12
  65:Core/Src/gpio.c ****   GPIO_InitStruct.Mode = GPIO_MODE_ANALOG;
 153              		.loc 1 65 23 view .LVU46
 154 007e CDE90423 		strd	r2, [sp, #16]
 155              		.loc 1 67 3 is_stmt 1 view .LVU47
 156 0082 FFF7FEFF 		bl	HAL_GPIO_Init
 157              	.LVL2:
  68:Core/Src/gpio.c **** 
  69:Core/Src/gpio.c ****   /*Configure GPIO pin : PtPin */
  70:Core/Src/gpio.c ****   GPIO_InitStruct.Pin = PIR_INT_Pin;
 158              		.loc 1 70 3 view .LVU48
  71:Core/Src/gpio.c ****   GPIO_InitStruct.Mode = GPIO_MODE_IT_RISING;
 159              		.loc 1 71 3 view .LVU49
  72:Core/Src/gpio.c ****   GPIO_InitStruct.Pull = GPIO_PULLDOWN;
 160              		.loc 1 72 24 is_stmt 0 view .LVU50
 161 0086 0221     		movs	r1, #2
  70:Core/Src/gpio.c ****   GPIO_InitStruct.Mode = GPIO_MODE_IT_RISING;
 162              		.loc 1 70 23 view .LVU51
 163 0088 0122     		movs	r2, #1
 164 008a 1E4B     		ldr	r3, .L4+16
  73:Core/Src/gpio.c ****   HAL_GPIO_Init(PIR_INT_GPIO_Port, &GPIO_InitStruct);
 165              		.loc 1 73 3 view .LVU52
 166 008c 2846     		mov	r0, r5
  72:Core/Src/gpio.c ****   GPIO_InitStruct.Pull = GPIO_PULLDOWN;
 167              		.loc 1 72 24 view .LVU53
 168 008e 0691     		str	r1, [sp, #24]
 169              		.loc 1 73 3 view .LVU54
 170 0090 04A9     		add	r1, sp, #16
  70:Core/Src/gpio.c ****   GPIO_InitStruct.Mode = GPIO_MODE_IT_RISING;
 171              		.loc 1 70 23 view .LVU55
 172 0092 CDE90423 		strd	r2, [sp, #16]
  72:Core/Src/gpio.c ****   GPIO_InitStruct.Pull = GPIO_PULLDOWN;
 173              		.loc 1 72 3 is_stmt 1 view .LVU56
 174              		.loc 1 73 3 view .LVU57
 175 0096 FFF7FEFF 		bl	HAL_GPIO_Init
ARM GAS  C:\Users\WENHUA~1\AppData\Local\Temp\ccGxOhIX.s 			page 6


 176              	.LVL3:
  74:Core/Src/gpio.c **** 
  75:Core/Src/gpio.c ****   /*Configure GPIO pins : PA1 PA4 PA11 PA12 */
  76:Core/Src/gpio.c ****   GPIO_InitStruct.Pin = GPIO_PIN_1|GPIO_PIN_4|GPIO_PIN_11|GPIO_PIN_12;
 177              		.loc 1 76 3 view .LVU58
  77:Core/Src/gpio.c ****   GPIO_InitStruct.Mode = GPIO_MODE_ANALOG;
 178              		.loc 1 77 3 view .LVU59
  76:Core/Src/gpio.c ****   GPIO_InitStruct.Mode = GPIO_MODE_ANALOG;
 179              		.loc 1 76 23 is_stmt 0 view .LVU60
 180 009a 41F61202 		movw	r2, #6162
 181 009e 0323     		movs	r3, #3
  78:Core/Src/gpio.c ****   HAL_GPIO_Init(GPIOA, &GPIO_InitStruct);
 182              		.loc 1 78 3 view .LVU61
 183 00a0 2846     		mov	r0, r5
 184 00a2 04A9     		add	r1, sp, #16
  76:Core/Src/gpio.c ****   GPIO_InitStruct.Mode = GPIO_MODE_ANALOG;
 185              		.loc 1 76 23 view .LVU62
 186 00a4 CDE90423 		strd	r2, [sp, #16]
 187              		.loc 1 78 3 is_stmt 1 view .LVU63
  79:Core/Src/gpio.c **** 
  80:Core/Src/gpio.c ****   /*Configure GPIO pins : PAPin PAPin PAPin PAPin
  81:Core/Src/gpio.c ****                            PAPin */
  82:Core/Src/gpio.c ****   GPIO_InitStruct.Pin = HUB_G1_Pin|HUB_R1_Pin|HUB_B1_Pin|HUB_D_Pin
 188              		.loc 1 82 23 is_stmt 0 view .LVU64
 189 00a8 0024     		movs	r4, #0
  78:Core/Src/gpio.c ****   HAL_GPIO_Init(GPIOA, &GPIO_InitStruct);
 190              		.loc 1 78 3 view .LVU65
 191 00aa FFF7FEFF 		bl	HAL_GPIO_Init
 192              	.LVL4:
 193              		.loc 1 82 3 is_stmt 1 view .LVU66
  83:Core/Src/gpio.c ****                           |HUB_CA15_Pin;
  84:Core/Src/gpio.c ****   GPIO_InitStruct.Mode = GPIO_MODE_OUTPUT_PP;
 194              		.loc 1 84 3 view .LVU67
  85:Core/Src/gpio.c ****   GPIO_InitStruct.Pull = GPIO_NOPULL;
 195              		.loc 1 85 3 view .LVU68
  86:Core/Src/gpio.c ****   GPIO_InitStruct.Speed = GPIO_SPEED_FREQ_LOW;
 196              		.loc 1 86 3 view .LVU69
  82:Core/Src/gpio.c ****                           |HUB_CA15_Pin;
 197              		.loc 1 82 23 is_stmt 0 view .LVU70
 198 00ae 48F2E012 		movw	r2, #33248
 199 00b2 0123     		movs	r3, #1
  87:Core/Src/gpio.c ****   HAL_GPIO_Init(GPIOA, &GPIO_InitStruct);
 200              		.loc 1 87 3 view .LVU71
 201 00b4 2846     		mov	r0, r5
  82:Core/Src/gpio.c ****                           |HUB_CA15_Pin;
 202              		.loc 1 82 23 view .LVU72
 203 00b6 0225     		movs	r5, #2
 204              		.loc 1 87 3 view .LVU73
 205 00b8 04A9     		add	r1, sp, #16
  82:Core/Src/gpio.c ****                           |HUB_CA15_Pin;
 206              		.loc 1 82 23 view .LVU74
 207 00ba CDE90423 		strd	r2, [sp, #16]
 208 00be CDE90645 		strd	r4, [sp, #24]
 209              		.loc 1 87 3 is_stmt 1 view .LVU75
 210 00c2 FFF7FEFF 		bl	HAL_GPIO_Init
 211              	.LVL5:
  88:Core/Src/gpio.c **** 
ARM GAS  C:\Users\WENHUA~1\AppData\Local\Temp\ccGxOhIX.s 			page 7


  89:Core/Src/gpio.c ****   /*Configure GPIO pins : PBPin PBPin PBPin PBPin
  90:Core/Src/gpio.c ****                            PBPin PBPin PBPin PBPin
  91:Core/Src/gpio.c ****                            PBPin PBPin PBPin PBPin
  92:Core/Src/gpio.c ****                            PBPin */
  93:Core/Src/gpio.c ****   GPIO_InitStruct.Pin = HUB_R2_Pin|HUB_G2_Pin|HUB_B2_Pin|DISP_POWER_Pin
 212              		.loc 1 93 3 view .LVU76
  94:Core/Src/gpio.c ****                           |WORK_LED_Pin|HUB_A_Pin|HUB_B_Pin|HUB_C_Pin
  95:Core/Src/gpio.c ****                           |HUB_LAT_Pin|HUB_OE_Pin|WIFI_POWER_Pin|HTU21D_SCL_Pin
  96:Core/Src/gpio.c ****                           |HTU21D_SDA_Pin;
  97:Core/Src/gpio.c ****   GPIO_InitStruct.Mode = GPIO_MODE_OUTPUT_PP;
 213              		.loc 1 97 3 view .LVU77
  98:Core/Src/gpio.c ****   GPIO_InitStruct.Pull = GPIO_NOPULL;
 214              		.loc 1 98 3 view .LVU78
  99:Core/Src/gpio.c ****   GPIO_InitStruct.Speed = GPIO_SPEED_FREQ_LOW;
 215              		.loc 1 99 3 view .LVU79
  93:Core/Src/gpio.c ****                           |WORK_LED_Pin|HUB_A_Pin|HUB_B_Pin|HUB_C_Pin
 216              		.loc 1 93 23 is_stmt 0 view .LVU80
 217 00c6 4FF6FB42 		movw	r2, #64763
 218 00ca 0123     		movs	r3, #1
 100:Core/Src/gpio.c ****   HAL_GPIO_Init(GPIOB, &GPIO_InitStruct);
 219              		.loc 1 100 3 view .LVU81
 220 00cc 3046     		mov	r0, r6
 221 00ce 04A9     		add	r1, sp, #16
  93:Core/Src/gpio.c ****                           |WORK_LED_Pin|HUB_A_Pin|HUB_B_Pin|HUB_C_Pin
 222              		.loc 1 93 23 view .LVU82
 223 00d0 CDE90423 		strd	r2, [sp, #16]
 224 00d4 CDE90645 		strd	r4, [sp, #24]
 225              		.loc 1 100 3 is_stmt 1 view .LVU83
 226 00d8 FFF7FEFF 		bl	HAL_GPIO_Init
 227              	.LVL6:
 101:Core/Src/gpio.c **** 
 102:Core/Src/gpio.c ****   /*Configure GPIO pins : PB2 PB8 PB9 */
 103:Core/Src/gpio.c ****   GPIO_InitStruct.Pin = GPIO_PIN_2|GPIO_PIN_8|GPIO_PIN_9;
 228              		.loc 1 103 3 view .LVU84
 104:Core/Src/gpio.c ****   GPIO_InitStruct.Mode = GPIO_MODE_ANALOG;
 229              		.loc 1 104 3 view .LVU85
 103:Core/Src/gpio.c ****   GPIO_InitStruct.Mode = GPIO_MODE_ANALOG;
 230              		.loc 1 103 23 is_stmt 0 view .LVU86
 231 00dc 4FF44172 		mov	r2, #772
 232 00e0 0323     		movs	r3, #3
 105:Core/Src/gpio.c ****   HAL_GPIO_Init(GPIOB, &GPIO_InitStruct);
 233              		.loc 1 105 3 view .LVU87
 234 00e2 3046     		mov	r0, r6
 235 00e4 04A9     		add	r1, sp, #16
 103:Core/Src/gpio.c ****   GPIO_InitStruct.Mode = GPIO_MODE_ANALOG;
 236              		.loc 1 103 23 view .LVU88
 237 00e6 CDE90423 		strd	r2, [sp, #16]
 238              		.loc 1 105 3 is_stmt 1 view .LVU89
 239 00ea FFF7FEFF 		bl	HAL_GPIO_Init
 240              	.LVL7:
 106:Core/Src/gpio.c **** 
 107:Core/Src/gpio.c **** }
 241              		.loc 1 107 1 is_stmt 0 view .LVU90
 242 00ee 08B0     		add	sp, sp, #32
 243              	.LCFI2:
 244              		.cfi_def_cfa_offset 16
 245              		@ sp needed
ARM GAS  C:\Users\WENHUA~1\AppData\Local\Temp\ccGxOhIX.s 			page 8


 246 00f0 70BD     		pop	{r4, r5, r6, pc}
 247              	.L5:
 248 00f2 00BF     		.align	2
 249              	.L4:
 250 00f4 00100240 		.word	1073876992
 251 00f8 00080140 		.word	1073809408
 252 00fc 000C0140 		.word	1073810432
 253 0100 00100140 		.word	1073811456
 254 0104 00001110 		.word	269549568
 255              		.cfi_endproc
 256              	.LFE65:
 258              		.text
 259              	.Letext0:
 260              		.file 2 "d:\\program files (x86)\\gnu arm embedded toolchain\\10 2021.10\\arm-none-eabi\\include\\
 261              		.file 3 "d:\\program files (x86)\\gnu arm embedded toolchain\\10 2021.10\\arm-none-eabi\\include\\
 262              		.file 4 "Drivers/CMSIS/Device/ST/STM32F1xx/Include/stm32f103xb.h"
 263              		.file 5 "Drivers/STM32F1xx_HAL_Driver/Inc/stm32f1xx_hal_gpio.h"
ARM GAS  C:\Users\WENHUA~1\AppData\Local\Temp\ccGxOhIX.s 			page 9

