ARM GAS  C:\Users\WENHUA~1\AppData\Local\Temp\ccnJErvg.s 			page 1


   1              		.cpu cortex-m3
   2              		.arch armv7-m
   3              		.fpu softvfp
   4              		.eabi_attribute 20, 1
   5              		.eabi_attribute 21, 1
   6              		.eabi_attribute 23, 3
   7              		.eabi_attribute 24, 1
   8              		.eabi_attribute 25, 1
   9              		.eabi_attribute 26, 1
  10              		.eabi_attribute 30, 2
  11              		.eabi_attribute 34, 1
  12              		.eabi_attribute 18, 4
  13              		.file	"htu21d.c"
  14              		.text
  15              	.Ltext0:
  16              		.cfi_sections	.debug_frame
  17              		.section	.text.WriteByte,"ax",%progbits
  18              		.align	1
  19              		.p2align 2,,3
  20              		.syntax unified
  21              		.thumb
  22              		.thumb_func
  24              	WriteByte:
  25              	.LVL0:
  26              	.LFB75:
  27              		.file 1 "user/htu21d/htu21d.c"
   1:user/htu21d/htu21d.c **** #include "htu21d.h"
   2:user/htu21d/htu21d.c **** #include <stdio.h>
   3:user/htu21d/htu21d.c **** #include <stdint.h>
   4:user/htu21d/htu21d.c **** #include <stdbool.h>
   5:user/htu21d/htu21d.c **** #include "stm32f1xx_hal.h"
   6:user/htu21d/htu21d.c **** #include "main.h"
   7:user/htu21d/htu21d.c **** #include "trace_printf.h"
   8:user/htu21d/htu21d.c **** 
   9:user/htu21d/htu21d.c **** #define HTU21D_I2C_DELAY 2
  10:user/htu21d/htu21d.c **** 
  11:user/htu21d/htu21d.c **** #define WRITE 0
  12:user/htu21d/htu21d.c **** #define READ 1
  13:user/htu21d/htu21d.c **** 
  14:user/htu21d/htu21d.c **** #define DEVICE_ADDR 0x80
  15:user/htu21d/htu21d.c **** 
  16:user/htu21d/htu21d.c **** #define TEM_HOLD 0xe3
  17:user/htu21d/htu21d.c **** #define TEM_NO 0xf3
  18:user/htu21d/htu21d.c **** 
  19:user/htu21d/htu21d.c **** #define HUM_HOLD 0xe5
  20:user/htu21d/htu21d.c **** #define HUM_NO 0xf5
  21:user/htu21d/htu21d.c **** 
  22:user/htu21d/htu21d.c **** #define WRSR 0xe6
  23:user/htu21d/htu21d.c **** #define RDSR 0xe7
  24:user/htu21d/htu21d.c **** #define HTU21D_RESET 0xfe
  25:user/htu21d/htu21d.c **** 
  26:user/htu21d/htu21d.c **** enum SdaIoType {
  27:user/htu21d/htu21d.c ****     HTU21D_SDA_OUTPUT,
  28:user/htu21d/htu21d.c ****     HTU21D_SDA_INPUT,
  29:user/htu21d/htu21d.c **** };
  30:user/htu21d/htu21d.c **** 
  31:user/htu21d/htu21d.c **** #define HTU21D_SDAIN()                    \
ARM GAS  C:\Users\WENHUA~1\AppData\Local\Temp\ccnJErvg.s 			page 2


  32:user/htu21d/htu21d.c ****     do {                                  \
  33:user/htu21d/htu21d.c ****         HTU21D_SDA_SET(HTU21D_SDA_INPUT); \
  34:user/htu21d/htu21d.c ****     } while (0)
  35:user/htu21d/htu21d.c **** #define HTU21D_SDAOUT()                    \
  36:user/htu21d/htu21d.c ****     do {                                   \
  37:user/htu21d/htu21d.c ****         HTU21D_SDA_SET(HTU21D_SDA_OUTPUT); \
  38:user/htu21d/htu21d.c ****     } while (0)
  39:user/htu21d/htu21d.c **** #define HTU21D_SCL_HIGH()                                                      \
  40:user/htu21d/htu21d.c ****     do {                                                                       \
  41:user/htu21d/htu21d.c ****         HAL_GPIO_WritePin(HTU21D_SCL_GPIO_Port, HTU21D_SCL_Pin, GPIO_PIN_SET); \
  42:user/htu21d/htu21d.c ****     } while (0)
  43:user/htu21d/htu21d.c **** #define HTU21D_SCL_LOW()                                                         \
  44:user/htu21d/htu21d.c ****     do {                                                                         \
  45:user/htu21d/htu21d.c ****         HAL_GPIO_WritePin(HTU21D_SCL_GPIO_Port, HTU21D_SCL_Pin, GPIO_PIN_RESET); \
  46:user/htu21d/htu21d.c ****     } while (0)
  47:user/htu21d/htu21d.c **** #define HTU21D_SDA_HIGH()                                                      \
  48:user/htu21d/htu21d.c ****     do {                                                                       \
  49:user/htu21d/htu21d.c ****         HAL_GPIO_WritePin(HTU21D_SDA_GPIO_Port, HTU21D_SDA_Pin, GPIO_PIN_SET); \
  50:user/htu21d/htu21d.c ****     } while (0)
  51:user/htu21d/htu21d.c **** #define HTU21D_SDA_LOW()                                                         \
  52:user/htu21d/htu21d.c ****     do {                                                                         \
  53:user/htu21d/htu21d.c ****         HAL_GPIO_WritePin(HTU21D_SDA_GPIO_Port, HTU21D_SDA_Pin, GPIO_PIN_RESET); \
  54:user/htu21d/htu21d.c ****     } while (0)
  55:user/htu21d/htu21d.c **** 
  56:user/htu21d/htu21d.c **** struct Htu21dDataType {
  57:user/htu21d/htu21d.c ****     int16_t temperature;
  58:user/htu21d/htu21d.c ****     uint16_t humidity;
  59:user/htu21d/htu21d.c **** };
  60:user/htu21d/htu21d.c **** struct Htu21dDataType g_thData;
  61:user/htu21d/htu21d.c **** static uint8_t g_i2cFial;
  62:user/htu21d/htu21d.c **** 
  63:user/htu21d/htu21d.c **** static void DelayUs(uint8_t c)
  64:user/htu21d/htu21d.c **** {
  65:user/htu21d/htu21d.c ****     uint16_t count = c;
  66:user/htu21d/htu21d.c **** 
  67:user/htu21d/htu21d.c ****     while (count--);
  68:user/htu21d/htu21d.c **** }
  69:user/htu21d/htu21d.c **** 
  70:user/htu21d/htu21d.c **** static void HTU21D_SDA_SET(enum SdaIoType io)
  71:user/htu21d/htu21d.c **** {
  72:user/htu21d/htu21d.c ****     GPIO_InitTypeDef GPIO_InitStructure;
  73:user/htu21d/htu21d.c **** 
  74:user/htu21d/htu21d.c ****     if (io == HTU21D_SDA_OUTPUT) {
  75:user/htu21d/htu21d.c ****         GPIO_InitStructure.Pin = HTU21D_SDA_Pin;
  76:user/htu21d/htu21d.c ****         GPIO_InitStructure.Mode = GPIO_MODE_OUTPUT_OD;
  77:user/htu21d/htu21d.c ****         GPIO_InitStructure.Speed = GPIO_SPEED_FREQ_LOW;
  78:user/htu21d/htu21d.c ****         HAL_GPIO_Init(HTU21D_SDA_GPIO_Port, &GPIO_InitStructure);
  79:user/htu21d/htu21d.c ****     } else {
  80:user/htu21d/htu21d.c ****         GPIO_InitStructure.Pin = HTU21D_SDA_Pin;
  81:user/htu21d/htu21d.c ****         GPIO_InitStructure.Mode = GPIO_MODE_INPUT;
  82:user/htu21d/htu21d.c ****         GPIO_InitStructure.Pull = GPIO_PULLUP;
  83:user/htu21d/htu21d.c ****         HAL_GPIO_Init(HTU21D_SDA_GPIO_Port, &GPIO_InitStructure);
  84:user/htu21d/htu21d.c ****     }
  85:user/htu21d/htu21d.c **** }
  86:user/htu21d/htu21d.c **** 
  87:user/htu21d/htu21d.c **** static void StartBus(void)
  88:user/htu21d/htu21d.c **** {
ARM GAS  C:\Users\WENHUA~1\AppData\Local\Temp\ccnJErvg.s 			page 3


  89:user/htu21d/htu21d.c ****     HTU21D_SDA_HIGH();
  90:user/htu21d/htu21d.c ****     DelayUs(HTU21D_I2C_DELAY);
  91:user/htu21d/htu21d.c ****     HTU21D_SCL_HIGH();
  92:user/htu21d/htu21d.c ****     DelayUs(HTU21D_I2C_DELAY);
  93:user/htu21d/htu21d.c ****     HTU21D_SDA_LOW();
  94:user/htu21d/htu21d.c ****     DelayUs(HTU21D_I2C_DELAY);
  95:user/htu21d/htu21d.c ****     HTU21D_SCL_LOW();
  96:user/htu21d/htu21d.c ****     DelayUs(HTU21D_I2C_DELAY);
  97:user/htu21d/htu21d.c **** }
  98:user/htu21d/htu21d.c **** 
  99:user/htu21d/htu21d.c **** static void StopBus(void)
 100:user/htu21d/htu21d.c **** {
 101:user/htu21d/htu21d.c ****     HTU21D_SDA_LOW();
 102:user/htu21d/htu21d.c ****     DelayUs(HTU21D_I2C_DELAY);
 103:user/htu21d/htu21d.c ****     HTU21D_SCL_HIGH();
 104:user/htu21d/htu21d.c ****     DelayUs(HTU21D_I2C_DELAY);
 105:user/htu21d/htu21d.c ****     HTU21D_SDA_HIGH();
 106:user/htu21d/htu21d.c ****     DelayUs(HTU21D_I2C_DELAY);
 107:user/htu21d/htu21d.c **** }
 108:user/htu21d/htu21d.c **** 
 109:user/htu21d/htu21d.c **** static void AckBus(void)
 110:user/htu21d/htu21d.c **** {
 111:user/htu21d/htu21d.c ****     HTU21D_SDA_LOW();
 112:user/htu21d/htu21d.c ****     DelayUs(HTU21D_I2C_DELAY);
 113:user/htu21d/htu21d.c ****     HTU21D_SCL_LOW();
 114:user/htu21d/htu21d.c ****     DelayUs(HTU21D_I2C_DELAY);
 115:user/htu21d/htu21d.c ****     HTU21D_SCL_HIGH();
 116:user/htu21d/htu21d.c ****     DelayUs(HTU21D_I2C_DELAY);
 117:user/htu21d/htu21d.c ****     HTU21D_SCL_LOW();
 118:user/htu21d/htu21d.c ****     DelayUs(HTU21D_I2C_DELAY);
 119:user/htu21d/htu21d.c ****     HTU21D_SDA_HIGH();
 120:user/htu21d/htu21d.c ****     DelayUs(HTU21D_I2C_DELAY);
 121:user/htu21d/htu21d.c **** }
 122:user/htu21d/htu21d.c **** 
 123:user/htu21d/htu21d.c **** static void NoAckBus(void)
 124:user/htu21d/htu21d.c **** {
 125:user/htu21d/htu21d.c ****     HTU21D_SDA_HIGH();
 126:user/htu21d/htu21d.c ****     DelayUs(HTU21D_I2C_DELAY);
 127:user/htu21d/htu21d.c ****     HTU21D_SCL_HIGH();
 128:user/htu21d/htu21d.c ****     DelayUs(HTU21D_I2C_DELAY);
 129:user/htu21d/htu21d.c ****     HTU21D_SCL_LOW();
 130:user/htu21d/htu21d.c **** }
 131:user/htu21d/htu21d.c **** 
 132:user/htu21d/htu21d.c **** static void HTU21D_I2cInit(void)
 133:user/htu21d/htu21d.c **** {
 134:user/htu21d/htu21d.c ****     GPIO_InitTypeDef GPIO_InitStructure;
 135:user/htu21d/htu21d.c **** 
 136:user/htu21d/htu21d.c ****     GPIO_InitStructure.Pin = HTU21D_SDA_Pin;
 137:user/htu21d/htu21d.c ****     GPIO_InitStructure.Mode = GPIO_MODE_OUTPUT_OD;
 138:user/htu21d/htu21d.c ****     GPIO_InitStructure.Speed = GPIO_SPEED_FREQ_LOW;
 139:user/htu21d/htu21d.c ****     HAL_GPIO_Init(HTU21D_SDA_GPIO_Port, &GPIO_InitStructure);
 140:user/htu21d/htu21d.c **** 
 141:user/htu21d/htu21d.c ****     GPIO_InitStructure.Pin = HTU21D_SCL_Pin;
 142:user/htu21d/htu21d.c ****     GPIO_InitStructure.Mode = GPIO_MODE_OUTPUT_OD;
 143:user/htu21d/htu21d.c ****     GPIO_InitStructure.Speed = GPIO_SPEED_FREQ_LOW;
 144:user/htu21d/htu21d.c ****     HAL_GPIO_Init(HTU21D_SCL_GPIO_Port, &GPIO_InitStructure);
 145:user/htu21d/htu21d.c **** 
ARM GAS  C:\Users\WENHUA~1\AppData\Local\Temp\ccnJErvg.s 			page 4


 146:user/htu21d/htu21d.c ****     HAL_GPIO_WritePin(HTU21D_SCL_GPIO_Port, HTU21D_SCL_Pin, GPIO_PIN_SET);
 147:user/htu21d/htu21d.c ****     HAL_GPIO_WritePin(HTU21D_SDA_GPIO_Port, HTU21D_SDA_Pin, GPIO_PIN_SET);
 148:user/htu21d/htu21d.c **** }
 149:user/htu21d/htu21d.c **** 
 150:user/htu21d/htu21d.c **** static uint8_t WriteByte(uint8_t send_data)
 151:user/htu21d/htu21d.c **** {
  28              		.loc 1 151 1 view -0
  29              		.cfi_startproc
  30              		@ args = 0, pretend = 0, frame = 16
  31              		@ frame_needed = 0, uses_anonymous_args = 0
 152:user/htu21d/htu21d.c ****     uint8_t temp;
  32              		.loc 1 152 5 view .LVU1
 153:user/htu21d/htu21d.c ****     uint8_t ack = 0;
  33              		.loc 1 153 5 view .LVU2
 154:user/htu21d/htu21d.c ****     uint8_t i;
  34              		.loc 1 154 5 view .LVU3
 155:user/htu21d/htu21d.c **** 
 156:user/htu21d/htu21d.c ****     for (i = 0; i < 8; i++) {
  35              		.loc 1 156 5 view .LVU4
  36              		.loc 1 156 17 view .LVU5
 151:user/htu21d/htu21d.c ****     uint8_t temp;
  37              		.loc 1 151 1 is_stmt 0 view .LVU6
  38 0000 F0B5     		push	{r4, r5, r6, r7, lr}
  39              	.LCFI0:
  40              		.cfi_def_cfa_offset 20
  41              		.cfi_offset 4, -20
  42              		.cfi_offset 5, -16
  43              		.cfi_offset 6, -12
  44              		.cfi_offset 7, -8
  45              		.cfi_offset 14, -4
 157:user/htu21d/htu21d.c ****         HTU21D_SCL_LOW();
 158:user/htu21d/htu21d.c ****         if ((send_data << i) & 0x80) {
  46              		.loc 1 158 24 view .LVU7
  47 0002 0024     		movs	r4, #0
 151:user/htu21d/htu21d.c ****     uint8_t temp;
  48              		.loc 1 151 1 view .LVU8
  49 0004 0646     		mov	r6, r0
 157:user/htu21d/htu21d.c ****         HTU21D_SCL_LOW();
  50              		.loc 1 157 9 view .LVU9
  51 0006 2E4D     		ldr	r5, .L20
 151:user/htu21d/htu21d.c ****     uint8_t temp;
  52              		.loc 1 151 1 view .LVU10
  53 0008 85B0     		sub	sp, sp, #20
  54              	.LCFI1:
  55              		.cfi_def_cfa_offset 40
  56              	.LVL1:
  57              	.L5:
 157:user/htu21d/htu21d.c ****         HTU21D_SCL_LOW();
  58              		.loc 1 157 9 is_stmt 1 view .LVU11
 157:user/htu21d/htu21d.c ****         HTU21D_SCL_LOW();
  59              		.loc 1 157 9 view .LVU12
  60 000a 0022     		movs	r2, #0
  61 000c 4021     		movs	r1, #64
  62 000e 2846     		mov	r0, r5
  63 0010 FFF7FEFF 		bl	HAL_GPIO_WritePin
  64              	.LVL2:
 157:user/htu21d/htu21d.c ****         HTU21D_SCL_LOW();
ARM GAS  C:\Users\WENHUA~1\AppData\Local\Temp\ccnJErvg.s 			page 5


  65              		.loc 1 157 9 view .LVU13
  66              		.loc 1 158 9 view .LVU14
 159:user/htu21d/htu21d.c ****             HTU21D_SDA_HIGH();
  67              		.loc 1 159 13 view .LVU15
  68              		.loc 1 159 13 view .LVU16
 160:user/htu21d/htu21d.c ****         } else {
 161:user/htu21d/htu21d.c ****             HTU21D_SDA_LOW();
  69              		.loc 1 161 13 view .LVU17
  70              		.loc 1 161 13 view .LVU18
 158:user/htu21d/htu21d.c ****             HTU21D_SDA_HIGH();
  71              		.loc 1 158 24 is_stmt 0 view .LVU19
  72 0014 06FA04F2 		lsl	r2, r6, r4
 158:user/htu21d/htu21d.c ****             HTU21D_SDA_HIGH();
  73              		.loc 1 158 12 view .LVU20
  74 0018 12F08002 		ands	r2, r2, #128
 159:user/htu21d/htu21d.c ****             HTU21D_SDA_HIGH();
  75              		.loc 1 159 13 view .LVU21
  76 001c 18BF     		it	ne
  77 001e 0122     		movne	r2, #1
  78              		.loc 1 161 13 view .LVU22
  79 0020 8021     		movs	r1, #128
  80 0022 2846     		mov	r0, r5
  81 0024 FFF7FEFF 		bl	HAL_GPIO_WritePin
  82              	.LVL3:
  83              		.loc 1 161 13 is_stmt 1 view .LVU23
 162:user/htu21d/htu21d.c ****         }
 163:user/htu21d/htu21d.c ****         DelayUs(HTU21D_I2C_DELAY);
  84              		.loc 1 163 9 view .LVU24
  65:user/htu21d/htu21d.c **** 
  85              		.loc 1 65 5 view .LVU25
  67:user/htu21d/htu21d.c **** }
  86              		.loc 1 67 5 view .LVU26
  67:user/htu21d/htu21d.c **** }
  87              		.loc 1 67 20 view .LVU27
  67:user/htu21d/htu21d.c **** }
  88              		.loc 1 67 11 view .LVU28
 164:user/htu21d/htu21d.c ****         HTU21D_SCL_HIGH();
  89              		.loc 1 164 9 view .LVU29
  90              		.loc 1 164 9 view .LVU30
 156:user/htu21d/htu21d.c ****         HTU21D_SCL_LOW();
  91              		.loc 1 156 5 is_stmt 0 view .LVU31
  92 0028 0134     		adds	r4, r4, #1
  93              	.LVL4:
  94              		.loc 1 164 9 view .LVU32
  95 002a 0122     		movs	r2, #1
  96 002c 4021     		movs	r1, #64
  97 002e 2846     		mov	r0, r5
  98 0030 FFF7FEFF 		bl	HAL_GPIO_WritePin
  99              	.LVL5:
 100              		.loc 1 164 9 is_stmt 1 view .LVU33
 165:user/htu21d/htu21d.c ****         DelayUs(HTU21D_I2C_DELAY);
 101              		.loc 1 165 9 view .LVU34
  65:user/htu21d/htu21d.c **** 
 102              		.loc 1 65 5 view .LVU35
  67:user/htu21d/htu21d.c **** }
 103              		.loc 1 67 5 view .LVU36
  67:user/htu21d/htu21d.c **** }
ARM GAS  C:\Users\WENHUA~1\AppData\Local\Temp\ccnJErvg.s 			page 6


 104              		.loc 1 67 20 view .LVU37
  67:user/htu21d/htu21d.c **** }
 105              		.loc 1 67 11 view .LVU38
 156:user/htu21d/htu21d.c ****         HTU21D_SCL_LOW();
 106              		.loc 1 156 24 view .LVU39
 156:user/htu21d/htu21d.c ****         HTU21D_SCL_LOW();
 107              		.loc 1 156 17 view .LVU40
 156:user/htu21d/htu21d.c ****         HTU21D_SCL_LOW();
 108              		.loc 1 156 5 is_stmt 0 view .LVU41
 109 0034 082C     		cmp	r4, #8
 110 0036 E8D1     		bne	.L5
 166:user/htu21d/htu21d.c ****     }
 167:user/htu21d/htu21d.c **** 
 168:user/htu21d/htu21d.c ****     HTU21D_SCL_LOW();
 111              		.loc 1 168 5 is_stmt 1 view .LVU42
 112              		.loc 1 168 5 view .LVU43
 113 0038 0022     		movs	r2, #0
 114 003a 4021     		movs	r1, #64
 115 003c 2048     		ldr	r0, .L20
 116 003e FFF7FEFF 		bl	HAL_GPIO_WritePin
 117              	.LVL6:
 118              		.loc 1 168 5 view .LVU44
 169:user/htu21d/htu21d.c ****     DelayUs(HTU21D_I2C_DELAY);
 119              		.loc 1 169 5 view .LVU45
  65:user/htu21d/htu21d.c **** 
 120              		.loc 1 65 5 view .LVU46
  67:user/htu21d/htu21d.c **** }
 121              		.loc 1 67 5 view .LVU47
  67:user/htu21d/htu21d.c **** }
 122              		.loc 1 67 20 view .LVU48
  67:user/htu21d/htu21d.c **** }
 123              		.loc 1 67 11 view .LVU49
 170:user/htu21d/htu21d.c ****     HTU21D_SDA_HIGH();
 124              		.loc 1 170 5 view .LVU50
 125              		.loc 1 170 5 view .LVU51
 126 0042 0122     		movs	r2, #1
 127 0044 8021     		movs	r1, #128
 128 0046 1E48     		ldr	r0, .L20
 129 0048 FFF7FEFF 		bl	HAL_GPIO_WritePin
 130              	.LVL7:
 131              		.loc 1 170 5 view .LVU52
 171:user/htu21d/htu21d.c ****     DelayUs(HTU21D_I2C_DELAY);
 132              		.loc 1 171 5 view .LVU53
  65:user/htu21d/htu21d.c **** 
 133              		.loc 1 65 5 view .LVU54
  67:user/htu21d/htu21d.c **** }
 134              		.loc 1 67 5 view .LVU55
  67:user/htu21d/htu21d.c **** }
 135              		.loc 1 67 20 view .LVU56
  67:user/htu21d/htu21d.c **** }
 136              		.loc 1 67 11 view .LVU57
 172:user/htu21d/htu21d.c **** 
 173:user/htu21d/htu21d.c ****     //DelayUs(HTU21D_I2C_DELAY);
 174:user/htu21d/htu21d.c ****     HTU21D_SCL_HIGH();
 137              		.loc 1 174 5 view .LVU58
 138              		.loc 1 174 5 view .LVU59
 139 004c 0122     		movs	r2, #1
ARM GAS  C:\Users\WENHUA~1\AppData\Local\Temp\ccnJErvg.s 			page 7


 140 004e 4021     		movs	r1, #64
 141 0050 1B48     		ldr	r0, .L20
 142 0052 FFF7FEFF 		bl	HAL_GPIO_WritePin
 143              	.LVL8:
 144              		.loc 1 174 5 view .LVU60
 175:user/htu21d/htu21d.c ****     DelayUs(HTU21D_I2C_DELAY);
 145              		.loc 1 175 5 view .LVU61
  65:user/htu21d/htu21d.c **** 
 146              		.loc 1 65 5 view .LVU62
  67:user/htu21d/htu21d.c **** }
 147              		.loc 1 67 5 view .LVU63
  67:user/htu21d/htu21d.c **** }
 148              		.loc 1 67 20 view .LVU64
  67:user/htu21d/htu21d.c **** }
 149              		.loc 1 67 11 view .LVU65
 176:user/htu21d/htu21d.c **** 
 177:user/htu21d/htu21d.c ****     HTU21D_SDAIN();
 150              		.loc 1 177 5 view .LVU66
 151              		.loc 1 177 5 view .LVU67
 152              	.LBB60:
 153              	.LBI60:
  70:user/htu21d/htu21d.c **** {
 154              		.loc 1 70 13 view .LVU68
 155              	.LBB61:
  72:user/htu21d/htu21d.c **** 
 156              		.loc 1 72 5 view .LVU69
  74:user/htu21d/htu21d.c ****         GPIO_InitStructure.Pin = HTU21D_SDA_Pin;
 157              		.loc 1 74 5 view .LVU70
  80:user/htu21d/htu21d.c ****         GPIO_InitStructure.Mode = GPIO_MODE_INPUT;
 158              		.loc 1 80 9 view .LVU71
  81:user/htu21d/htu21d.c ****         GPIO_InitStructure.Pull = GPIO_PULLUP;
 159              		.loc 1 81 9 view .LVU72
  80:user/htu21d/htu21d.c ****         GPIO_InitStructure.Mode = GPIO_MODE_INPUT;
 160              		.loc 1 80 32 is_stmt 0 view .LVU73
 161 0056 8026     		movs	r6, #128
 162 0058 0027     		movs	r7, #0
  82:user/htu21d/htu21d.c ****         HAL_GPIO_Init(HTU21D_SDA_GPIO_Port, &GPIO_InitStructure);
 163              		.loc 1 82 33 view .LVU74
 164 005a 0123     		movs	r3, #1
  83:user/htu21d/htu21d.c ****     }
 165              		.loc 1 83 9 view .LVU75
 166 005c 1848     		ldr	r0, .L20
 167 005e 6946     		mov	r1, sp
 168 0060 C724     		movs	r4, #199
 169              	.LBE61:
 170              	.LBE60:
 178:user/htu21d/htu21d.c ****     temp = 200;
 179:user/htu21d/htu21d.c ****     while (--temp) {
 180:user/htu21d/htu21d.c ****         DelayUs(HTU21D_I2C_DELAY);
 181:user/htu21d/htu21d.c ****         if (HAL_GPIO_ReadPin(HTU21D_SDA_GPIO_Port, HTU21D_SDA_Pin) == GPIO_PIN_RESET) {
 171              		.loc 1 181 13 view .LVU76
 172 0062 0546     		mov	r5, r0
 173              	.LBB63:
 174              	.LBB62:
  80:user/htu21d/htu21d.c ****         GPIO_InitStructure.Mode = GPIO_MODE_INPUT;
 175              		.loc 1 80 32 view .LVU77
 176 0064 CDE90067 		strd	r6, [sp]
ARM GAS  C:\Users\WENHUA~1\AppData\Local\Temp\ccnJErvg.s 			page 8


  82:user/htu21d/htu21d.c ****         HAL_GPIO_Init(HTU21D_SDA_GPIO_Port, &GPIO_InitStructure);
 177              		.loc 1 82 9 is_stmt 1 view .LVU78
  82:user/htu21d/htu21d.c ****         HAL_GPIO_Init(HTU21D_SDA_GPIO_Port, &GPIO_InitStructure);
 178              		.loc 1 82 33 is_stmt 0 view .LVU79
 179 0068 0293     		str	r3, [sp, #8]
  83:user/htu21d/htu21d.c ****     }
 180              		.loc 1 83 9 is_stmt 1 view .LVU80
 181 006a FFF7FEFF 		bl	HAL_GPIO_Init
 182              	.LVL9:
  83:user/htu21d/htu21d.c ****     }
 183              		.loc 1 83 9 is_stmt 0 view .LVU81
 184              	.LBE62:
 185              	.LBE63:
 177:user/htu21d/htu21d.c ****     temp = 200;
 186              		.loc 1 177 5 is_stmt 1 view .LVU82
 178:user/htu21d/htu21d.c ****     while (--temp) {
 187              		.loc 1 178 5 view .LVU83
 179:user/htu21d/htu21d.c ****         DelayUs(HTU21D_I2C_DELAY);
 188              		.loc 1 179 5 view .LVU84
 179:user/htu21d/htu21d.c ****         DelayUs(HTU21D_I2C_DELAY);
 189              		.loc 1 179 11 view .LVU85
 179:user/htu21d/htu21d.c ****         DelayUs(HTU21D_I2C_DELAY);
 190              		.loc 1 179 11 is_stmt 0 view .LVU86
 191 006e 02E0     		b	.L7
 192              	.LVL10:
 193              	.L19:
 179:user/htu21d/htu21d.c ****         DelayUs(HTU21D_I2C_DELAY);
 194              		.loc 1 179 11 view .LVU87
 195 0070 13F0FF04 		ands	r4, r3, #255
 196 0074 19D0     		beq	.L18
 197              	.L7:
 180:user/htu21d/htu21d.c ****         if (HAL_GPIO_ReadPin(HTU21D_SDA_GPIO_Port, HTU21D_SDA_Pin) == GPIO_PIN_RESET) {
 198              		.loc 1 180 9 is_stmt 1 view .LVU88
 199              	.LVL11:
  65:user/htu21d/htu21d.c **** 
 200              		.loc 1 65 5 view .LVU89
  67:user/htu21d/htu21d.c **** }
 201              		.loc 1 67 5 view .LVU90
  67:user/htu21d/htu21d.c **** }
 202              		.loc 1 67 20 view .LVU91
  67:user/htu21d/htu21d.c **** }
 203              		.loc 1 67 11 view .LVU92
 204              		.loc 1 181 9 view .LVU93
 205              		.loc 1 181 13 is_stmt 0 view .LVU94
 206 0076 8021     		movs	r1, #128
 207 0078 2846     		mov	r0, r5
 208 007a FFF7FEFF 		bl	HAL_GPIO_ReadPin
 209              	.LVL12:
 179:user/htu21d/htu21d.c ****         DelayUs(HTU21D_I2C_DELAY);
 210              		.loc 1 179 11 is_stmt 1 view .LVU95
 211 007e 631E     		subs	r3, r4, #1
 212              		.loc 1 181 12 is_stmt 0 view .LVU96
 213 0080 0028     		cmp	r0, #0
 214 0082 F5D1     		bne	.L19
 215              	.LVL13:
 182:user/htu21d/htu21d.c ****             ack = 1;
 183:user/htu21d/htu21d.c ****             break;
ARM GAS  C:\Users\WENHUA~1\AppData\Local\Temp\ccnJErvg.s 			page 9


 184:user/htu21d/htu21d.c ****         }
 185:user/htu21d/htu21d.c ****     }
 186:user/htu21d/htu21d.c ****     HTU21D_SDAOUT();
 216              		.loc 1 186 5 is_stmt 1 view .LVU97
 217              		.loc 1 186 5 view .LVU98
 218              	.LBB64:
 219              	.LBI64:
  70:user/htu21d/htu21d.c **** {
 220              		.loc 1 70 13 view .LVU99
 221              	.LBB65:
  72:user/htu21d/htu21d.c **** 
 222              		.loc 1 72 5 view .LVU100
  74:user/htu21d/htu21d.c ****         GPIO_InitStructure.Pin = HTU21D_SDA_Pin;
 223              		.loc 1 74 5 view .LVU101
 224              	.LBB66:
 225              	.LBI66:
  70:user/htu21d/htu21d.c **** {
 226              		.loc 1 70 13 view .LVU102
 227              	.LBB67:
  75:user/htu21d/htu21d.c ****         GPIO_InitStructure.Mode = GPIO_MODE_OUTPUT_OD;
 228              		.loc 1 75 9 view .LVU103
  76:user/htu21d/htu21d.c ****         GPIO_InitStructure.Speed = GPIO_SPEED_FREQ_LOW;
 229              		.loc 1 76 9 view .LVU104
  75:user/htu21d/htu21d.c ****         GPIO_InitStructure.Mode = GPIO_MODE_OUTPUT_OD;
 230              		.loc 1 75 32 is_stmt 0 view .LVU105
 231 0084 8026     		movs	r6, #128
 232 0086 1127     		movs	r7, #17
  77:user/htu21d/htu21d.c ****         HAL_GPIO_Init(HTU21D_SDA_GPIO_Port, &GPIO_InitStructure);
 233              		.loc 1 77 34 view .LVU106
 234 0088 0223     		movs	r3, #2
  78:user/htu21d/htu21d.c ****     } else {
 235              		.loc 1 78 9 view .LVU107
 236 008a 6946     		mov	r1, sp
 237 008c 0C48     		ldr	r0, .L20
 238              	.LBE67:
 239              	.LBE66:
 240              	.LBE65:
 241              	.LBE64:
 182:user/htu21d/htu21d.c ****             break;
 242              		.loc 1 182 17 view .LVU108
 243 008e 0124     		movs	r4, #1
 244              	.LBB74:
 245              	.LBB72:
 246              	.LBB70:
 247              	.LBB68:
  75:user/htu21d/htu21d.c ****         GPIO_InitStructure.Mode = GPIO_MODE_OUTPUT_OD;
 248              		.loc 1 75 32 view .LVU109
 249 0090 CDE90067 		strd	r6, [sp]
  77:user/htu21d/htu21d.c ****         HAL_GPIO_Init(HTU21D_SDA_GPIO_Port, &GPIO_InitStructure);
 250              		.loc 1 77 9 is_stmt 1 view .LVU110
  77:user/htu21d/htu21d.c ****         HAL_GPIO_Init(HTU21D_SDA_GPIO_Port, &GPIO_InitStructure);
 251              		.loc 1 77 34 is_stmt 0 view .LVU111
 252 0094 0393     		str	r3, [sp, #12]
  78:user/htu21d/htu21d.c ****     } else {
 253              		.loc 1 78 9 is_stmt 1 view .LVU112
 254 0096 FFF7FEFF 		bl	HAL_GPIO_Init
 255              	.LVL14:
ARM GAS  C:\Users\WENHUA~1\AppData\Local\Temp\ccnJErvg.s 			page 10


  78:user/htu21d/htu21d.c ****     } else {
 256              		.loc 1 78 9 is_stmt 0 view .LVU113
 257              	.LBE68:
 258              	.LBE70:
 259              	.LBE72:
 260              	.LBE74:
 261              		.loc 1 186 5 is_stmt 1 view .LVU114
 187:user/htu21d/htu21d.c **** 
 188:user/htu21d/htu21d.c ****     if (temp == 0) {
 262              		.loc 1 188 5 view .LVU115
 263              	.L9:
 189:user/htu21d/htu21d.c ****         ack = 0;
 190:user/htu21d/htu21d.c ****     }
 191:user/htu21d/htu21d.c **** 
 192:user/htu21d/htu21d.c ****     HTU21D_SCL_LOW();
 264              		.loc 1 192 5 view .LVU116
 265              		.loc 1 192 5 view .LVU117
 266 009a 0022     		movs	r2, #0
 267 009c 4021     		movs	r1, #64
 268 009e 0848     		ldr	r0, .L20
 269 00a0 FFF7FEFF 		bl	HAL_GPIO_WritePin
 270              	.LVL15:
 271              		.loc 1 192 5 view .LVU118
 193:user/htu21d/htu21d.c ****     DelayUs(HTU21D_I2C_DELAY);
 272              		.loc 1 193 5 view .LVU119
  65:user/htu21d/htu21d.c **** 
 273              		.loc 1 65 5 view .LVU120
  67:user/htu21d/htu21d.c **** }
 274              		.loc 1 67 5 view .LVU121
  67:user/htu21d/htu21d.c **** }
 275              		.loc 1 67 20 view .LVU122
  67:user/htu21d/htu21d.c **** }
 276              		.loc 1 67 11 view .LVU123
 194:user/htu21d/htu21d.c **** 
 195:user/htu21d/htu21d.c ****     return ack;
 277              		.loc 1 195 5 view .LVU124
 196:user/htu21d/htu21d.c **** }
 278              		.loc 1 196 1 is_stmt 0 view .LVU125
 279 00a4 2046     		mov	r0, r4
 280 00a6 05B0     		add	sp, sp, #20
 281              	.LCFI2:
 282              		.cfi_remember_state
 283              		.cfi_def_cfa_offset 20
 284              		@ sp needed
 285 00a8 F0BD     		pop	{r4, r5, r6, r7, pc}
 286              	.LVL16:
 287              	.L18:
 288              	.LCFI3:
 289              		.cfi_restore_state
 186:user/htu21d/htu21d.c **** 
 290              		.loc 1 186 5 is_stmt 1 view .LVU126
 186:user/htu21d/htu21d.c **** 
 291              		.loc 1 186 5 view .LVU127
 292              	.LBB75:
  70:user/htu21d/htu21d.c **** {
 293              		.loc 1 70 13 view .LVU128
 294              	.LBB73:
ARM GAS  C:\Users\WENHUA~1\AppData\Local\Temp\ccnJErvg.s 			page 11


  72:user/htu21d/htu21d.c **** 
 295              		.loc 1 72 5 view .LVU129
  74:user/htu21d/htu21d.c ****         GPIO_InitStructure.Pin = HTU21D_SDA_Pin;
 296              		.loc 1 74 5 view .LVU130
 297              	.LBB71:
  70:user/htu21d/htu21d.c **** {
 298              		.loc 1 70 13 view .LVU131
 299              	.LBB69:
  75:user/htu21d/htu21d.c ****         GPIO_InitStructure.Mode = GPIO_MODE_OUTPUT_OD;
 300              		.loc 1 75 9 view .LVU132
  76:user/htu21d/htu21d.c ****         GPIO_InitStructure.Speed = GPIO_SPEED_FREQ_LOW;
 301              		.loc 1 76 9 view .LVU133
  75:user/htu21d/htu21d.c ****         GPIO_InitStructure.Mode = GPIO_MODE_OUTPUT_OD;
 302              		.loc 1 75 32 is_stmt 0 view .LVU134
 303 00aa 8026     		movs	r6, #128
 304 00ac 1127     		movs	r7, #17
  77:user/htu21d/htu21d.c ****         HAL_GPIO_Init(HTU21D_SDA_GPIO_Port, &GPIO_InitStructure);
 305              		.loc 1 77 34 view .LVU135
 306 00ae 0223     		movs	r3, #2
  78:user/htu21d/htu21d.c ****     } else {
 307              		.loc 1 78 9 view .LVU136
 308 00b0 6946     		mov	r1, sp
 309 00b2 0348     		ldr	r0, .L20
  75:user/htu21d/htu21d.c ****         GPIO_InitStructure.Mode = GPIO_MODE_OUTPUT_OD;
 310              		.loc 1 75 32 view .LVU137
 311 00b4 CDE90067 		strd	r6, [sp]
  77:user/htu21d/htu21d.c ****         HAL_GPIO_Init(HTU21D_SDA_GPIO_Port, &GPIO_InitStructure);
 312              		.loc 1 77 9 is_stmt 1 view .LVU138
  77:user/htu21d/htu21d.c ****         HAL_GPIO_Init(HTU21D_SDA_GPIO_Port, &GPIO_InitStructure);
 313              		.loc 1 77 34 is_stmt 0 view .LVU139
 314 00b8 0393     		str	r3, [sp, #12]
  78:user/htu21d/htu21d.c ****     } else {
 315              		.loc 1 78 9 is_stmt 1 view .LVU140
 316 00ba FFF7FEFF 		bl	HAL_GPIO_Init
 317              	.LVL17:
  78:user/htu21d/htu21d.c ****     } else {
 318              		.loc 1 78 9 is_stmt 0 view .LVU141
 319              	.LBE69:
 320              	.LBE71:
 321              	.LBE73:
 322              	.LBE75:
 186:user/htu21d/htu21d.c **** 
 323              		.loc 1 186 5 is_stmt 1 view .LVU142
 188:user/htu21d/htu21d.c ****         ack = 0;
 324              		.loc 1 188 5 view .LVU143
 325 00be ECE7     		b	.L9
 326              	.L21:
 327              		.align	2
 328              	.L20:
 329 00c0 000C0140 		.word	1073810432
 330              		.cfi_endproc
 331              	.LFE75:
 333              		.global	__aeabi_i2d
 334              		.global	__aeabi_dmul
 335              		.global	__aeabi_dsub
 336              		.global	__aeabi_d2f
 337              		.global	__aeabi_f2uiz
ARM GAS  C:\Users\WENHUA~1\AppData\Local\Temp\ccnJErvg.s 			page 12


 338              		.global	__aeabi_f2iz
 339              		.section	.rodata.HTU21D_GetData.isra.0.str1.4,"aMS",%progbits,1
 340              		.align	2
 341              	.LC0:
 342 0000 0D0A4875 		.ascii	"\015\012Humi: %d \015\012\000"
 342      6D693A20 
 342      2564200D 
 342      0A00
 343 000e 0000     		.align	2
 344              	.LC1:
 345 0010 54656D70 		.ascii	"Temp: %d \015\012\000"
 345      3A202564 
 345      200D0A00 
 346              		.align	2
 347              	.LC2:
 348 001c 0D0A7465 		.ascii	"\015\012temperature read fail. \015\012\000"
 348      6D706572 
 348      61747572 
 348      65207265 
 348      61642066 
 349              		.section	.text.HTU21D_GetData.isra.0,"ax",%progbits
 350              		.align	1
 351              		.p2align 2,,3
 352              		.syntax unified
 353              		.thumb
 354              		.thumb_func
 356              	HTU21D_GetData.isra.0:
 357              	.LFB86:
 197:user/htu21d/htu21d.c **** 
 198:user/htu21d/htu21d.c **** static uint8_t ReadByte(void)
 199:user/htu21d/htu21d.c **** {
 200:user/htu21d/htu21d.c ****     uint8_t value = 0;
 201:user/htu21d/htu21d.c ****     uint8_t i;
 202:user/htu21d/htu21d.c **** 
 203:user/htu21d/htu21d.c ****     HTU21D_SDAIN();
 204:user/htu21d/htu21d.c ****     for (i = 0; i < 8; i++) {
 205:user/htu21d/htu21d.c ****         HTU21D_SCL_HIGH();
 206:user/htu21d/htu21d.c ****         DelayUs(HTU21D_I2C_DELAY);
 207:user/htu21d/htu21d.c ****         value <<= 1;
 208:user/htu21d/htu21d.c ****         if (HAL_GPIO_ReadPin(HTU21D_SDA_GPIO_Port, HTU21D_SDA_Pin) == GPIO_PIN_SET) {
 209:user/htu21d/htu21d.c ****             value += 1;
 210:user/htu21d/htu21d.c ****         }
 211:user/htu21d/htu21d.c ****         HTU21D_SCL_LOW();
 212:user/htu21d/htu21d.c ****     }
 213:user/htu21d/htu21d.c ****     HTU21D_SDAOUT();
 214:user/htu21d/htu21d.c **** 
 215:user/htu21d/htu21d.c ****     return value;
 216:user/htu21d/htu21d.c **** }
 217:user/htu21d/htu21d.c **** 
 218:user/htu21d/htu21d.c **** static uint8_t HTU21D_GetData(void)
 358              		.loc 1 218 16 view -0
 359              		.cfi_startproc
 360              		@ args = 0, pretend = 0, frame = 16
 361              		@ frame_needed = 0, uses_anonymous_args = 0
 219:user/htu21d/htu21d.c **** {
 220:user/htu21d/htu21d.c ****     uint16_t htu_data;
 362              		.loc 1 220 5 view .LVU145
ARM GAS  C:\Users\WENHUA~1\AppData\Local\Temp\ccnJErvg.s 			page 13


 221:user/htu21d/htu21d.c ****     float htu;
 363              		.loc 1 221 5 view .LVU146
 222:user/htu21d/htu21d.c ****     uint16_t temp_data;
 364              		.loc 1 222 5 view .LVU147
 223:user/htu21d/htu21d.c ****     float temp;
 365              		.loc 1 223 5 view .LVU148
 224:user/htu21d/htu21d.c ****     uint8_t status;
 366              		.loc 1 224 5 view .LVU149
 225:user/htu21d/htu21d.c **** 
 226:user/htu21d/htu21d.c ****     StartBus();
 367              		.loc 1 226 5 view .LVU150
 368              	.LBB128:
 369              	.LBI128:
  87:user/htu21d/htu21d.c **** {
 370              		.loc 1 87 13 view .LVU151
 371              	.LBB129:
  89:user/htu21d/htu21d.c ****     DelayUs(HTU21D_I2C_DELAY);
 372              		.loc 1 89 5 view .LVU152
  89:user/htu21d/htu21d.c ****     DelayUs(HTU21D_I2C_DELAY);
 373              		.loc 1 89 5 view .LVU153
 374              	.LBE129:
 375              	.LBE128:
 218:user/htu21d/htu21d.c **** {
 376              		.loc 1 218 16 is_stmt 0 view .LVU154
 377 0000 2DE9F043 		push	{r4, r5, r6, r7, r8, r9, lr}
 378              	.LCFI4:
 379              		.cfi_def_cfa_offset 28
 380              		.cfi_offset 4, -28
 381              		.cfi_offset 5, -24
 382              		.cfi_offset 6, -20
 383              		.cfi_offset 7, -16
 384              		.cfi_offset 8, -12
 385              		.cfi_offset 9, -8
 386              		.cfi_offset 14, -4
 387              	.LBB135:
 388              	.LBB130:
  89:user/htu21d/htu21d.c ****     DelayUs(HTU21D_I2C_DELAY);
 389              		.loc 1 89 5 view .LVU155
 390 0004 0122     		movs	r2, #1
 391              	.LBE130:
 392              	.LBE135:
 218:user/htu21d/htu21d.c **** {
 393              		.loc 1 218 16 view .LVU156
 394 0006 87B0     		sub	sp, sp, #28
 395              	.LCFI5:
 396              		.cfi_def_cfa_offset 56
 397              	.LBB136:
 398              	.LBB131:
  89:user/htu21d/htu21d.c ****     DelayUs(HTU21D_I2C_DELAY);
 399              		.loc 1 89 5 view .LVU157
 400 0008 8021     		movs	r1, #128
 401 000a 1248     		ldr	r0, .L58
 402 000c FFF7FEFF 		bl	HAL_GPIO_WritePin
 403              	.LVL18:
  89:user/htu21d/htu21d.c ****     DelayUs(HTU21D_I2C_DELAY);
 404              		.loc 1 89 5 is_stmt 1 view .LVU158
  90:user/htu21d/htu21d.c ****     HTU21D_SCL_HIGH();
ARM GAS  C:\Users\WENHUA~1\AppData\Local\Temp\ccnJErvg.s 			page 14


 405              		.loc 1 90 5 view .LVU159
  90:user/htu21d/htu21d.c ****     HTU21D_SCL_HIGH();
 406              		.loc 1 90 5 is_stmt 0 view .LVU160
 407              	.LBE131:
 408              	.LBE136:
  65:user/htu21d/htu21d.c **** 
 409              		.loc 1 65 5 is_stmt 1 view .LVU161
  67:user/htu21d/htu21d.c **** }
 410              		.loc 1 67 5 view .LVU162
  67:user/htu21d/htu21d.c **** }
 411              		.loc 1 67 20 view .LVU163
  67:user/htu21d/htu21d.c **** }
 412              		.loc 1 67 11 view .LVU164
 413              	.LBB137:
 414              	.LBB132:
  91:user/htu21d/htu21d.c ****     DelayUs(HTU21D_I2C_DELAY);
 415              		.loc 1 91 5 view .LVU165
  91:user/htu21d/htu21d.c ****     DelayUs(HTU21D_I2C_DELAY);
 416              		.loc 1 91 5 view .LVU166
 417 0010 0122     		movs	r2, #1
 418 0012 4021     		movs	r1, #64
 419 0014 0F48     		ldr	r0, .L58
 420 0016 FFF7FEFF 		bl	HAL_GPIO_WritePin
 421              	.LVL19:
  91:user/htu21d/htu21d.c ****     DelayUs(HTU21D_I2C_DELAY);
 422              		.loc 1 91 5 view .LVU167
  92:user/htu21d/htu21d.c ****     HTU21D_SDA_LOW();
 423              		.loc 1 92 5 view .LVU168
  92:user/htu21d/htu21d.c ****     HTU21D_SDA_LOW();
 424              		.loc 1 92 5 is_stmt 0 view .LVU169
 425              	.LBE132:
 426              	.LBE137:
  65:user/htu21d/htu21d.c **** 
 427              		.loc 1 65 5 is_stmt 1 view .LVU170
  67:user/htu21d/htu21d.c **** }
 428              		.loc 1 67 5 view .LVU171
  67:user/htu21d/htu21d.c **** }
 429              		.loc 1 67 20 view .LVU172
  67:user/htu21d/htu21d.c **** }
 430              		.loc 1 67 11 view .LVU173
 431              	.LBB138:
 432              	.LBB133:
  93:user/htu21d/htu21d.c ****     DelayUs(HTU21D_I2C_DELAY);
 433              		.loc 1 93 5 view .LVU174
  93:user/htu21d/htu21d.c ****     DelayUs(HTU21D_I2C_DELAY);
 434              		.loc 1 93 5 view .LVU175
 435 001a 0022     		movs	r2, #0
 436 001c 8021     		movs	r1, #128
 437 001e 0D48     		ldr	r0, .L58
 438 0020 FFF7FEFF 		bl	HAL_GPIO_WritePin
 439              	.LVL20:
  93:user/htu21d/htu21d.c ****     DelayUs(HTU21D_I2C_DELAY);
 440              		.loc 1 93 5 view .LVU176
  94:user/htu21d/htu21d.c ****     HTU21D_SCL_LOW();
 441              		.loc 1 94 5 view .LVU177
  94:user/htu21d/htu21d.c ****     HTU21D_SCL_LOW();
 442              		.loc 1 94 5 is_stmt 0 view .LVU178
ARM GAS  C:\Users\WENHUA~1\AppData\Local\Temp\ccnJErvg.s 			page 15


 443              	.LBE133:
 444              	.LBE138:
  65:user/htu21d/htu21d.c **** 
 445              		.loc 1 65 5 is_stmt 1 view .LVU179
  67:user/htu21d/htu21d.c **** }
 446              		.loc 1 67 5 view .LVU180
  67:user/htu21d/htu21d.c **** }
 447              		.loc 1 67 20 view .LVU181
  67:user/htu21d/htu21d.c **** }
 448              		.loc 1 67 11 view .LVU182
 449              	.LBB139:
 450              	.LBB134:
  95:user/htu21d/htu21d.c ****     DelayUs(HTU21D_I2C_DELAY);
 451              		.loc 1 95 5 view .LVU183
  95:user/htu21d/htu21d.c ****     DelayUs(HTU21D_I2C_DELAY);
 452              		.loc 1 95 5 view .LVU184
 453 0024 0B48     		ldr	r0, .L58
 454 0026 0022     		movs	r2, #0
 455 0028 4021     		movs	r1, #64
 456 002a FFF7FEFF 		bl	HAL_GPIO_WritePin
 457              	.LVL21:
  95:user/htu21d/htu21d.c ****     DelayUs(HTU21D_I2C_DELAY);
 458              		.loc 1 95 5 view .LVU185
  96:user/htu21d/htu21d.c **** }
 459              		.loc 1 96 5 view .LVU186
  96:user/htu21d/htu21d.c **** }
 460              		.loc 1 96 5 is_stmt 0 view .LVU187
 461              	.LBE134:
 462              	.LBE139:
  65:user/htu21d/htu21d.c **** 
 463              		.loc 1 65 5 is_stmt 1 view .LVU188
  67:user/htu21d/htu21d.c **** }
 464              		.loc 1 67 5 view .LVU189
  67:user/htu21d/htu21d.c **** }
 465              		.loc 1 67 20 view .LVU190
  67:user/htu21d/htu21d.c **** }
 466              		.loc 1 67 11 view .LVU191
 227:user/htu21d/htu21d.c ****     status = WriteByte(DEVICE_ADDR | WRITE);
 467              		.loc 1 227 5 view .LVU192
 468              		.loc 1 227 14 is_stmt 0 view .LVU193
 469 002e 8020     		movs	r0, #128
 470 0030 FFF7FEFF 		bl	WriteByte
 471              	.LVL22:
 228:user/htu21d/htu21d.c ****     if (status == 0) {
 472              		.loc 1 228 5 is_stmt 1 view .LVU194
 473              		.loc 1 228 8 is_stmt 0 view .LVU195
 474 0034 B0B9     		cbnz	r0, .L52
 475              	.L57:
 476              		.loc 1 228 8 view .LVU196
 477 0036 084E     		ldr	r6, .L58+4
 478              	.L23:
 479              	.LDL1:
 229:user/htu21d/htu21d.c ****         goto i2c_fail;
 230:user/htu21d/htu21d.c ****     }
 231:user/htu21d/htu21d.c **** 
 232:user/htu21d/htu21d.c ****     status = WriteByte(HUM_HOLD);
 233:user/htu21d/htu21d.c ****     if (status == 0) {
ARM GAS  C:\Users\WENHUA~1\AppData\Local\Temp\ccnJErvg.s 			page 16


 234:user/htu21d/htu21d.c ****         goto i2c_fail;
 235:user/htu21d/htu21d.c ****     }
 236:user/htu21d/htu21d.c **** 
 237:user/htu21d/htu21d.c ****     StartBus();
 238:user/htu21d/htu21d.c ****     status = WriteByte(DEVICE_ADDR | READ);
 239:user/htu21d/htu21d.c ****     if (status == 0) {
 240:user/htu21d/htu21d.c ****         goto i2c_fail;
 241:user/htu21d/htu21d.c ****     }
 242:user/htu21d/htu21d.c **** 
 243:user/htu21d/htu21d.c ****     HAL_Delay(20);
 244:user/htu21d/htu21d.c ****     htu_data = ReadByte();
 245:user/htu21d/htu21d.c ****     htu_data = htu_data << 8;
 246:user/htu21d/htu21d.c ****     AckBus();
 247:user/htu21d/htu21d.c ****     htu_data += ReadByte();
 248:user/htu21d/htu21d.c ****     NoAckBus();
 249:user/htu21d/htu21d.c ****     StopBus();
 250:user/htu21d/htu21d.c ****     htu = ((htu_data & 0xfffc) / 65536.0 * 125.0 - 6.0);
 251:user/htu21d/htu21d.c ****     g_thData.humidity = (uint16_t)htu * 10;
 252:user/htu21d/htu21d.c **** 
 253:user/htu21d/htu21d.c ****     HAL_Delay(10);
 254:user/htu21d/htu21d.c **** 
 255:user/htu21d/htu21d.c ****     StartBus();
 256:user/htu21d/htu21d.c ****     status = WriteByte(DEVICE_ADDR | WRITE);
 257:user/htu21d/htu21d.c ****     if (status == 0) {
 258:user/htu21d/htu21d.c ****         goto i2c_fail;
 259:user/htu21d/htu21d.c ****     }
 260:user/htu21d/htu21d.c **** 
 261:user/htu21d/htu21d.c ****     status = WriteByte(TEM_HOLD);
 262:user/htu21d/htu21d.c ****     if (status == 0) {
 263:user/htu21d/htu21d.c ****         goto i2c_fail;
 264:user/htu21d/htu21d.c ****     }
 265:user/htu21d/htu21d.c **** 
 266:user/htu21d/htu21d.c ****     StartBus();
 267:user/htu21d/htu21d.c ****     status = WriteByte(DEVICE_ADDR | READ);
 268:user/htu21d/htu21d.c ****     if (status == 0) {
 269:user/htu21d/htu21d.c ****         goto i2c_fail;
 270:user/htu21d/htu21d.c ****     }
 271:user/htu21d/htu21d.c **** 
 272:user/htu21d/htu21d.c ****     HAL_Delay(60); /* must 58ms the above */
 273:user/htu21d/htu21d.c ****     temp_data = ReadByte();
 274:user/htu21d/htu21d.c ****     temp_data = temp_data << 8;
 275:user/htu21d/htu21d.c ****     AckBus();
 276:user/htu21d/htu21d.c ****     temp_data += ReadByte();
 277:user/htu21d/htu21d.c ****     NoAckBus();
 278:user/htu21d/htu21d.c ****     StopBus();
 279:user/htu21d/htu21d.c ****     temp = ((temp_data & 0xfffc) / 65536.0 * 175.72 - 46.85) * 10;
 280:user/htu21d/htu21d.c ****     g_thData.temperature = (int16_t)temp;
 281:user/htu21d/htu21d.c **** 
 282:user/htu21d/htu21d.c ****     TRACE_PRINTF("\r\nHumi: %d \r\n", g_thData.humidity);
 283:user/htu21d/htu21d.c ****     TRACE_PRINTF("Temp: %d \r\n", g_thData.temperature);
 284:user/htu21d/htu21d.c ****     g_i2cFial = 0;
 285:user/htu21d/htu21d.c ****     return true;
 286:user/htu21d/htu21d.c **** 
 287:user/htu21d/htu21d.c **** i2c_fail:
 288:user/htu21d/htu21d.c ****     g_thData.temperature = 0x00;
 480              		.loc 1 288 5 is_stmt 1 view .LVU197
 289:user/htu21d/htu21d.c ****     g_thData.humidity = 0x00;
ARM GAS  C:\Users\WENHUA~1\AppData\Local\Temp\ccnJErvg.s 			page 17


 481              		.loc 1 289 5 view .LVU198
 288:user/htu21d/htu21d.c ****     g_thData.humidity = 0x00;
 482              		.loc 1 288 26 is_stmt 0 view .LVU199
 483 0038 0022     		movs	r2, #0
 290:user/htu21d/htu21d.c ****     TRACE_PRINTF("\r\ntemperature read fail. \r\n");
 484              		.loc 1 290 5 view .LVU200
 485 003a 084B     		ldr	r3, .L58+8
 486 003c 1146     		mov	r1, r2
 487 003e 1046     		mov	r0, r2
 488              	.LVL23:
 288:user/htu21d/htu21d.c ****     g_thData.humidity = 0x00;
 489              		.loc 1 288 26 view .LVU201
 490 0040 3260     		str	r2, [r6]
 491              		.loc 1 290 5 is_stmt 1 view .LVU202
 492              		.loc 1 290 5 view .LVU203
 493 0042 FFF7FEFF 		bl	TRACE_COND_FSend
 494              	.LVL24:
 495              		.loc 1 290 5 view .LVU204
 291:user/htu21d/htu21d.c ****     g_i2cFial = 1;
 496              		.loc 1 291 5 view .LVU205
 497              		.loc 1 291 15 is_stmt 0 view .LVU206
 498 0046 0122     		movs	r2, #1
 499 0048 054B     		ldr	r3, .L58+12
 500 004a 1A70     		strb	r2, [r3]
 292:user/htu21d/htu21d.c ****     return false;
 501              		.loc 1 292 5 is_stmt 1 view .LVU207
 502              	.L22:
 293:user/htu21d/htu21d.c **** }
 503              		.loc 1 293 1 is_stmt 0 view .LVU208
 504 004c 07B0     		add	sp, sp, #28
 505              	.LCFI6:
 506              		.cfi_remember_state
 507              		.cfi_def_cfa_offset 28
 508              		@ sp needed
 509 004e BDE8F083 		pop	{r4, r5, r6, r7, r8, r9, pc}
 510              	.L59:
 511 0052 00BF     		.align	2
 512              	.L58:
 513 0054 000C0140 		.word	1073810432
 514 0058 00000000 		.word	.LANCHOR0
 515 005c 1C000000 		.word	.LC2
 516 0060 00000000 		.word	.LANCHOR1
 517              	.LVL25:
 518              	.L52:
 519              	.LCFI7:
 520              		.cfi_restore_state
 232:user/htu21d/htu21d.c ****     if (status == 0) {
 521              		.loc 1 232 5 is_stmt 1 view .LVU209
 232:user/htu21d/htu21d.c ****     if (status == 0) {
 522              		.loc 1 232 14 is_stmt 0 view .LVU210
 523 0064 E520     		movs	r0, #229
 524              	.LVL26:
 232:user/htu21d/htu21d.c ****     if (status == 0) {
 525              		.loc 1 232 14 view .LVU211
 526 0066 FFF7FEFF 		bl	WriteByte
 527              	.LVL27:
 233:user/htu21d/htu21d.c ****         goto i2c_fail;
ARM GAS  C:\Users\WENHUA~1\AppData\Local\Temp\ccnJErvg.s 			page 18


 528              		.loc 1 233 5 is_stmt 1 view .LVU212
 233:user/htu21d/htu21d.c ****         goto i2c_fail;
 529              		.loc 1 233 8 is_stmt 0 view .LVU213
 530 006a 0028     		cmp	r0, #0
 531 006c E3D0     		beq	.L57
 237:user/htu21d/htu21d.c ****     status = WriteByte(DEVICE_ADDR | READ);
 532              		.loc 1 237 5 is_stmt 1 view .LVU214
 533              	.LBB140:
 534              	.LBI140:
  87:user/htu21d/htu21d.c **** {
 535              		.loc 1 87 13 view .LVU215
 536              	.LBB141:
  89:user/htu21d/htu21d.c ****     DelayUs(HTU21D_I2C_DELAY);
 537              		.loc 1 89 5 view .LVU216
  89:user/htu21d/htu21d.c ****     DelayUs(HTU21D_I2C_DELAY);
 538              		.loc 1 89 5 view .LVU217
 539 006e 0122     		movs	r2, #1
 540 0070 8021     		movs	r1, #128
 541 0072 CD48     		ldr	r0, .L60
 542              	.LVL28:
  89:user/htu21d/htu21d.c ****     DelayUs(HTU21D_I2C_DELAY);
 543              		.loc 1 89 5 is_stmt 0 view .LVU218
 544 0074 FFF7FEFF 		bl	HAL_GPIO_WritePin
 545              	.LVL29:
  89:user/htu21d/htu21d.c ****     DelayUs(HTU21D_I2C_DELAY);
 546              		.loc 1 89 5 is_stmt 1 view .LVU219
  90:user/htu21d/htu21d.c ****     HTU21D_SCL_HIGH();
 547              		.loc 1 90 5 view .LVU220
  90:user/htu21d/htu21d.c ****     HTU21D_SCL_HIGH();
 548              		.loc 1 90 5 is_stmt 0 view .LVU221
 549              	.LBE141:
 550              	.LBE140:
  65:user/htu21d/htu21d.c **** 
 551              		.loc 1 65 5 is_stmt 1 view .LVU222
  67:user/htu21d/htu21d.c **** }
 552              		.loc 1 67 5 view .LVU223
  67:user/htu21d/htu21d.c **** }
 553              		.loc 1 67 20 view .LVU224
  67:user/htu21d/htu21d.c **** }
 554              		.loc 1 67 11 view .LVU225
 555              	.LBB145:
 556              	.LBB142:
  91:user/htu21d/htu21d.c ****     DelayUs(HTU21D_I2C_DELAY);
 557              		.loc 1 91 5 view .LVU226
  91:user/htu21d/htu21d.c ****     DelayUs(HTU21D_I2C_DELAY);
 558              		.loc 1 91 5 view .LVU227
 559 0078 0122     		movs	r2, #1
 560 007a 4021     		movs	r1, #64
 561 007c CA48     		ldr	r0, .L60
 562 007e FFF7FEFF 		bl	HAL_GPIO_WritePin
 563              	.LVL30:
  91:user/htu21d/htu21d.c ****     DelayUs(HTU21D_I2C_DELAY);
 564              		.loc 1 91 5 view .LVU228
  92:user/htu21d/htu21d.c ****     HTU21D_SDA_LOW();
 565              		.loc 1 92 5 view .LVU229
  92:user/htu21d/htu21d.c ****     HTU21D_SDA_LOW();
 566              		.loc 1 92 5 is_stmt 0 view .LVU230
ARM GAS  C:\Users\WENHUA~1\AppData\Local\Temp\ccnJErvg.s 			page 19


 567              	.LBE142:
 568              	.LBE145:
  65:user/htu21d/htu21d.c **** 
 569              		.loc 1 65 5 is_stmt 1 view .LVU231
  67:user/htu21d/htu21d.c **** }
 570              		.loc 1 67 5 view .LVU232
  67:user/htu21d/htu21d.c **** }
 571              		.loc 1 67 20 view .LVU233
  67:user/htu21d/htu21d.c **** }
 572              		.loc 1 67 11 view .LVU234
 573              	.LBB146:
 574              	.LBB143:
  93:user/htu21d/htu21d.c ****     DelayUs(HTU21D_I2C_DELAY);
 575              		.loc 1 93 5 view .LVU235
  93:user/htu21d/htu21d.c ****     DelayUs(HTU21D_I2C_DELAY);
 576              		.loc 1 93 5 view .LVU236
 577 0082 0022     		movs	r2, #0
 578 0084 8021     		movs	r1, #128
 579 0086 C848     		ldr	r0, .L60
 580 0088 FFF7FEFF 		bl	HAL_GPIO_WritePin
 581              	.LVL31:
  93:user/htu21d/htu21d.c ****     DelayUs(HTU21D_I2C_DELAY);
 582              		.loc 1 93 5 view .LVU237
  94:user/htu21d/htu21d.c ****     HTU21D_SCL_LOW();
 583              		.loc 1 94 5 view .LVU238
  94:user/htu21d/htu21d.c ****     HTU21D_SCL_LOW();
 584              		.loc 1 94 5 is_stmt 0 view .LVU239
 585              	.LBE143:
 586              	.LBE146:
  65:user/htu21d/htu21d.c **** 
 587              		.loc 1 65 5 is_stmt 1 view .LVU240
  67:user/htu21d/htu21d.c **** }
 588              		.loc 1 67 5 view .LVU241
  67:user/htu21d/htu21d.c **** }
 589              		.loc 1 67 20 view .LVU242
  67:user/htu21d/htu21d.c **** }
 590              		.loc 1 67 11 view .LVU243
 591              	.LBB147:
 592              	.LBB144:
  95:user/htu21d/htu21d.c ****     DelayUs(HTU21D_I2C_DELAY);
 593              		.loc 1 95 5 view .LVU244
  95:user/htu21d/htu21d.c ****     DelayUs(HTU21D_I2C_DELAY);
 594              		.loc 1 95 5 view .LVU245
 595 008c C648     		ldr	r0, .L60
 596 008e 0022     		movs	r2, #0
 597 0090 4021     		movs	r1, #64
 598 0092 FFF7FEFF 		bl	HAL_GPIO_WritePin
 599              	.LVL32:
  95:user/htu21d/htu21d.c ****     DelayUs(HTU21D_I2C_DELAY);
 600              		.loc 1 95 5 view .LVU246
  96:user/htu21d/htu21d.c **** }
 601              		.loc 1 96 5 view .LVU247
  96:user/htu21d/htu21d.c **** }
 602              		.loc 1 96 5 is_stmt 0 view .LVU248
 603              	.LBE144:
 604              	.LBE147:
  65:user/htu21d/htu21d.c **** 
ARM GAS  C:\Users\WENHUA~1\AppData\Local\Temp\ccnJErvg.s 			page 20


 605              		.loc 1 65 5 is_stmt 1 view .LVU249
  67:user/htu21d/htu21d.c **** }
 606              		.loc 1 67 5 view .LVU250
  67:user/htu21d/htu21d.c **** }
 607              		.loc 1 67 20 view .LVU251
  67:user/htu21d/htu21d.c **** }
 608              		.loc 1 67 11 view .LVU252
 238:user/htu21d/htu21d.c ****     if (status == 0) {
 609              		.loc 1 238 5 view .LVU253
 238:user/htu21d/htu21d.c ****     if (status == 0) {
 610              		.loc 1 238 14 is_stmt 0 view .LVU254
 611 0096 8120     		movs	r0, #129
 612 0098 FFF7FEFF 		bl	WriteByte
 613              	.LVL33:
 239:user/htu21d/htu21d.c ****         goto i2c_fail;
 614              		.loc 1 239 5 is_stmt 1 view .LVU255
 239:user/htu21d/htu21d.c ****         goto i2c_fail;
 615              		.loc 1 239 8 is_stmt 0 view .LVU256
 616 009c 0028     		cmp	r0, #0
 617 009e CAD0     		beq	.L57
 243:user/htu21d/htu21d.c ****     htu_data = ReadByte();
 618              		.loc 1 243 5 is_stmt 1 view .LVU257
 619 00a0 1420     		movs	r0, #20
 620              	.LVL34:
 243:user/htu21d/htu21d.c ****     htu_data = ReadByte();
 621              		.loc 1 243 5 is_stmt 0 view .LVU258
 622 00a2 FFF7FEFF 		bl	HAL_Delay
 623              	.LVL35:
 244:user/htu21d/htu21d.c ****     htu_data = htu_data << 8;
 624              		.loc 1 244 5 is_stmt 1 view .LVU259
 625              	.LBB148:
 626              	.LBI148:
 198:user/htu21d/htu21d.c **** {
 627              		.loc 1 198 16 view .LVU260
 628              	.LBB149:
 200:user/htu21d/htu21d.c ****     uint8_t i;
 629              		.loc 1 200 5 view .LVU261
 201:user/htu21d/htu21d.c **** 
 630              		.loc 1 201 5 view .LVU262
 203:user/htu21d/htu21d.c ****     for (i = 0; i < 8; i++) {
 631              		.loc 1 203 5 view .LVU263
 203:user/htu21d/htu21d.c ****     for (i = 0; i < 8; i++) {
 632              		.loc 1 203 5 view .LVU264
 633              	.LBB150:
 634              	.LBI150:
  70:user/htu21d/htu21d.c **** {
 635              		.loc 1 70 13 view .LVU265
 636              	.LBB151:
  72:user/htu21d/htu21d.c **** 
 637              		.loc 1 72 5 view .LVU266
  74:user/htu21d/htu21d.c ****         GPIO_InitStructure.Pin = HTU21D_SDA_Pin;
 638              		.loc 1 74 5 view .LVU267
  80:user/htu21d/htu21d.c ****         GPIO_InitStructure.Mode = GPIO_MODE_INPUT;
 639              		.loc 1 80 9 view .LVU268
  81:user/htu21d/htu21d.c ****         GPIO_InitStructure.Pull = GPIO_PULLUP;
 640              		.loc 1 81 9 view .LVU269
  80:user/htu21d/htu21d.c ****         GPIO_InitStructure.Mode = GPIO_MODE_INPUT;
ARM GAS  C:\Users\WENHUA~1\AppData\Local\Temp\ccnJErvg.s 			page 21


 641              		.loc 1 80 32 is_stmt 0 view .LVU270
 642 00a6 4FF08008 		mov	r8, #128
 643 00aa 4FF00009 		mov	r9, #0
  82:user/htu21d/htu21d.c ****         HAL_GPIO_Init(HTU21D_SDA_GPIO_Port, &GPIO_InitStructure);
 644              		.loc 1 82 33 view .LVU271
 645 00ae 0123     		movs	r3, #1
  83:user/htu21d/htu21d.c ****     }
 646              		.loc 1 83 9 view .LVU272
 647 00b0 BD48     		ldr	r0, .L60
 648 00b2 02A9     		add	r1, sp, #8
 649 00b4 0824     		movs	r4, #8
 650              	.LBE151:
 651              	.LBE150:
 200:user/htu21d/htu21d.c ****     uint8_t i;
 652              		.loc 1 200 13 view .LVU273
 653 00b6 0025     		movs	r5, #0
 205:user/htu21d/htu21d.c ****         DelayUs(HTU21D_I2C_DELAY);
 654              		.loc 1 205 9 view .LVU274
 655 00b8 0646     		mov	r6, r0
 656              	.LBB153:
 657              	.LBB152:
  80:user/htu21d/htu21d.c ****         GPIO_InitStructure.Mode = GPIO_MODE_INPUT;
 658              		.loc 1 80 32 view .LVU275
 659 00ba CDE90289 		strd	r8, [sp, #8]
  82:user/htu21d/htu21d.c ****         HAL_GPIO_Init(HTU21D_SDA_GPIO_Port, &GPIO_InitStructure);
 660              		.loc 1 82 9 is_stmt 1 view .LVU276
  82:user/htu21d/htu21d.c ****         HAL_GPIO_Init(HTU21D_SDA_GPIO_Port, &GPIO_InitStructure);
 661              		.loc 1 82 33 is_stmt 0 view .LVU277
 662 00be 0493     		str	r3, [sp, #16]
  83:user/htu21d/htu21d.c ****     }
 663              		.loc 1 83 9 is_stmt 1 view .LVU278
 664 00c0 FFF7FEFF 		bl	HAL_GPIO_Init
 665              	.LVL36:
  83:user/htu21d/htu21d.c ****     }
 666              		.loc 1 83 9 is_stmt 0 view .LVU279
 667              	.LBE152:
 668              	.LBE153:
 203:user/htu21d/htu21d.c ****     for (i = 0; i < 8; i++) {
 669              		.loc 1 203 5 is_stmt 1 view .LVU280
 204:user/htu21d/htu21d.c ****         HTU21D_SCL_HIGH();
 670              		.loc 1 204 5 view .LVU281
 204:user/htu21d/htu21d.c ****         HTU21D_SCL_HIGH();
 671              		.loc 1 204 17 view .LVU282
 672              	.L25:
 205:user/htu21d/htu21d.c ****         DelayUs(HTU21D_I2C_DELAY);
 673              		.loc 1 205 9 view .LVU283
 205:user/htu21d/htu21d.c ****         DelayUs(HTU21D_I2C_DELAY);
 674              		.loc 1 205 9 view .LVU284
 675 00c4 0122     		movs	r2, #1
 676 00c6 4021     		movs	r1, #64
 677 00c8 3046     		mov	r0, r6
 678 00ca FFF7FEFF 		bl	HAL_GPIO_WritePin
 679              	.LVL37:
 205:user/htu21d/htu21d.c ****         DelayUs(HTU21D_I2C_DELAY);
 680              		.loc 1 205 9 view .LVU285
 206:user/htu21d/htu21d.c ****         value <<= 1;
 681              		.loc 1 206 9 view .LVU286
ARM GAS  C:\Users\WENHUA~1\AppData\Local\Temp\ccnJErvg.s 			page 22


 206:user/htu21d/htu21d.c ****         value <<= 1;
 682              		.loc 1 206 9 is_stmt 0 view .LVU287
 683              	.LBE149:
 684              	.LBE148:
  65:user/htu21d/htu21d.c **** 
 685              		.loc 1 65 5 is_stmt 1 view .LVU288
  67:user/htu21d/htu21d.c **** }
 686              		.loc 1 67 5 view .LVU289
  67:user/htu21d/htu21d.c **** }
 687              		.loc 1 67 20 view .LVU290
  67:user/htu21d/htu21d.c **** }
 688              		.loc 1 67 11 view .LVU291
 689              	.LBB159:
 690              	.LBB158:
 207:user/htu21d/htu21d.c ****         if (HAL_GPIO_ReadPin(HTU21D_SDA_GPIO_Port, HTU21D_SDA_Pin) == GPIO_PIN_SET) {
 691              		.loc 1 207 9 view .LVU292
 208:user/htu21d/htu21d.c ****             value += 1;
 692              		.loc 1 208 13 is_stmt 0 view .LVU293
 693 00ce 8021     		movs	r1, #128
 694 00d0 3046     		mov	r0, r6
 695 00d2 FFF7FEFF 		bl	HAL_GPIO_ReadPin
 696              	.LVL38:
 697 00d6 0346     		mov	r3, r0
 207:user/htu21d/htu21d.c ****         if (HAL_GPIO_ReadPin(HTU21D_SDA_GPIO_Port, HTU21D_SDA_Pin) == GPIO_PIN_SET) {
 698              		.loc 1 207 15 view .LVU294
 699 00d8 6D00     		lsls	r5, r5, #1
 700              	.LVL39:
 208:user/htu21d/htu21d.c ****             value += 1;
 701              		.loc 1 208 12 view .LVU295
 702 00da 012B     		cmp	r3, #1
 207:user/htu21d/htu21d.c ****         if (HAL_GPIO_ReadPin(HTU21D_SDA_GPIO_Port, HTU21D_SDA_Pin) == GPIO_PIN_SET) {
 703              		.loc 1 207 15 view .LVU296
 704 00dc EDB2     		uxtb	r5, r5
 705              	.LVL40:
 208:user/htu21d/htu21d.c ****             value += 1;
 706              		.loc 1 208 9 is_stmt 1 view .LVU297
 209:user/htu21d/htu21d.c ****         }
 707              		.loc 1 209 13 view .LVU298
 209:user/htu21d/htu21d.c ****         }
 708              		.loc 1 209 19 is_stmt 0 view .LVU299
 709 00de 08BF     		it	eq
 710 00e0 0135     		addeq	r5, r5, #1
 711              	.LVL41:
 211:user/htu21d/htu21d.c ****     }
 712              		.loc 1 211 9 view .LVU300
 713 00e2 4FF00002 		mov	r2, #0
 714 00e6 4FF04001 		mov	r1, #64
 715 00ea 3046     		mov	r0, r6
 204:user/htu21d/htu21d.c ****         HTU21D_SCL_HIGH();
 716              		.loc 1 204 5 view .LVU301
 717 00ec 04F1FF34 		add	r4, r4, #-1
 209:user/htu21d/htu21d.c ****         }
 718              		.loc 1 209 19 view .LVU302
 719 00f0 08BF     		it	eq
 720 00f2 EDB2     		uxtbeq	r5, r5
 721              	.LVL42:
 211:user/htu21d/htu21d.c ****     }
ARM GAS  C:\Users\WENHUA~1\AppData\Local\Temp\ccnJErvg.s 			page 23


 722              		.loc 1 211 9 is_stmt 1 view .LVU303
 211:user/htu21d/htu21d.c ****     }
 723              		.loc 1 211 9 view .LVU304
 724 00f4 FFF7FEFF 		bl	HAL_GPIO_WritePin
 725              	.LVL43:
 211:user/htu21d/htu21d.c ****     }
 726              		.loc 1 211 9 view .LVU305
 204:user/htu21d/htu21d.c ****         HTU21D_SCL_HIGH();
 727              		.loc 1 204 24 view .LVU306
 204:user/htu21d/htu21d.c ****         HTU21D_SCL_HIGH();
 728              		.loc 1 204 17 view .LVU307
 204:user/htu21d/htu21d.c ****         HTU21D_SCL_HIGH();
 729              		.loc 1 204 5 is_stmt 0 view .LVU308
 730 00f8 14F0FF04 		ands	r4, r4, #255
 731 00fc E2D1     		bne	.L25
 213:user/htu21d/htu21d.c **** 
 732              		.loc 1 213 5 is_stmt 1 view .LVU309
 213:user/htu21d/htu21d.c **** 
 733              		.loc 1 213 5 view .LVU310
 734              	.LVL44:
 735              	.LBB154:
 736              	.LBI154:
  70:user/htu21d/htu21d.c **** {
 737              		.loc 1 70 13 view .LVU311
 738              	.LBB155:
  72:user/htu21d/htu21d.c **** 
 739              		.loc 1 72 5 view .LVU312
  74:user/htu21d/htu21d.c ****         GPIO_InitStructure.Pin = HTU21D_SDA_Pin;
 740              		.loc 1 74 5 view .LVU313
 741              	.LBB156:
 742              	.LBI156:
  70:user/htu21d/htu21d.c **** {
 743              		.loc 1 70 13 view .LVU314
 744              	.LBB157:
  75:user/htu21d/htu21d.c ****         GPIO_InitStructure.Mode = GPIO_MODE_OUTPUT_OD;
 745              		.loc 1 75 9 view .LVU315
  76:user/htu21d/htu21d.c ****         GPIO_InitStructure.Speed = GPIO_SPEED_FREQ_LOW;
 746              		.loc 1 76 9 view .LVU316
  77:user/htu21d/htu21d.c ****         HAL_GPIO_Init(HTU21D_SDA_GPIO_Port, &GPIO_InitStructure);
 747              		.loc 1 77 34 is_stmt 0 view .LVU317
 748 00fe 0221     		movs	r1, #2
  75:user/htu21d/htu21d.c ****         GPIO_InitStructure.Mode = GPIO_MODE_OUTPUT_OD;
 749              		.loc 1 75 32 view .LVU318
 750 0100 1123     		movs	r3, #17
 751 0102 8022     		movs	r2, #128
  78:user/htu21d/htu21d.c ****     } else {
 752              		.loc 1 78 9 view .LVU319
 753 0104 A848     		ldr	r0, .L60
  77:user/htu21d/htu21d.c ****         HAL_GPIO_Init(HTU21D_SDA_GPIO_Port, &GPIO_InitStructure);
 754              		.loc 1 77 34 view .LVU320
 755 0106 0591     		str	r1, [sp, #20]
  78:user/htu21d/htu21d.c ****     } else {
 756              		.loc 1 78 9 view .LVU321
 757 0108 02A9     		add	r1, sp, #8
  75:user/htu21d/htu21d.c ****         GPIO_InitStructure.Mode = GPIO_MODE_OUTPUT_OD;
 758              		.loc 1 75 32 view .LVU322
 759 010a CDE90223 		strd	r2, [sp, #8]
ARM GAS  C:\Users\WENHUA~1\AppData\Local\Temp\ccnJErvg.s 			page 24


  77:user/htu21d/htu21d.c ****         HAL_GPIO_Init(HTU21D_SDA_GPIO_Port, &GPIO_InitStructure);
 760              		.loc 1 77 9 is_stmt 1 view .LVU323
  78:user/htu21d/htu21d.c ****     } else {
 761              		.loc 1 78 9 view .LVU324
 762 010e FFF7FEFF 		bl	HAL_GPIO_Init
 763              	.LVL45:
  78:user/htu21d/htu21d.c ****     } else {
 764              		.loc 1 78 9 is_stmt 0 view .LVU325
 765              	.LBE157:
 766              	.LBE156:
 767              	.LBE155:
 768              	.LBE154:
 213:user/htu21d/htu21d.c **** 
 769              		.loc 1 213 5 is_stmt 1 view .LVU326
 215:user/htu21d/htu21d.c **** }
 770              		.loc 1 215 5 view .LVU327
 215:user/htu21d/htu21d.c **** }
 771              		.loc 1 215 5 is_stmt 0 view .LVU328
 772              	.LBE158:
 773              	.LBE159:
 245:user/htu21d/htu21d.c ****     AckBus();
 774              		.loc 1 245 5 is_stmt 1 view .LVU329
 775              	.LBB160:
 776              	.LBB161:
 111:user/htu21d/htu21d.c ****     DelayUs(HTU21D_I2C_DELAY);
 777              		.loc 1 111 5 is_stmt 0 view .LVU330
 778 0112 8021     		movs	r1, #128
 779 0114 2246     		mov	r2, r4
 780 0116 A448     		ldr	r0, .L60
 781 0118 FFF7FEFF 		bl	HAL_GPIO_WritePin
 782              	.LVL46:
 113:user/htu21d/htu21d.c ****     DelayUs(HTU21D_I2C_DELAY);
 783              		.loc 1 113 5 view .LVU331
 784 011c 2246     		mov	r2, r4
 785 011e 4021     		movs	r1, #64
 786 0120 A148     		ldr	r0, .L60
 787 0122 FFF7FEFF 		bl	HAL_GPIO_WritePin
 788              	.LVL47:
 115:user/htu21d/htu21d.c ****     DelayUs(HTU21D_I2C_DELAY);
 789              		.loc 1 115 5 view .LVU332
 790 0126 4021     		movs	r1, #64
 791 0128 0122     		movs	r2, #1
 792 012a 9F48     		ldr	r0, .L60
 793 012c FFF7FEFF 		bl	HAL_GPIO_WritePin
 794              	.LVL48:
 117:user/htu21d/htu21d.c ****     DelayUs(HTU21D_I2C_DELAY);
 795              		.loc 1 117 5 view .LVU333
 796 0130 2246     		mov	r2, r4
 797 0132 4021     		movs	r1, #64
 798 0134 9C48     		ldr	r0, .L60
 799 0136 FFF7FEFF 		bl	HAL_GPIO_WritePin
 800              	.LVL49:
 119:user/htu21d/htu21d.c ****     DelayUs(HTU21D_I2C_DELAY);
 801              		.loc 1 119 5 view .LVU334
 802 013a 0122     		movs	r2, #1
 803 013c 8021     		movs	r1, #128
 804 013e 9A48     		ldr	r0, .L60
ARM GAS  C:\Users\WENHUA~1\AppData\Local\Temp\ccnJErvg.s 			page 25


 805 0140 FFF7FEFF 		bl	HAL_GPIO_WritePin
 806              	.LVL50:
 807              	.LBE161:
 808              	.LBE160:
 809              	.LBB167:
 810              	.LBB168:
 811              	.LBB169:
 812              	.LBB170:
  82:user/htu21d/htu21d.c ****         HAL_GPIO_Init(HTU21D_SDA_GPIO_Port, &GPIO_InitStructure);
 813              		.loc 1 82 33 view .LVU335
 814 0144 0121     		movs	r1, #1
  80:user/htu21d/htu21d.c ****         GPIO_InitStructure.Mode = GPIO_MODE_INPUT;
 815              		.loc 1 80 32 view .LVU336
 816 0146 8022     		movs	r2, #128
 817 0148 0023     		movs	r3, #0
  82:user/htu21d/htu21d.c ****         HAL_GPIO_Init(HTU21D_SDA_GPIO_Port, &GPIO_InitStructure);
 818              		.loc 1 82 33 view .LVU337
 819 014a 0491     		str	r1, [sp, #16]
  83:user/htu21d/htu21d.c ****     }
 820              		.loc 1 83 9 view .LVU338
 821 014c 9648     		ldr	r0, .L60
 822 014e 02A9     		add	r1, sp, #8
  80:user/htu21d/htu21d.c ****         GPIO_InitStructure.Mode = GPIO_MODE_INPUT;
 823              		.loc 1 80 32 view .LVU339
 824 0150 CDE90223 		strd	r2, [sp, #8]
 825 0154 0827     		movs	r7, #8
  83:user/htu21d/htu21d.c ****     }
 826              		.loc 1 83 9 view .LVU340
 827 0156 FFF7FEFF 		bl	HAL_GPIO_Init
 828              	.LVL51:
 829              	.LBE170:
 830              	.LBE169:
 205:user/htu21d/htu21d.c ****         DelayUs(HTU21D_I2C_DELAY);
 831              		.loc 1 205 9 view .LVU341
 832 015a 934E     		ldr	r6, .L60
 833              	.LBE168:
 834              	.LBE167:
 245:user/htu21d/htu21d.c ****     AckBus();
 835              		.loc 1 245 14 view .LVU342
 836 015c 2D02     		lsls	r5, r5, #8
 837              	.LVL52:
 246:user/htu21d/htu21d.c ****     htu_data += ReadByte();
 838              		.loc 1 246 5 is_stmt 1 view .LVU343
 839              	.LBB179:
 840              	.LBI160:
 109:user/htu21d/htu21d.c **** {
 841              		.loc 1 109 13 view .LVU344
 842              	.LBB162:
 111:user/htu21d/htu21d.c ****     DelayUs(HTU21D_I2C_DELAY);
 843              		.loc 1 111 5 view .LVU345
 111:user/htu21d/htu21d.c ****     DelayUs(HTU21D_I2C_DELAY);
 844              		.loc 1 111 5 view .LVU346
 111:user/htu21d/htu21d.c ****     DelayUs(HTU21D_I2C_DELAY);
 845              		.loc 1 111 5 view .LVU347
 112:user/htu21d/htu21d.c ****     HTU21D_SCL_LOW();
 846              		.loc 1 112 5 view .LVU348
 112:user/htu21d/htu21d.c ****     HTU21D_SCL_LOW();
ARM GAS  C:\Users\WENHUA~1\AppData\Local\Temp\ccnJErvg.s 			page 26


 847              		.loc 1 112 5 is_stmt 0 view .LVU349
 848              	.LBE162:
 849              	.LBE179:
  65:user/htu21d/htu21d.c **** 
 850              		.loc 1 65 5 is_stmt 1 view .LVU350
  67:user/htu21d/htu21d.c **** }
 851              		.loc 1 67 5 view .LVU351
  67:user/htu21d/htu21d.c **** }
 852              		.loc 1 67 20 view .LVU352
  67:user/htu21d/htu21d.c **** }
 853              		.loc 1 67 11 view .LVU353
 854              	.LBB180:
 855              	.LBB163:
 113:user/htu21d/htu21d.c ****     DelayUs(HTU21D_I2C_DELAY);
 856              		.loc 1 113 5 view .LVU354
 113:user/htu21d/htu21d.c ****     DelayUs(HTU21D_I2C_DELAY);
 857              		.loc 1 113 5 view .LVU355
 113:user/htu21d/htu21d.c ****     DelayUs(HTU21D_I2C_DELAY);
 858              		.loc 1 113 5 view .LVU356
 114:user/htu21d/htu21d.c ****     HTU21D_SCL_HIGH();
 859              		.loc 1 114 5 view .LVU357
 114:user/htu21d/htu21d.c ****     HTU21D_SCL_HIGH();
 860              		.loc 1 114 5 is_stmt 0 view .LVU358
 861              	.LBE163:
 862              	.LBE180:
  65:user/htu21d/htu21d.c **** 
 863              		.loc 1 65 5 is_stmt 1 view .LVU359
  67:user/htu21d/htu21d.c **** }
 864              		.loc 1 67 5 view .LVU360
  67:user/htu21d/htu21d.c **** }
 865              		.loc 1 67 20 view .LVU361
  67:user/htu21d/htu21d.c **** }
 866              		.loc 1 67 11 view .LVU362
 867              	.LBB181:
 868              	.LBB164:
 115:user/htu21d/htu21d.c ****     DelayUs(HTU21D_I2C_DELAY);
 869              		.loc 1 115 5 view .LVU363
 115:user/htu21d/htu21d.c ****     DelayUs(HTU21D_I2C_DELAY);
 870              		.loc 1 115 5 view .LVU364
 115:user/htu21d/htu21d.c ****     DelayUs(HTU21D_I2C_DELAY);
 871              		.loc 1 115 5 view .LVU365
 116:user/htu21d/htu21d.c ****     HTU21D_SCL_LOW();
 872              		.loc 1 116 5 view .LVU366
 116:user/htu21d/htu21d.c ****     HTU21D_SCL_LOW();
 873              		.loc 1 116 5 is_stmt 0 view .LVU367
 874              	.LBE164:
 875              	.LBE181:
  65:user/htu21d/htu21d.c **** 
 876              		.loc 1 65 5 is_stmt 1 view .LVU368
  67:user/htu21d/htu21d.c **** }
 877              		.loc 1 67 5 view .LVU369
  67:user/htu21d/htu21d.c **** }
 878              		.loc 1 67 20 view .LVU370
  67:user/htu21d/htu21d.c **** }
 879              		.loc 1 67 11 view .LVU371
 880              	.LBB182:
 881              	.LBB165:
ARM GAS  C:\Users\WENHUA~1\AppData\Local\Temp\ccnJErvg.s 			page 27


 117:user/htu21d/htu21d.c ****     DelayUs(HTU21D_I2C_DELAY);
 882              		.loc 1 117 5 view .LVU372
 117:user/htu21d/htu21d.c ****     DelayUs(HTU21D_I2C_DELAY);
 883              		.loc 1 117 5 view .LVU373
 117:user/htu21d/htu21d.c ****     DelayUs(HTU21D_I2C_DELAY);
 884              		.loc 1 117 5 view .LVU374
 118:user/htu21d/htu21d.c ****     HTU21D_SDA_HIGH();
 885              		.loc 1 118 5 view .LVU375
 118:user/htu21d/htu21d.c ****     HTU21D_SDA_HIGH();
 886              		.loc 1 118 5 is_stmt 0 view .LVU376
 887              	.LBE165:
 888              	.LBE182:
  65:user/htu21d/htu21d.c **** 
 889              		.loc 1 65 5 is_stmt 1 view .LVU377
  67:user/htu21d/htu21d.c **** }
 890              		.loc 1 67 5 view .LVU378
  67:user/htu21d/htu21d.c **** }
 891              		.loc 1 67 20 view .LVU379
  67:user/htu21d/htu21d.c **** }
 892              		.loc 1 67 11 view .LVU380
 893              	.LBB183:
 894              	.LBB166:
 119:user/htu21d/htu21d.c ****     DelayUs(HTU21D_I2C_DELAY);
 895              		.loc 1 119 5 view .LVU381
 119:user/htu21d/htu21d.c ****     DelayUs(HTU21D_I2C_DELAY);
 896              		.loc 1 119 5 view .LVU382
 119:user/htu21d/htu21d.c ****     DelayUs(HTU21D_I2C_DELAY);
 897              		.loc 1 119 5 view .LVU383
 120:user/htu21d/htu21d.c **** }
 898              		.loc 1 120 5 view .LVU384
 120:user/htu21d/htu21d.c **** }
 899              		.loc 1 120 5 is_stmt 0 view .LVU385
 900              	.LBE166:
 901              	.LBE183:
  65:user/htu21d/htu21d.c **** 
 902              		.loc 1 65 5 is_stmt 1 view .LVU386
  67:user/htu21d/htu21d.c **** }
 903              		.loc 1 67 5 view .LVU387
  67:user/htu21d/htu21d.c **** }
 904              		.loc 1 67 20 view .LVU388
  67:user/htu21d/htu21d.c **** }
 905              		.loc 1 67 11 view .LVU389
 247:user/htu21d/htu21d.c ****     NoAckBus();
 906              		.loc 1 247 5 view .LVU390
 907              	.LBB184:
 908              	.LBI167:
 198:user/htu21d/htu21d.c **** {
 909              		.loc 1 198 16 view .LVU391
 910              	.LBB177:
 200:user/htu21d/htu21d.c ****     uint8_t i;
 911              		.loc 1 200 5 view .LVU392
 201:user/htu21d/htu21d.c **** 
 912              		.loc 1 201 5 view .LVU393
 203:user/htu21d/htu21d.c ****     for (i = 0; i < 8; i++) {
 913              		.loc 1 203 5 view .LVU394
 203:user/htu21d/htu21d.c ****     for (i = 0; i < 8; i++) {
 914              		.loc 1 203 5 view .LVU395
ARM GAS  C:\Users\WENHUA~1\AppData\Local\Temp\ccnJErvg.s 			page 28


 915              	.LBB172:
 916              	.LBI169:
  70:user/htu21d/htu21d.c **** {
 917              		.loc 1 70 13 view .LVU396
 918              	.LBB171:
  72:user/htu21d/htu21d.c **** 
 919              		.loc 1 72 5 view .LVU397
  74:user/htu21d/htu21d.c ****         GPIO_InitStructure.Pin = HTU21D_SDA_Pin;
 920              		.loc 1 74 5 view .LVU398
  80:user/htu21d/htu21d.c ****         GPIO_InitStructure.Mode = GPIO_MODE_INPUT;
 921              		.loc 1 80 9 view .LVU399
  81:user/htu21d/htu21d.c ****         GPIO_InitStructure.Pull = GPIO_PULLUP;
 922              		.loc 1 81 9 view .LVU400
  82:user/htu21d/htu21d.c ****         HAL_GPIO_Init(HTU21D_SDA_GPIO_Port, &GPIO_InitStructure);
 923              		.loc 1 82 9 view .LVU401
  83:user/htu21d/htu21d.c ****     }
 924              		.loc 1 83 9 view .LVU402
  83:user/htu21d/htu21d.c ****     }
 925              		.loc 1 83 9 is_stmt 0 view .LVU403
 926              	.LBE171:
 927              	.LBE172:
 203:user/htu21d/htu21d.c ****     for (i = 0; i < 8; i++) {
 928              		.loc 1 203 5 is_stmt 1 view .LVU404
 204:user/htu21d/htu21d.c ****         HTU21D_SCL_HIGH();
 929              		.loc 1 204 5 view .LVU405
 204:user/htu21d/htu21d.c ****         HTU21D_SCL_HIGH();
 930              		.loc 1 204 17 view .LVU406
 931              	.L27:
 205:user/htu21d/htu21d.c ****         DelayUs(HTU21D_I2C_DELAY);
 932              		.loc 1 205 9 view .LVU407
 205:user/htu21d/htu21d.c ****         DelayUs(HTU21D_I2C_DELAY);
 933              		.loc 1 205 9 view .LVU408
 934 015e 0122     		movs	r2, #1
 935 0160 4021     		movs	r1, #64
 936 0162 3046     		mov	r0, r6
 937 0164 FFF7FEFF 		bl	HAL_GPIO_WritePin
 938              	.LVL53:
 205:user/htu21d/htu21d.c ****         DelayUs(HTU21D_I2C_DELAY);
 939              		.loc 1 205 9 view .LVU409
 206:user/htu21d/htu21d.c ****         value <<= 1;
 940              		.loc 1 206 9 view .LVU410
 206:user/htu21d/htu21d.c ****         value <<= 1;
 941              		.loc 1 206 9 is_stmt 0 view .LVU411
 942              	.LBE177:
 943              	.LBE184:
  65:user/htu21d/htu21d.c **** 
 944              		.loc 1 65 5 is_stmt 1 view .LVU412
  67:user/htu21d/htu21d.c **** }
 945              		.loc 1 67 5 view .LVU413
  67:user/htu21d/htu21d.c **** }
 946              		.loc 1 67 20 view .LVU414
  67:user/htu21d/htu21d.c **** }
 947              		.loc 1 67 11 view .LVU415
 948              	.LBB185:
 949              	.LBB178:
 207:user/htu21d/htu21d.c ****         if (HAL_GPIO_ReadPin(HTU21D_SDA_GPIO_Port, HTU21D_SDA_Pin) == GPIO_PIN_SET) {
 950              		.loc 1 207 9 view .LVU416
ARM GAS  C:\Users\WENHUA~1\AppData\Local\Temp\ccnJErvg.s 			page 29


 208:user/htu21d/htu21d.c ****             value += 1;
 951              		.loc 1 208 13 is_stmt 0 view .LVU417
 952 0168 8021     		movs	r1, #128
 953 016a 3046     		mov	r0, r6
 954 016c FFF7FEFF 		bl	HAL_GPIO_ReadPin
 955              	.LVL54:
 956 0170 0346     		mov	r3, r0
 207:user/htu21d/htu21d.c ****         if (HAL_GPIO_ReadPin(HTU21D_SDA_GPIO_Port, HTU21D_SDA_Pin) == GPIO_PIN_SET) {
 957              		.loc 1 207 15 view .LVU418
 958 0172 6400     		lsls	r4, r4, #1
 959              	.LVL55:
 208:user/htu21d/htu21d.c ****             value += 1;
 960              		.loc 1 208 12 view .LVU419
 961 0174 012B     		cmp	r3, #1
 207:user/htu21d/htu21d.c ****         if (HAL_GPIO_ReadPin(HTU21D_SDA_GPIO_Port, HTU21D_SDA_Pin) == GPIO_PIN_SET) {
 962              		.loc 1 207 15 view .LVU420
 963 0176 E4B2     		uxtb	r4, r4
 964              	.LVL56:
 208:user/htu21d/htu21d.c ****             value += 1;
 965              		.loc 1 208 9 is_stmt 1 view .LVU421
 209:user/htu21d/htu21d.c ****         }
 966              		.loc 1 209 13 view .LVU422
 209:user/htu21d/htu21d.c ****         }
 967              		.loc 1 209 19 is_stmt 0 view .LVU423
 968 0178 08BF     		it	eq
 969 017a 0134     		addeq	r4, r4, #1
 970              	.LVL57:
 211:user/htu21d/htu21d.c ****     }
 971              		.loc 1 211 9 view .LVU424
 972 017c 4FF00002 		mov	r2, #0
 973 0180 4FF04001 		mov	r1, #64
 974 0184 3046     		mov	r0, r6
 209:user/htu21d/htu21d.c ****         }
 975              		.loc 1 209 19 view .LVU425
 976 0186 08BF     		it	eq
 977 0188 E4B2     		uxtbeq	r4, r4
 978              	.LVL58:
 211:user/htu21d/htu21d.c ****     }
 979              		.loc 1 211 9 is_stmt 1 view .LVU426
 211:user/htu21d/htu21d.c ****     }
 980              		.loc 1 211 9 view .LVU427
 981 018a FFF7FEFF 		bl	HAL_GPIO_WritePin
 982              	.LVL59:
 211:user/htu21d/htu21d.c ****     }
 983              		.loc 1 211 9 view .LVU428
 204:user/htu21d/htu21d.c ****         HTU21D_SCL_HIGH();
 984              		.loc 1 204 24 view .LVU429
 204:user/htu21d/htu21d.c ****         HTU21D_SCL_HIGH();
 985              		.loc 1 204 17 view .LVU430
 204:user/htu21d/htu21d.c ****         HTU21D_SCL_HIGH();
 986              		.loc 1 204 5 is_stmt 0 view .LVU431
 987 018e 7A1E     		subs	r2, r7, #1
 988 0190 12F0FF07 		ands	r7, r2, #255
 989 0194 E3D1     		bne	.L27
 213:user/htu21d/htu21d.c **** 
 990              		.loc 1 213 5 is_stmt 1 view .LVU432
 213:user/htu21d/htu21d.c **** 
ARM GAS  C:\Users\WENHUA~1\AppData\Local\Temp\ccnJErvg.s 			page 30


 991              		.loc 1 213 5 view .LVU433
 992              	.LVL60:
 993              	.LBB173:
 994              	.LBI173:
  70:user/htu21d/htu21d.c **** {
 995              		.loc 1 70 13 view .LVU434
 996              	.LBB174:
  72:user/htu21d/htu21d.c **** 
 997              		.loc 1 72 5 view .LVU435
  74:user/htu21d/htu21d.c ****         GPIO_InitStructure.Pin = HTU21D_SDA_Pin;
 998              		.loc 1 74 5 view .LVU436
 999              	.LBB175:
 1000              	.LBI175:
  70:user/htu21d/htu21d.c **** {
 1001              		.loc 1 70 13 view .LVU437
 1002              	.LBB176:
  75:user/htu21d/htu21d.c ****         GPIO_InitStructure.Mode = GPIO_MODE_OUTPUT_OD;
 1003              		.loc 1 75 9 view .LVU438
  76:user/htu21d/htu21d.c ****         GPIO_InitStructure.Speed = GPIO_SPEED_FREQ_LOW;
 1004              		.loc 1 76 9 view .LVU439
  75:user/htu21d/htu21d.c ****         GPIO_InitStructure.Mode = GPIO_MODE_OUTPUT_OD;
 1005              		.loc 1 75 32 is_stmt 0 view .LVU440
 1006 0196 8022     		movs	r2, #128
 1007 0198 1123     		movs	r3, #17
 1008 019a CDE90223 		strd	r2, [sp, #8]
  77:user/htu21d/htu21d.c ****         HAL_GPIO_Init(HTU21D_SDA_GPIO_Port, &GPIO_InitStructure);
 1009              		.loc 1 77 9 is_stmt 1 view .LVU441
  77:user/htu21d/htu21d.c ****         HAL_GPIO_Init(HTU21D_SDA_GPIO_Port, &GPIO_InitStructure);
 1010              		.loc 1 77 34 is_stmt 0 view .LVU442
 1011 019e 0223     		movs	r3, #2
  78:user/htu21d/htu21d.c ****     } else {
 1012              		.loc 1 78 9 view .LVU443
 1013 01a0 8148     		ldr	r0, .L60
 1014 01a2 02A9     		add	r1, sp, #8
  77:user/htu21d/htu21d.c ****         HAL_GPIO_Init(HTU21D_SDA_GPIO_Port, &GPIO_InitStructure);
 1015              		.loc 1 77 34 view .LVU444
 1016 01a4 0593     		str	r3, [sp, #20]
  78:user/htu21d/htu21d.c ****     } else {
 1017              		.loc 1 78 9 is_stmt 1 view .LVU445
 1018 01a6 FFF7FEFF 		bl	HAL_GPIO_Init
 1019              	.LVL61:
  78:user/htu21d/htu21d.c ****     } else {
 1020              		.loc 1 78 9 is_stmt 0 view .LVU446
 1021              	.LBE176:
 1022              	.LBE175:
 1023              	.LBE174:
 1024              	.LBE173:
 213:user/htu21d/htu21d.c **** 
 1025              		.loc 1 213 5 is_stmt 1 view .LVU447
 215:user/htu21d/htu21d.c **** }
 1026              		.loc 1 215 5 view .LVU448
 215:user/htu21d/htu21d.c **** }
 1027              		.loc 1 215 5 is_stmt 0 view .LVU449
 1028              	.LBE178:
 1029              	.LBE185:
 1030              	.LBB186:
 1031              	.LBB187:
ARM GAS  C:\Users\WENHUA~1\AppData\Local\Temp\ccnJErvg.s 			page 31


 125:user/htu21d/htu21d.c ****     DelayUs(HTU21D_I2C_DELAY);
 1032              		.loc 1 125 5 view .LVU450
 1033 01aa 0122     		movs	r2, #1
 1034 01ac 8021     		movs	r1, #128
 1035 01ae 7E48     		ldr	r0, .L60
 1036 01b0 FFF7FEFF 		bl	HAL_GPIO_WritePin
 1037              	.LVL62:
 127:user/htu21d/htu21d.c ****     DelayUs(HTU21D_I2C_DELAY);
 1038              		.loc 1 127 5 view .LVU451
 1039 01b4 0122     		movs	r2, #1
 1040 01b6 4021     		movs	r1, #64
 1041 01b8 7B48     		ldr	r0, .L60
 1042 01ba FFF7FEFF 		bl	HAL_GPIO_WritePin
 1043              	.LVL63:
 129:user/htu21d/htu21d.c **** }
 1044              		.loc 1 129 5 view .LVU452
 1045 01be 3A46     		mov	r2, r7
 1046 01c0 4021     		movs	r1, #64
 1047 01c2 7948     		ldr	r0, .L60
 1048 01c4 FFF7FEFF 		bl	HAL_GPIO_WritePin
 1049              	.LVL64:
 1050              	.LBE187:
 1051              	.LBE186:
 1052              	.LBB191:
 1053              	.LBB192:
 101:user/htu21d/htu21d.c ****     DelayUs(HTU21D_I2C_DELAY);
 1054              		.loc 1 101 5 view .LVU453
 1055 01c8 3A46     		mov	r2, r7
 1056 01ca 8021     		movs	r1, #128
 1057 01cc 7648     		ldr	r0, .L60
 1058 01ce FFF7FEFF 		bl	HAL_GPIO_WritePin
 1059              	.LVL65:
 1060              	.LBE192:
 1061              	.LBE191:
 247:user/htu21d/htu21d.c ****     NoAckBus();
 1062              		.loc 1 247 14 view .LVU454
 1063 01d2 2544     		add	r5, r5, r4
 1064              	.LVL66:
 1065              	.LBB197:
 1066              	.LBB193:
 103:user/htu21d/htu21d.c ****     DelayUs(HTU21D_I2C_DELAY);
 1067              		.loc 1 103 5 view .LVU455
 1068 01d4 0122     		movs	r2, #1
 1069 01d6 4021     		movs	r1, #64
 1070 01d8 7348     		ldr	r0, .L60
 1071 01da FFF7FEFF 		bl	HAL_GPIO_WritePin
 1072              	.LVL67:
 1073              	.LBE193:
 1074              	.LBE197:
 247:user/htu21d/htu21d.c ****     NoAckBus();
 1075              		.loc 1 247 14 view .LVU456
 1076 01de ADB2     		uxth	r5, r5
 1077              	.LVL68:
 248:user/htu21d/htu21d.c ****     StopBus();
 1078              		.loc 1 248 5 is_stmt 1 view .LVU457
 1079              	.LBB198:
 1080              	.LBI186:
ARM GAS  C:\Users\WENHUA~1\AppData\Local\Temp\ccnJErvg.s 			page 32


 123:user/htu21d/htu21d.c **** {
 1081              		.loc 1 123 13 view .LVU458
 1082              	.LBB188:
 125:user/htu21d/htu21d.c ****     DelayUs(HTU21D_I2C_DELAY);
 1083              		.loc 1 125 5 view .LVU459
 125:user/htu21d/htu21d.c ****     DelayUs(HTU21D_I2C_DELAY);
 1084              		.loc 1 125 5 view .LVU460
 125:user/htu21d/htu21d.c ****     DelayUs(HTU21D_I2C_DELAY);
 1085              		.loc 1 125 5 view .LVU461
 126:user/htu21d/htu21d.c ****     HTU21D_SCL_HIGH();
 1086              		.loc 1 126 5 view .LVU462
 126:user/htu21d/htu21d.c ****     HTU21D_SCL_HIGH();
 1087              		.loc 1 126 5 is_stmt 0 view .LVU463
 1088              	.LBE188:
 1089              	.LBE198:
  65:user/htu21d/htu21d.c **** 
 1090              		.loc 1 65 5 is_stmt 1 view .LVU464
  67:user/htu21d/htu21d.c **** }
 1091              		.loc 1 67 5 view .LVU465
  67:user/htu21d/htu21d.c **** }
 1092              		.loc 1 67 20 view .LVU466
  67:user/htu21d/htu21d.c **** }
 1093              		.loc 1 67 11 view .LVU467
 1094              	.LBB199:
 1095              	.LBB189:
 127:user/htu21d/htu21d.c ****     DelayUs(HTU21D_I2C_DELAY);
 1096              		.loc 1 127 5 view .LVU468
 127:user/htu21d/htu21d.c ****     DelayUs(HTU21D_I2C_DELAY);
 1097              		.loc 1 127 5 view .LVU469
 127:user/htu21d/htu21d.c ****     DelayUs(HTU21D_I2C_DELAY);
 1098              		.loc 1 127 5 view .LVU470
 128:user/htu21d/htu21d.c ****     HTU21D_SCL_LOW();
 1099              		.loc 1 128 5 view .LVU471
 128:user/htu21d/htu21d.c ****     HTU21D_SCL_LOW();
 1100              		.loc 1 128 5 is_stmt 0 view .LVU472
 1101              	.LBE189:
 1102              	.LBE199:
  65:user/htu21d/htu21d.c **** 
 1103              		.loc 1 65 5 is_stmt 1 view .LVU473
  67:user/htu21d/htu21d.c **** }
 1104              		.loc 1 67 5 view .LVU474
  67:user/htu21d/htu21d.c **** }
 1105              		.loc 1 67 20 view .LVU475
  67:user/htu21d/htu21d.c **** }
 1106              		.loc 1 67 11 view .LVU476
 1107              	.LBB200:
 1108              	.LBB190:
 129:user/htu21d/htu21d.c **** }
 1109              		.loc 1 129 5 view .LVU477
 129:user/htu21d/htu21d.c **** }
 1110              		.loc 1 129 5 view .LVU478
 129:user/htu21d/htu21d.c **** }
 1111              		.loc 1 129 5 view .LVU479
 1112              	.LBE190:
 1113              	.LBE200:
 249:user/htu21d/htu21d.c ****     htu = ((htu_data & 0xfffc) / 65536.0 * 125.0 - 6.0);
 1114              		.loc 1 249 5 view .LVU480
ARM GAS  C:\Users\WENHUA~1\AppData\Local\Temp\ccnJErvg.s 			page 33


 1115              	.LBB201:
 1116              	.LBI191:
  99:user/htu21d/htu21d.c **** {
 1117              		.loc 1 99 13 view .LVU481
 1118              	.LBB194:
 101:user/htu21d/htu21d.c ****     DelayUs(HTU21D_I2C_DELAY);
 1119              		.loc 1 101 5 view .LVU482
 101:user/htu21d/htu21d.c ****     DelayUs(HTU21D_I2C_DELAY);
 1120              		.loc 1 101 5 view .LVU483
 101:user/htu21d/htu21d.c ****     DelayUs(HTU21D_I2C_DELAY);
 1121              		.loc 1 101 5 view .LVU484
 102:user/htu21d/htu21d.c ****     HTU21D_SCL_HIGH();
 1122              		.loc 1 102 5 view .LVU485
 102:user/htu21d/htu21d.c ****     HTU21D_SCL_HIGH();
 1123              		.loc 1 102 5 is_stmt 0 view .LVU486
 1124              	.LBE194:
 1125              	.LBE201:
  65:user/htu21d/htu21d.c **** 
 1126              		.loc 1 65 5 is_stmt 1 view .LVU487
  67:user/htu21d/htu21d.c **** }
 1127              		.loc 1 67 5 view .LVU488
  67:user/htu21d/htu21d.c **** }
 1128              		.loc 1 67 20 view .LVU489
  67:user/htu21d/htu21d.c **** }
 1129              		.loc 1 67 11 view .LVU490
 1130              	.LBB202:
 1131              	.LBB195:
 103:user/htu21d/htu21d.c ****     DelayUs(HTU21D_I2C_DELAY);
 1132              		.loc 1 103 5 view .LVU491
 103:user/htu21d/htu21d.c ****     DelayUs(HTU21D_I2C_DELAY);
 1133              		.loc 1 103 5 view .LVU492
 103:user/htu21d/htu21d.c ****     DelayUs(HTU21D_I2C_DELAY);
 1134              		.loc 1 103 5 view .LVU493
 104:user/htu21d/htu21d.c ****     HTU21D_SDA_HIGH();
 1135              		.loc 1 104 5 view .LVU494
 104:user/htu21d/htu21d.c ****     HTU21D_SDA_HIGH();
 1136              		.loc 1 104 5 is_stmt 0 view .LVU495
 1137              	.LBE195:
 1138              	.LBE202:
  65:user/htu21d/htu21d.c **** 
 1139              		.loc 1 65 5 is_stmt 1 view .LVU496
  67:user/htu21d/htu21d.c **** }
 1140              		.loc 1 67 5 view .LVU497
  67:user/htu21d/htu21d.c **** }
 1141              		.loc 1 67 20 view .LVU498
  67:user/htu21d/htu21d.c **** }
 1142              		.loc 1 67 11 view .LVU499
 1143              	.LBB203:
 1144              	.LBB196:
 105:user/htu21d/htu21d.c ****     DelayUs(HTU21D_I2C_DELAY);
 1145              		.loc 1 105 5 view .LVU500
 105:user/htu21d/htu21d.c ****     DelayUs(HTU21D_I2C_DELAY);
 1146              		.loc 1 105 5 view .LVU501
 1147 01e0 0122     		movs	r2, #1
 1148 01e2 8021     		movs	r1, #128
 1149 01e4 7048     		ldr	r0, .L60
 1150 01e6 FFF7FEFF 		bl	HAL_GPIO_WritePin
ARM GAS  C:\Users\WENHUA~1\AppData\Local\Temp\ccnJErvg.s 			page 34


 1151              	.LVL69:
 105:user/htu21d/htu21d.c ****     DelayUs(HTU21D_I2C_DELAY);
 1152              		.loc 1 105 5 view .LVU502
 106:user/htu21d/htu21d.c **** }
 1153              		.loc 1 106 5 view .LVU503
 106:user/htu21d/htu21d.c **** }
 1154              		.loc 1 106 5 is_stmt 0 view .LVU504
 1155              	.LBE196:
 1156              	.LBE203:
  65:user/htu21d/htu21d.c **** 
 1157              		.loc 1 65 5 is_stmt 1 view .LVU505
  67:user/htu21d/htu21d.c **** }
 1158              		.loc 1 67 5 view .LVU506
  67:user/htu21d/htu21d.c **** }
 1159              		.loc 1 67 20 view .LVU507
  67:user/htu21d/htu21d.c **** }
 1160              		.loc 1 67 11 view .LVU508
 250:user/htu21d/htu21d.c ****     g_thData.humidity = (uint16_t)htu * 10;
 1161              		.loc 1 250 5 view .LVU509
 251:user/htu21d/htu21d.c **** 
 1162              		.loc 1 251 5 view .LVU510
 250:user/htu21d/htu21d.c ****     g_thData.humidity = (uint16_t)htu * 10;
 1163              		.loc 1 250 22 is_stmt 0 view .LVU511
 1164 01ea 25F00300 		bic	r0, r5, #3
 250:user/htu21d/htu21d.c ****     g_thData.humidity = (uint16_t)htu * 10;
 1165              		.loc 1 250 32 view .LVU512
 1166 01ee FFF7FEFF 		bl	__aeabi_i2d
 1167              	.LVL70:
 1168 01f2 0022     		movs	r2, #0
 1169 01f4 6D4B     		ldr	r3, .L60+4
 1170 01f6 FFF7FEFF 		bl	__aeabi_dmul
 1171              	.LVL71:
 250:user/htu21d/htu21d.c ****     g_thData.humidity = (uint16_t)htu * 10;
 1172              		.loc 1 250 42 view .LVU513
 1173 01fa 0022     		movs	r2, #0
 1174 01fc 6C4B     		ldr	r3, .L60+8
 1175 01fe FFF7FEFF 		bl	__aeabi_dmul
 1176              	.LVL72:
 250:user/htu21d/htu21d.c ****     g_thData.humidity = (uint16_t)htu * 10;
 1177              		.loc 1 250 50 view .LVU514
 1178 0202 0022     		movs	r2, #0
 1179 0204 6B4B     		ldr	r3, .L60+12
 1180 0206 FFF7FEFF 		bl	__aeabi_dsub
 1181              	.LVL73:
 250:user/htu21d/htu21d.c ****     g_thData.humidity = (uint16_t)htu * 10;
 1182              		.loc 1 250 9 view .LVU515
 1183 020a FFF7FEFF 		bl	__aeabi_d2f
 1184              	.LVL74:
 251:user/htu21d/htu21d.c **** 
 1185              		.loc 1 251 25 view .LVU516
 1186 020e FFF7FEFF 		bl	__aeabi_f2uiz
 1187              	.LVL75:
 1188 0212 0346     		mov	r3, r0
 251:user/htu21d/htu21d.c **** 
 1189              		.loc 1 251 23 view .LVU517
 1190 0214 684E     		ldr	r6, .L60+16
 1191 0216 03EB8303 		add	r3, r3, r3, lsl #2
ARM GAS  C:\Users\WENHUA~1\AppData\Local\Temp\ccnJErvg.s 			page 35


 1192 021a 5B00     		lsls	r3, r3, #1
 253:user/htu21d/htu21d.c **** 
 1193              		.loc 1 253 5 view .LVU518
 1194 021c 0A20     		movs	r0, #10
 251:user/htu21d/htu21d.c **** 
 1195              		.loc 1 251 23 view .LVU519
 1196 021e 7380     		strh	r3, [r6, #2]	@ movhi
 253:user/htu21d/htu21d.c **** 
 1197              		.loc 1 253 5 is_stmt 1 view .LVU520
 1198 0220 FFF7FEFF 		bl	HAL_Delay
 1199              	.LVL76:
 255:user/htu21d/htu21d.c ****     status = WriteByte(DEVICE_ADDR | WRITE);
 1200              		.loc 1 255 5 view .LVU521
 1201              	.LBB204:
 1202              	.LBI204:
  87:user/htu21d/htu21d.c **** {
 1203              		.loc 1 87 13 view .LVU522
 1204              	.LBB205:
  89:user/htu21d/htu21d.c ****     DelayUs(HTU21D_I2C_DELAY);
 1205              		.loc 1 89 5 view .LVU523
  89:user/htu21d/htu21d.c ****     DelayUs(HTU21D_I2C_DELAY);
 1206              		.loc 1 89 5 view .LVU524
 1207 0224 0122     		movs	r2, #1
 1208 0226 8021     		movs	r1, #128
 1209 0228 5F48     		ldr	r0, .L60
 1210 022a FFF7FEFF 		bl	HAL_GPIO_WritePin
 1211              	.LVL77:
  89:user/htu21d/htu21d.c ****     DelayUs(HTU21D_I2C_DELAY);
 1212              		.loc 1 89 5 view .LVU525
  90:user/htu21d/htu21d.c ****     HTU21D_SCL_HIGH();
 1213              		.loc 1 90 5 view .LVU526
  90:user/htu21d/htu21d.c ****     HTU21D_SCL_HIGH();
 1214              		.loc 1 90 5 is_stmt 0 view .LVU527
 1215              	.LBE205:
 1216              	.LBE204:
  65:user/htu21d/htu21d.c **** 
 1217              		.loc 1 65 5 is_stmt 1 view .LVU528
  67:user/htu21d/htu21d.c **** }
 1218              		.loc 1 67 5 view .LVU529
  67:user/htu21d/htu21d.c **** }
 1219              		.loc 1 67 20 view .LVU530
  67:user/htu21d/htu21d.c **** }
 1220              		.loc 1 67 11 view .LVU531
 1221              	.LBB209:
 1222              	.LBB206:
  91:user/htu21d/htu21d.c ****     DelayUs(HTU21D_I2C_DELAY);
 1223              		.loc 1 91 5 view .LVU532
  91:user/htu21d/htu21d.c ****     DelayUs(HTU21D_I2C_DELAY);
 1224              		.loc 1 91 5 view .LVU533
 1225 022e 4021     		movs	r1, #64
 1226 0230 0122     		movs	r2, #1
 1227 0232 5D48     		ldr	r0, .L60
 1228 0234 FFF7FEFF 		bl	HAL_GPIO_WritePin
 1229              	.LVL78:
  91:user/htu21d/htu21d.c ****     DelayUs(HTU21D_I2C_DELAY);
 1230              		.loc 1 91 5 view .LVU534
  92:user/htu21d/htu21d.c ****     HTU21D_SDA_LOW();
ARM GAS  C:\Users\WENHUA~1\AppData\Local\Temp\ccnJErvg.s 			page 36


 1231              		.loc 1 92 5 view .LVU535
  92:user/htu21d/htu21d.c ****     HTU21D_SDA_LOW();
 1232              		.loc 1 92 5 is_stmt 0 view .LVU536
 1233              	.LBE206:
 1234              	.LBE209:
  65:user/htu21d/htu21d.c **** 
 1235              		.loc 1 65 5 is_stmt 1 view .LVU537
  67:user/htu21d/htu21d.c **** }
 1236              		.loc 1 67 5 view .LVU538
  67:user/htu21d/htu21d.c **** }
 1237              		.loc 1 67 20 view .LVU539
  67:user/htu21d/htu21d.c **** }
 1238              		.loc 1 67 11 view .LVU540
 1239              	.LBB210:
 1240              	.LBB207:
  93:user/htu21d/htu21d.c ****     DelayUs(HTU21D_I2C_DELAY);
 1241              		.loc 1 93 5 view .LVU541
  93:user/htu21d/htu21d.c ****     DelayUs(HTU21D_I2C_DELAY);
 1242              		.loc 1 93 5 view .LVU542
 1243 0238 3A46     		mov	r2, r7
 1244 023a 8021     		movs	r1, #128
 1245 023c 5A48     		ldr	r0, .L60
 1246 023e FFF7FEFF 		bl	HAL_GPIO_WritePin
 1247              	.LVL79:
  93:user/htu21d/htu21d.c ****     DelayUs(HTU21D_I2C_DELAY);
 1248              		.loc 1 93 5 view .LVU543
  94:user/htu21d/htu21d.c ****     HTU21D_SCL_LOW();
 1249              		.loc 1 94 5 view .LVU544
  94:user/htu21d/htu21d.c ****     HTU21D_SCL_LOW();
 1250              		.loc 1 94 5 is_stmt 0 view .LVU545
 1251              	.LBE207:
 1252              	.LBE210:
  65:user/htu21d/htu21d.c **** 
 1253              		.loc 1 65 5 is_stmt 1 view .LVU546
  67:user/htu21d/htu21d.c **** }
 1254              		.loc 1 67 5 view .LVU547
  67:user/htu21d/htu21d.c **** }
 1255              		.loc 1 67 20 view .LVU548
  67:user/htu21d/htu21d.c **** }
 1256              		.loc 1 67 11 view .LVU549
 1257              	.LBB211:
 1258              	.LBB208:
  95:user/htu21d/htu21d.c ****     DelayUs(HTU21D_I2C_DELAY);
 1259              		.loc 1 95 5 view .LVU550
  95:user/htu21d/htu21d.c ****     DelayUs(HTU21D_I2C_DELAY);
 1260              		.loc 1 95 5 view .LVU551
 1261 0242 5948     		ldr	r0, .L60
 1262 0244 3A46     		mov	r2, r7
 1263 0246 4021     		movs	r1, #64
 1264 0248 FFF7FEFF 		bl	HAL_GPIO_WritePin
 1265              	.LVL80:
  95:user/htu21d/htu21d.c ****     DelayUs(HTU21D_I2C_DELAY);
 1266              		.loc 1 95 5 view .LVU552
  96:user/htu21d/htu21d.c **** }
 1267              		.loc 1 96 5 view .LVU553
  96:user/htu21d/htu21d.c **** }
 1268              		.loc 1 96 5 is_stmt 0 view .LVU554
ARM GAS  C:\Users\WENHUA~1\AppData\Local\Temp\ccnJErvg.s 			page 37


 1269              	.LBE208:
 1270              	.LBE211:
  65:user/htu21d/htu21d.c **** 
 1271              		.loc 1 65 5 is_stmt 1 view .LVU555
  67:user/htu21d/htu21d.c **** }
 1272              		.loc 1 67 5 view .LVU556
  67:user/htu21d/htu21d.c **** }
 1273              		.loc 1 67 20 view .LVU557
  67:user/htu21d/htu21d.c **** }
 1274              		.loc 1 67 11 view .LVU558
 256:user/htu21d/htu21d.c ****     if (status == 0) {
 1275              		.loc 1 256 5 view .LVU559
 256:user/htu21d/htu21d.c ****     if (status == 0) {
 1276              		.loc 1 256 14 is_stmt 0 view .LVU560
 1277 024c 8020     		movs	r0, #128
 1278 024e FFF7FEFF 		bl	WriteByte
 1279              	.LVL81:
 257:user/htu21d/htu21d.c ****         goto i2c_fail;
 1280              		.loc 1 257 5 is_stmt 1 view .LVU561
 257:user/htu21d/htu21d.c ****         goto i2c_fail;
 1281              		.loc 1 257 8 is_stmt 0 view .LVU562
 1282 0252 0028     		cmp	r0, #0
 1283 0254 3FF4F0AE 		beq	.L23
 261:user/htu21d/htu21d.c ****     if (status == 0) {
 1284              		.loc 1 261 5 is_stmt 1 view .LVU563
 261:user/htu21d/htu21d.c ****     if (status == 0) {
 1285              		.loc 1 261 14 is_stmt 0 view .LVU564
 1286 0258 E320     		movs	r0, #227
 1287              	.LVL82:
 261:user/htu21d/htu21d.c ****     if (status == 0) {
 1288              		.loc 1 261 14 view .LVU565
 1289 025a FFF7FEFF 		bl	WriteByte
 1290              	.LVL83:
 262:user/htu21d/htu21d.c ****         goto i2c_fail;
 1291              		.loc 1 262 5 is_stmt 1 view .LVU566
 262:user/htu21d/htu21d.c ****         goto i2c_fail;
 1292              		.loc 1 262 8 is_stmt 0 view .LVU567
 1293 025e 0028     		cmp	r0, #0
 1294 0260 3FF4EAAE 		beq	.L23
 266:user/htu21d/htu21d.c ****     status = WriteByte(DEVICE_ADDR | READ);
 1295              		.loc 1 266 5 is_stmt 1 view .LVU568
 1296              	.LBB212:
 1297              	.LBI212:
  87:user/htu21d/htu21d.c **** {
 1298              		.loc 1 87 13 view .LVU569
 1299              	.LBB213:
  89:user/htu21d/htu21d.c ****     DelayUs(HTU21D_I2C_DELAY);
 1300              		.loc 1 89 5 view .LVU570
  89:user/htu21d/htu21d.c ****     DelayUs(HTU21D_I2C_DELAY);
 1301              		.loc 1 89 5 view .LVU571
 1302 0264 0122     		movs	r2, #1
 1303 0266 8021     		movs	r1, #128
 1304 0268 4F48     		ldr	r0, .L60
 1305              	.LVL84:
  89:user/htu21d/htu21d.c ****     DelayUs(HTU21D_I2C_DELAY);
 1306              		.loc 1 89 5 is_stmt 0 view .LVU572
 1307 026a FFF7FEFF 		bl	HAL_GPIO_WritePin
ARM GAS  C:\Users\WENHUA~1\AppData\Local\Temp\ccnJErvg.s 			page 38


 1308              	.LVL85:
  89:user/htu21d/htu21d.c ****     DelayUs(HTU21D_I2C_DELAY);
 1309              		.loc 1 89 5 is_stmt 1 view .LVU573
  90:user/htu21d/htu21d.c ****     HTU21D_SCL_HIGH();
 1310              		.loc 1 90 5 view .LVU574
  90:user/htu21d/htu21d.c ****     HTU21D_SCL_HIGH();
 1311              		.loc 1 90 5 is_stmt 0 view .LVU575
 1312              	.LBE213:
 1313              	.LBE212:
  65:user/htu21d/htu21d.c **** 
 1314              		.loc 1 65 5 is_stmt 1 view .LVU576
  67:user/htu21d/htu21d.c **** }
 1315              		.loc 1 67 5 view .LVU577
  67:user/htu21d/htu21d.c **** }
 1316              		.loc 1 67 20 view .LVU578
  67:user/htu21d/htu21d.c **** }
 1317              		.loc 1 67 11 view .LVU579
 1318              	.LBB217:
 1319              	.LBB214:
  91:user/htu21d/htu21d.c ****     DelayUs(HTU21D_I2C_DELAY);
 1320              		.loc 1 91 5 view .LVU580
  91:user/htu21d/htu21d.c ****     DelayUs(HTU21D_I2C_DELAY);
 1321              		.loc 1 91 5 view .LVU581
 1322 026e 4021     		movs	r1, #64
 1323 0270 0122     		movs	r2, #1
 1324 0272 4D48     		ldr	r0, .L60
 1325 0274 FFF7FEFF 		bl	HAL_GPIO_WritePin
 1326              	.LVL86:
  91:user/htu21d/htu21d.c ****     DelayUs(HTU21D_I2C_DELAY);
 1327              		.loc 1 91 5 view .LVU582
  92:user/htu21d/htu21d.c ****     HTU21D_SDA_LOW();
 1328              		.loc 1 92 5 view .LVU583
  92:user/htu21d/htu21d.c ****     HTU21D_SDA_LOW();
 1329              		.loc 1 92 5 is_stmt 0 view .LVU584
 1330              	.LBE214:
 1331              	.LBE217:
  65:user/htu21d/htu21d.c **** 
 1332              		.loc 1 65 5 is_stmt 1 view .LVU585
  67:user/htu21d/htu21d.c **** }
 1333              		.loc 1 67 5 view .LVU586
  67:user/htu21d/htu21d.c **** }
 1334              		.loc 1 67 20 view .LVU587
  67:user/htu21d/htu21d.c **** }
 1335              		.loc 1 67 11 view .LVU588
 1336              	.LBB218:
 1337              	.LBB215:
  93:user/htu21d/htu21d.c ****     DelayUs(HTU21D_I2C_DELAY);
 1338              		.loc 1 93 5 view .LVU589
  93:user/htu21d/htu21d.c ****     DelayUs(HTU21D_I2C_DELAY);
 1339              		.loc 1 93 5 view .LVU590
 1340 0278 3A46     		mov	r2, r7
 1341 027a 8021     		movs	r1, #128
 1342 027c 4A48     		ldr	r0, .L60
 1343 027e FFF7FEFF 		bl	HAL_GPIO_WritePin
 1344              	.LVL87:
  93:user/htu21d/htu21d.c ****     DelayUs(HTU21D_I2C_DELAY);
 1345              		.loc 1 93 5 view .LVU591
ARM GAS  C:\Users\WENHUA~1\AppData\Local\Temp\ccnJErvg.s 			page 39


  94:user/htu21d/htu21d.c ****     HTU21D_SCL_LOW();
 1346              		.loc 1 94 5 view .LVU592
  94:user/htu21d/htu21d.c ****     HTU21D_SCL_LOW();
 1347              		.loc 1 94 5 is_stmt 0 view .LVU593
 1348              	.LBE215:
 1349              	.LBE218:
  65:user/htu21d/htu21d.c **** 
 1350              		.loc 1 65 5 is_stmt 1 view .LVU594
  67:user/htu21d/htu21d.c **** }
 1351              		.loc 1 67 5 view .LVU595
  67:user/htu21d/htu21d.c **** }
 1352              		.loc 1 67 20 view .LVU596
  67:user/htu21d/htu21d.c **** }
 1353              		.loc 1 67 11 view .LVU597
 1354              	.LBB219:
 1355              	.LBB216:
  95:user/htu21d/htu21d.c ****     DelayUs(HTU21D_I2C_DELAY);
 1356              		.loc 1 95 5 view .LVU598
  95:user/htu21d/htu21d.c ****     DelayUs(HTU21D_I2C_DELAY);
 1357              		.loc 1 95 5 view .LVU599
 1358 0282 4948     		ldr	r0, .L60
 1359 0284 3A46     		mov	r2, r7
 1360 0286 4021     		movs	r1, #64
 1361 0288 FFF7FEFF 		bl	HAL_GPIO_WritePin
 1362              	.LVL88:
  95:user/htu21d/htu21d.c ****     DelayUs(HTU21D_I2C_DELAY);
 1363              		.loc 1 95 5 view .LVU600
  96:user/htu21d/htu21d.c **** }
 1364              		.loc 1 96 5 view .LVU601
  96:user/htu21d/htu21d.c **** }
 1365              		.loc 1 96 5 is_stmt 0 view .LVU602
 1366              	.LBE216:
 1367              	.LBE219:
  65:user/htu21d/htu21d.c **** 
 1368              		.loc 1 65 5 is_stmt 1 view .LVU603
  67:user/htu21d/htu21d.c **** }
 1369              		.loc 1 67 5 view .LVU604
  67:user/htu21d/htu21d.c **** }
 1370              		.loc 1 67 20 view .LVU605
  67:user/htu21d/htu21d.c **** }
 1371              		.loc 1 67 11 view .LVU606
 267:user/htu21d/htu21d.c ****     if (status == 0) {
 1372              		.loc 1 267 5 view .LVU607
 267:user/htu21d/htu21d.c ****     if (status == 0) {
 1373              		.loc 1 267 14 is_stmt 0 view .LVU608
 1374 028c 8120     		movs	r0, #129
 1375 028e FFF7FEFF 		bl	WriteByte
 1376              	.LVL89:
 268:user/htu21d/htu21d.c ****         goto i2c_fail;
 1377              		.loc 1 268 5 is_stmt 1 view .LVU609
 268:user/htu21d/htu21d.c ****         goto i2c_fail;
 1378              		.loc 1 268 8 is_stmt 0 view .LVU610
 1379 0292 0028     		cmp	r0, #0
 1380 0294 3FF4D0AE 		beq	.L23
 272:user/htu21d/htu21d.c ****     temp_data = ReadByte();
 1381              		.loc 1 272 5 is_stmt 1 view .LVU611
 1382 0298 3C20     		movs	r0, #60
ARM GAS  C:\Users\WENHUA~1\AppData\Local\Temp\ccnJErvg.s 			page 40


 1383              	.LVL90:
 272:user/htu21d/htu21d.c ****     temp_data = ReadByte();
 1384              		.loc 1 272 5 is_stmt 0 view .LVU612
 1385 029a FFF7FEFF 		bl	HAL_Delay
 1386              	.LVL91:
 273:user/htu21d/htu21d.c ****     temp_data = temp_data << 8;
 1387              		.loc 1 273 5 is_stmt 1 view .LVU613
 1388              	.LBB220:
 1389              	.LBI220:
 198:user/htu21d/htu21d.c **** {
 1390              		.loc 1 198 16 view .LVU614
 1391              	.LBB221:
 200:user/htu21d/htu21d.c ****     uint8_t i;
 1392              		.loc 1 200 5 view .LVU615
 201:user/htu21d/htu21d.c **** 
 1393              		.loc 1 201 5 view .LVU616
 203:user/htu21d/htu21d.c ****     for (i = 0; i < 8; i++) {
 1394              		.loc 1 203 5 view .LVU617
 203:user/htu21d/htu21d.c ****     for (i = 0; i < 8; i++) {
 1395              		.loc 1 203 5 view .LVU618
 1396              	.LBB222:
 1397              	.LBI222:
  70:user/htu21d/htu21d.c **** {
 1398              		.loc 1 70 13 view .LVU619
 1399              	.LBB223:
  72:user/htu21d/htu21d.c **** 
 1400              		.loc 1 72 5 view .LVU620
  74:user/htu21d/htu21d.c ****         GPIO_InitStructure.Pin = HTU21D_SDA_Pin;
 1401              		.loc 1 74 5 view .LVU621
  80:user/htu21d/htu21d.c ****         GPIO_InitStructure.Mode = GPIO_MODE_INPUT;
 1402              		.loc 1 80 9 view .LVU622
  81:user/htu21d/htu21d.c ****         GPIO_InitStructure.Pull = GPIO_PULLUP;
 1403              		.loc 1 81 9 view .LVU623
  82:user/htu21d/htu21d.c ****         HAL_GPIO_Init(HTU21D_SDA_GPIO_Port, &GPIO_InitStructure);
 1404              		.loc 1 82 33 is_stmt 0 view .LVU624
 1405 029e 0121     		movs	r1, #1
  80:user/htu21d/htu21d.c ****         GPIO_InitStructure.Mode = GPIO_MODE_INPUT;
 1406              		.loc 1 80 32 view .LVU625
 1407 02a0 8022     		movs	r2, #128
 1408 02a2 0023     		movs	r3, #0
  82:user/htu21d/htu21d.c ****         HAL_GPIO_Init(HTU21D_SDA_GPIO_Port, &GPIO_InitStructure);
 1409              		.loc 1 82 33 view .LVU626
 1410 02a4 0491     		str	r1, [sp, #16]
  83:user/htu21d/htu21d.c ****     }
 1411              		.loc 1 83 9 view .LVU627
 1412 02a6 4048     		ldr	r0, .L60
 1413 02a8 02A9     		add	r1, sp, #8
  80:user/htu21d/htu21d.c ****         GPIO_InitStructure.Mode = GPIO_MODE_INPUT;
 1414              		.loc 1 80 32 view .LVU628
 1415 02aa CDE90223 		strd	r2, [sp, #8]
  82:user/htu21d/htu21d.c ****         HAL_GPIO_Init(HTU21D_SDA_GPIO_Port, &GPIO_InitStructure);
 1416              		.loc 1 82 9 is_stmt 1 view .LVU629
  83:user/htu21d/htu21d.c ****     }
 1417              		.loc 1 83 9 view .LVU630
 1418 02ae 0824     		movs	r4, #8
 1419 02b0 FFF7FEFF 		bl	HAL_GPIO_Init
 1420              	.LVL92:
ARM GAS  C:\Users\WENHUA~1\AppData\Local\Temp\ccnJErvg.s 			page 41


  83:user/htu21d/htu21d.c ****     }
 1421              		.loc 1 83 9 is_stmt 0 view .LVU631
 1422              	.LBE223:
 1423              	.LBE222:
 203:user/htu21d/htu21d.c ****     for (i = 0; i < 8; i++) {
 1424              		.loc 1 203 5 is_stmt 1 view .LVU632
 204:user/htu21d/htu21d.c ****         HTU21D_SCL_HIGH();
 1425              		.loc 1 204 5 view .LVU633
 204:user/htu21d/htu21d.c ****         HTU21D_SCL_HIGH();
 1426              		.loc 1 204 17 view .LVU634
 205:user/htu21d/htu21d.c ****         DelayUs(HTU21D_I2C_DELAY);
 1427              		.loc 1 205 9 is_stmt 0 view .LVU635
 1428 02b4 3C4D     		ldr	r5, .L60
 1429              	.LVL93:
 1430              	.L29:
 205:user/htu21d/htu21d.c ****         DelayUs(HTU21D_I2C_DELAY);
 1431              		.loc 1 205 9 is_stmt 1 view .LVU636
 205:user/htu21d/htu21d.c ****         DelayUs(HTU21D_I2C_DELAY);
 1432              		.loc 1 205 9 view .LVU637
 1433 02b6 0122     		movs	r2, #1
 1434 02b8 4021     		movs	r1, #64
 1435 02ba 2846     		mov	r0, r5
 1436 02bc FFF7FEFF 		bl	HAL_GPIO_WritePin
 1437              	.LVL94:
 205:user/htu21d/htu21d.c ****         DelayUs(HTU21D_I2C_DELAY);
 1438              		.loc 1 205 9 view .LVU638
 206:user/htu21d/htu21d.c ****         value <<= 1;
 1439              		.loc 1 206 9 view .LVU639
 206:user/htu21d/htu21d.c ****         value <<= 1;
 1440              		.loc 1 206 9 is_stmt 0 view .LVU640
 1441              	.LBE221:
 1442              	.LBE220:
  65:user/htu21d/htu21d.c **** 
 1443              		.loc 1 65 5 is_stmt 1 view .LVU641
  67:user/htu21d/htu21d.c **** }
 1444              		.loc 1 67 5 view .LVU642
  67:user/htu21d/htu21d.c **** }
 1445              		.loc 1 67 20 view .LVU643
  67:user/htu21d/htu21d.c **** }
 1446              		.loc 1 67 11 view .LVU644
 1447              	.LBB239:
 1448              	.LBB236:
 207:user/htu21d/htu21d.c ****         if (HAL_GPIO_ReadPin(HTU21D_SDA_GPIO_Port, HTU21D_SDA_Pin) == GPIO_PIN_SET) {
 1449              		.loc 1 207 9 view .LVU645
 207:user/htu21d/htu21d.c ****         if (HAL_GPIO_ReadPin(HTU21D_SDA_GPIO_Port, HTU21D_SDA_Pin) == GPIO_PIN_SET) {
 1450              		.loc 1 207 15 is_stmt 0 view .LVU646
 1451 02c0 7A00     		lsls	r2, r7, #1
 208:user/htu21d/htu21d.c ****             value += 1;
 1452              		.loc 1 208 13 view .LVU647
 1453 02c2 8021     		movs	r1, #128
 1454 02c4 2846     		mov	r0, r5
 207:user/htu21d/htu21d.c ****         if (HAL_GPIO_ReadPin(HTU21D_SDA_GPIO_Port, HTU21D_SDA_Pin) == GPIO_PIN_SET) {
 1455              		.loc 1 207 15 view .LVU648
 1456 02c6 D7B2     		uxtb	r7, r2
 1457              	.LVL95:
 208:user/htu21d/htu21d.c ****             value += 1;
 1458              		.loc 1 208 9 is_stmt 1 view .LVU649
ARM GAS  C:\Users\WENHUA~1\AppData\Local\Temp\ccnJErvg.s 			page 42


 208:user/htu21d/htu21d.c ****             value += 1;
 1459              		.loc 1 208 13 is_stmt 0 view .LVU650
 1460 02c8 FFF7FEFF 		bl	HAL_GPIO_ReadPin
 1461              	.LVL96:
 1462 02cc 0346     		mov	r3, r0
 208:user/htu21d/htu21d.c ****             value += 1;
 1463              		.loc 1 208 12 view .LVU651
 1464 02ce 012B     		cmp	r3, #1
 209:user/htu21d/htu21d.c ****         }
 1465              		.loc 1 209 13 is_stmt 1 view .LVU652
 209:user/htu21d/htu21d.c ****         }
 1466              		.loc 1 209 19 is_stmt 0 view .LVU653
 1467 02d0 08BF     		it	eq
 1468 02d2 0137     		addeq	r7, r7, #1
 1469              	.LVL97:
 211:user/htu21d/htu21d.c ****     }
 1470              		.loc 1 211 9 view .LVU654
 1471 02d4 4FF00002 		mov	r2, #0
 1472 02d8 4FF04001 		mov	r1, #64
 1473 02dc 2846     		mov	r0, r5
 204:user/htu21d/htu21d.c ****         HTU21D_SCL_HIGH();
 1474              		.loc 1 204 5 view .LVU655
 1475 02de 04F1FF34 		add	r4, r4, #-1
 209:user/htu21d/htu21d.c ****         }
 1476              		.loc 1 209 19 view .LVU656
 1477 02e2 08BF     		it	eq
 1478 02e4 FFB2     		uxtbeq	r7, r7
 1479              	.LVL98:
 211:user/htu21d/htu21d.c ****     }
 1480              		.loc 1 211 9 is_stmt 1 view .LVU657
 211:user/htu21d/htu21d.c ****     }
 1481              		.loc 1 211 9 view .LVU658
 1482 02e6 FFF7FEFF 		bl	HAL_GPIO_WritePin
 1483              	.LVL99:
 211:user/htu21d/htu21d.c ****     }
 1484              		.loc 1 211 9 view .LVU659
 204:user/htu21d/htu21d.c ****         HTU21D_SCL_HIGH();
 1485              		.loc 1 204 24 view .LVU660
 204:user/htu21d/htu21d.c ****         HTU21D_SCL_HIGH();
 1486              		.loc 1 204 17 view .LVU661
 204:user/htu21d/htu21d.c ****         HTU21D_SCL_HIGH();
 1487              		.loc 1 204 5 is_stmt 0 view .LVU662
 1488 02ea 14F0FF04 		ands	r4, r4, #255
 1489 02ee E2D1     		bne	.L29
 213:user/htu21d/htu21d.c **** 
 1490              		.loc 1 213 5 is_stmt 1 view .LVU663
 213:user/htu21d/htu21d.c **** 
 1491              		.loc 1 213 5 view .LVU664
 1492              	.LVL100:
 1493              	.LBB224:
 1494              	.LBI224:
  70:user/htu21d/htu21d.c **** {
 1495              		.loc 1 70 13 view .LVU665
 1496              	.LBB225:
  72:user/htu21d/htu21d.c **** 
 1497              		.loc 1 72 5 view .LVU666
  74:user/htu21d/htu21d.c ****         GPIO_InitStructure.Pin = HTU21D_SDA_Pin;
ARM GAS  C:\Users\WENHUA~1\AppData\Local\Temp\ccnJErvg.s 			page 43


 1498              		.loc 1 74 5 view .LVU667
 1499              	.LBB226:
 1500              	.LBI226:
  70:user/htu21d/htu21d.c **** {
 1501              		.loc 1 70 13 view .LVU668
 1502              	.LBB227:
  75:user/htu21d/htu21d.c ****         GPIO_InitStructure.Mode = GPIO_MODE_OUTPUT_OD;
 1503              		.loc 1 75 9 view .LVU669
  76:user/htu21d/htu21d.c ****         GPIO_InitStructure.Speed = GPIO_SPEED_FREQ_LOW;
 1504              		.loc 1 76 9 view .LVU670
  75:user/htu21d/htu21d.c ****         GPIO_InitStructure.Mode = GPIO_MODE_OUTPUT_OD;
 1505              		.loc 1 75 32 is_stmt 0 view .LVU671
 1506 02f0 8022     		movs	r2, #128
 1507 02f2 1123     		movs	r3, #17
  78:user/htu21d/htu21d.c ****     } else {
 1508              		.loc 1 78 9 view .LVU672
 1509 02f4 2C48     		ldr	r0, .L60
  75:user/htu21d/htu21d.c ****         GPIO_InitStructure.Mode = GPIO_MODE_OUTPUT_OD;
 1510              		.loc 1 75 32 view .LVU673
 1511 02f6 CDE90223 		strd	r2, [sp, #8]
  77:user/htu21d/htu21d.c ****         HAL_GPIO_Init(HTU21D_SDA_GPIO_Port, &GPIO_InitStructure);
 1512              		.loc 1 77 9 is_stmt 1 view .LVU674
 1513              	.LBE227:
 1514              	.LBE226:
 1515              	.LBE225:
 1516              	.LBE224:
 1517              	.LBE236:
 1518              	.LBE239:
 274:user/htu21d/htu21d.c ****     AckBus();
 1519              		.loc 1 274 15 is_stmt 0 view .LVU675
 1520 02fa 4FEA0728 		lsl	r8, r7, #8
 1521              	.LBB240:
 1522              	.LBB237:
 1523              	.LBB234:
 1524              	.LBB232:
 1525              	.LBB230:
 1526              	.LBB228:
  77:user/htu21d/htu21d.c ****         HAL_GPIO_Init(HTU21D_SDA_GPIO_Port, &GPIO_InitStructure);
 1527              		.loc 1 77 34 view .LVU676
 1528 02fe 0223     		movs	r3, #2
 1529              	.LBE228:
 1530              	.LBE230:
 1531              	.LBE232:
 1532              	.LBE234:
 1533              	.LBE237:
 1534              	.LBE240:
 1535              	.LBB241:
 1536              	.LBB242:
 205:user/htu21d/htu21d.c ****         DelayUs(HTU21D_I2C_DELAY);
 1537              		.loc 1 205 9 view .LVU677
 1538 0300 0746     		mov	r7, r0
 1539              	.LVL101:
 205:user/htu21d/htu21d.c ****         DelayUs(HTU21D_I2C_DELAY);
 1540              		.loc 1 205 9 view .LVU678
 1541              	.LBE242:
 1542              	.LBE241:
 1543              	.LBB251:
ARM GAS  C:\Users\WENHUA~1\AppData\Local\Temp\ccnJErvg.s 			page 44


 1544              	.LBB238:
 1545              	.LBB235:
 1546              	.LBB233:
 1547              	.LBB231:
 1548              	.LBB229:
  78:user/htu21d/htu21d.c ****     } else {
 1549              		.loc 1 78 9 view .LVU679
 1550 0302 02A9     		add	r1, sp, #8
  77:user/htu21d/htu21d.c ****         HAL_GPIO_Init(HTU21D_SDA_GPIO_Port, &GPIO_InitStructure);
 1551              		.loc 1 77 34 view .LVU680
 1552 0304 0593     		str	r3, [sp, #20]
  78:user/htu21d/htu21d.c ****     } else {
 1553              		.loc 1 78 9 is_stmt 1 view .LVU681
 1554 0306 FFF7FEFF 		bl	HAL_GPIO_Init
 1555              	.LVL102:
  78:user/htu21d/htu21d.c ****     } else {
 1556              		.loc 1 78 9 is_stmt 0 view .LVU682
 1557              	.LBE229:
 1558              	.LBE231:
 1559              	.LBE233:
 1560              	.LBE235:
 213:user/htu21d/htu21d.c **** 
 1561              		.loc 1 213 5 is_stmt 1 view .LVU683
 215:user/htu21d/htu21d.c **** }
 1562              		.loc 1 215 5 view .LVU684
 215:user/htu21d/htu21d.c **** }
 1563              		.loc 1 215 5 is_stmt 0 view .LVU685
 1564              	.LBE238:
 1565              	.LBE251:
 274:user/htu21d/htu21d.c ****     AckBus();
 1566              		.loc 1 274 5 is_stmt 1 view .LVU686
 275:user/htu21d/htu21d.c ****     temp_data += ReadByte();
 1567              		.loc 1 275 5 view .LVU687
 1568              	.LBB252:
 1569              	.LBI252:
 109:user/htu21d/htu21d.c **** {
 1570              		.loc 1 109 13 view .LVU688
 1571              	.LBB253:
 111:user/htu21d/htu21d.c ****     DelayUs(HTU21D_I2C_DELAY);
 1572              		.loc 1 111 5 view .LVU689
 111:user/htu21d/htu21d.c ****     DelayUs(HTU21D_I2C_DELAY);
 1573              		.loc 1 111 5 view .LVU690
 1574 030a 8021     		movs	r1, #128
 1575 030c 3846     		mov	r0, r7
 1576 030e 2246     		mov	r2, r4
 1577 0310 FFF7FEFF 		bl	HAL_GPIO_WritePin
 1578              	.LVL103:
 111:user/htu21d/htu21d.c ****     DelayUs(HTU21D_I2C_DELAY);
 1579              		.loc 1 111 5 view .LVU691
 112:user/htu21d/htu21d.c ****     HTU21D_SCL_LOW();
 1580              		.loc 1 112 5 view .LVU692
 112:user/htu21d/htu21d.c ****     HTU21D_SCL_LOW();
 1581              		.loc 1 112 5 is_stmt 0 view .LVU693
 1582              	.LBE253:
 1583              	.LBE252:
  65:user/htu21d/htu21d.c **** 
 1584              		.loc 1 65 5 is_stmt 1 view .LVU694
ARM GAS  C:\Users\WENHUA~1\AppData\Local\Temp\ccnJErvg.s 			page 45


  67:user/htu21d/htu21d.c **** }
 1585              		.loc 1 67 5 view .LVU695
  67:user/htu21d/htu21d.c **** }
 1586              		.loc 1 67 20 view .LVU696
  67:user/htu21d/htu21d.c **** }
 1587              		.loc 1 67 11 view .LVU697
 1588              	.LBB258:
 1589              	.LBB254:
 113:user/htu21d/htu21d.c ****     DelayUs(HTU21D_I2C_DELAY);
 1590              		.loc 1 113 5 view .LVU698
 113:user/htu21d/htu21d.c ****     DelayUs(HTU21D_I2C_DELAY);
 1591              		.loc 1 113 5 view .LVU699
 1592 0314 2246     		mov	r2, r4
 1593 0316 4021     		movs	r1, #64
 1594 0318 3846     		mov	r0, r7
 1595 031a FFF7FEFF 		bl	HAL_GPIO_WritePin
 1596              	.LVL104:
 113:user/htu21d/htu21d.c ****     DelayUs(HTU21D_I2C_DELAY);
 1597              		.loc 1 113 5 view .LVU700
 114:user/htu21d/htu21d.c ****     HTU21D_SCL_HIGH();
 1598              		.loc 1 114 5 view .LVU701
 114:user/htu21d/htu21d.c ****     HTU21D_SCL_HIGH();
 1599              		.loc 1 114 5 is_stmt 0 view .LVU702
 1600              	.LBE254:
 1601              	.LBE258:
  65:user/htu21d/htu21d.c **** 
 1602              		.loc 1 65 5 is_stmt 1 view .LVU703
  67:user/htu21d/htu21d.c **** }
 1603              		.loc 1 67 5 view .LVU704
  67:user/htu21d/htu21d.c **** }
 1604              		.loc 1 67 20 view .LVU705
  67:user/htu21d/htu21d.c **** }
 1605              		.loc 1 67 11 view .LVU706
 1606              	.LBB259:
 1607              	.LBB255:
 115:user/htu21d/htu21d.c ****     DelayUs(HTU21D_I2C_DELAY);
 1608              		.loc 1 115 5 view .LVU707
 115:user/htu21d/htu21d.c ****     DelayUs(HTU21D_I2C_DELAY);
 1609              		.loc 1 115 5 view .LVU708
 1610 031e 4021     		movs	r1, #64
 1611 0320 3846     		mov	r0, r7
 1612 0322 0122     		movs	r2, #1
 1613 0324 FFF7FEFF 		bl	HAL_GPIO_WritePin
 1614              	.LVL105:
 115:user/htu21d/htu21d.c ****     DelayUs(HTU21D_I2C_DELAY);
 1615              		.loc 1 115 5 view .LVU709
 116:user/htu21d/htu21d.c ****     HTU21D_SCL_LOW();
 1616              		.loc 1 116 5 view .LVU710
 116:user/htu21d/htu21d.c ****     HTU21D_SCL_LOW();
 1617              		.loc 1 116 5 is_stmt 0 view .LVU711
 1618              	.LBE255:
 1619              	.LBE259:
  65:user/htu21d/htu21d.c **** 
 1620              		.loc 1 65 5 is_stmt 1 view .LVU712
  67:user/htu21d/htu21d.c **** }
 1621              		.loc 1 67 5 view .LVU713
  67:user/htu21d/htu21d.c **** }
ARM GAS  C:\Users\WENHUA~1\AppData\Local\Temp\ccnJErvg.s 			page 46


 1622              		.loc 1 67 20 view .LVU714
  67:user/htu21d/htu21d.c **** }
 1623              		.loc 1 67 11 view .LVU715
 1624              	.LBB260:
 1625              	.LBB256:
 117:user/htu21d/htu21d.c ****     DelayUs(HTU21D_I2C_DELAY);
 1626              		.loc 1 117 5 view .LVU716
 117:user/htu21d/htu21d.c ****     DelayUs(HTU21D_I2C_DELAY);
 1627              		.loc 1 117 5 view .LVU717
 1628 0328 2246     		mov	r2, r4
 1629 032a 4021     		movs	r1, #64
 1630 032c 3846     		mov	r0, r7
 1631 032e FFF7FEFF 		bl	HAL_GPIO_WritePin
 1632              	.LVL106:
 117:user/htu21d/htu21d.c ****     DelayUs(HTU21D_I2C_DELAY);
 1633              		.loc 1 117 5 view .LVU718
 118:user/htu21d/htu21d.c ****     HTU21D_SDA_HIGH();
 1634              		.loc 1 118 5 view .LVU719
 118:user/htu21d/htu21d.c ****     HTU21D_SDA_HIGH();
 1635              		.loc 1 118 5 is_stmt 0 view .LVU720
 1636              	.LBE256:
 1637              	.LBE260:
  65:user/htu21d/htu21d.c **** 
 1638              		.loc 1 65 5 is_stmt 1 view .LVU721
  67:user/htu21d/htu21d.c **** }
 1639              		.loc 1 67 5 view .LVU722
  67:user/htu21d/htu21d.c **** }
 1640              		.loc 1 67 20 view .LVU723
  67:user/htu21d/htu21d.c **** }
 1641              		.loc 1 67 11 view .LVU724
 1642              	.LBB261:
 1643              	.LBB257:
 119:user/htu21d/htu21d.c ****     DelayUs(HTU21D_I2C_DELAY);
 1644              		.loc 1 119 5 view .LVU725
 119:user/htu21d/htu21d.c ****     DelayUs(HTU21D_I2C_DELAY);
 1645              		.loc 1 119 5 view .LVU726
 1646 0332 0122     		movs	r2, #1
 1647 0334 8021     		movs	r1, #128
 1648 0336 3846     		mov	r0, r7
 1649 0338 FFF7FEFF 		bl	HAL_GPIO_WritePin
 1650              	.LVL107:
 119:user/htu21d/htu21d.c ****     DelayUs(HTU21D_I2C_DELAY);
 1651              		.loc 1 119 5 view .LVU727
 120:user/htu21d/htu21d.c **** }
 1652              		.loc 1 120 5 view .LVU728
 120:user/htu21d/htu21d.c **** }
 1653              		.loc 1 120 5 is_stmt 0 view .LVU729
 1654              	.LBE257:
 1655              	.LBE261:
  65:user/htu21d/htu21d.c **** 
 1656              		.loc 1 65 5 is_stmt 1 view .LVU730
  67:user/htu21d/htu21d.c **** }
 1657              		.loc 1 67 5 view .LVU731
  67:user/htu21d/htu21d.c **** }
 1658              		.loc 1 67 20 view .LVU732
  67:user/htu21d/htu21d.c **** }
 1659              		.loc 1 67 11 view .LVU733
ARM GAS  C:\Users\WENHUA~1\AppData\Local\Temp\ccnJErvg.s 			page 47


 276:user/htu21d/htu21d.c ****     NoAckBus();
 1660              		.loc 1 276 5 view .LVU734
 1661              	.LBB262:
 1662              	.LBI241:
 198:user/htu21d/htu21d.c **** {
 1663              		.loc 1 198 16 view .LVU735
 1664              	.LBB249:
 200:user/htu21d/htu21d.c ****     uint8_t i;
 1665              		.loc 1 200 5 view .LVU736
 201:user/htu21d/htu21d.c **** 
 1666              		.loc 1 201 5 view .LVU737
 203:user/htu21d/htu21d.c ****     for (i = 0; i < 8; i++) {
 1667              		.loc 1 203 5 view .LVU738
 203:user/htu21d/htu21d.c ****     for (i = 0; i < 8; i++) {
 1668              		.loc 1 203 5 view .LVU739
 1669              	.LBB243:
 1670              	.LBI243:
  70:user/htu21d/htu21d.c **** {
 1671              		.loc 1 70 13 view .LVU740
 1672              	.LBB244:
  72:user/htu21d/htu21d.c **** 
 1673              		.loc 1 72 5 view .LVU741
  74:user/htu21d/htu21d.c ****         GPIO_InitStructure.Pin = HTU21D_SDA_Pin;
 1674              		.loc 1 74 5 view .LVU742
  80:user/htu21d/htu21d.c ****         GPIO_InitStructure.Mode = GPIO_MODE_INPUT;
 1675              		.loc 1 80 9 view .LVU743
  81:user/htu21d/htu21d.c ****         GPIO_InitStructure.Pull = GPIO_PULLUP;
 1676              		.loc 1 81 9 view .LVU744
  82:user/htu21d/htu21d.c ****         HAL_GPIO_Init(HTU21D_SDA_GPIO_Port, &GPIO_InitStructure);
 1677              		.loc 1 82 33 is_stmt 0 view .LVU745
 1678 033c 0123     		movs	r3, #1
 1679 033e 0825     		movs	r5, #8
  80:user/htu21d/htu21d.c ****         GPIO_InitStructure.Mode = GPIO_MODE_INPUT;
 1680              		.loc 1 80 32 view .LVU746
 1681 0340 8022     		movs	r2, #128
  82:user/htu21d/htu21d.c ****         HAL_GPIO_Init(HTU21D_SDA_GPIO_Port, &GPIO_InitStructure);
 1682              		.loc 1 82 33 view .LVU747
 1683 0342 0493     		str	r3, [sp, #16]
  80:user/htu21d/htu21d.c ****         GPIO_InitStructure.Mode = GPIO_MODE_INPUT;
 1684              		.loc 1 80 32 view .LVU748
 1685 0344 0023     		movs	r3, #0
  83:user/htu21d/htu21d.c ****     }
 1686              		.loc 1 83 9 view .LVU749
 1687 0346 3846     		mov	r0, r7
 1688 0348 0DEB0501 		add	r1, sp, r5
  80:user/htu21d/htu21d.c ****         GPIO_InitStructure.Mode = GPIO_MODE_INPUT;
 1689              		.loc 1 80 32 view .LVU750
 1690 034c CDE90223 		strd	r2, [sp, #8]
  82:user/htu21d/htu21d.c ****         HAL_GPIO_Init(HTU21D_SDA_GPIO_Port, &GPIO_InitStructure);
 1691              		.loc 1 82 9 is_stmt 1 view .LVU751
  83:user/htu21d/htu21d.c ****     }
 1692              		.loc 1 83 9 view .LVU752
 1693 0350 FFF7FEFF 		bl	HAL_GPIO_Init
 1694              	.LVL108:
  83:user/htu21d/htu21d.c ****     }
 1695              		.loc 1 83 9 is_stmt 0 view .LVU753
 1696              	.LBE244:
ARM GAS  C:\Users\WENHUA~1\AppData\Local\Temp\ccnJErvg.s 			page 48


 1697              	.LBE243:
 203:user/htu21d/htu21d.c ****     for (i = 0; i < 8; i++) {
 1698              		.loc 1 203 5 is_stmt 1 view .LVU754
 204:user/htu21d/htu21d.c ****         HTU21D_SCL_HIGH();
 1699              		.loc 1 204 5 view .LVU755
 204:user/htu21d/htu21d.c ****         HTU21D_SCL_HIGH();
 1700              		.loc 1 204 17 view .LVU756
 1701              	.L31:
 205:user/htu21d/htu21d.c ****         DelayUs(HTU21D_I2C_DELAY);
 1702              		.loc 1 205 9 view .LVU757
 205:user/htu21d/htu21d.c ****         DelayUs(HTU21D_I2C_DELAY);
 1703              		.loc 1 205 9 view .LVU758
 1704 0354 0122     		movs	r2, #1
 1705 0356 4021     		movs	r1, #64
 1706 0358 3846     		mov	r0, r7
 1707 035a FFF7FEFF 		bl	HAL_GPIO_WritePin
 1708              	.LVL109:
 205:user/htu21d/htu21d.c ****         DelayUs(HTU21D_I2C_DELAY);
 1709              		.loc 1 205 9 view .LVU759
 206:user/htu21d/htu21d.c ****         value <<= 1;
 1710              		.loc 1 206 9 view .LVU760
 206:user/htu21d/htu21d.c ****         value <<= 1;
 1711              		.loc 1 206 9 is_stmt 0 view .LVU761
 1712              	.LBE249:
 1713              	.LBE262:
  65:user/htu21d/htu21d.c **** 
 1714              		.loc 1 65 5 is_stmt 1 view .LVU762
  67:user/htu21d/htu21d.c **** }
 1715              		.loc 1 67 5 view .LVU763
  67:user/htu21d/htu21d.c **** }
 1716              		.loc 1 67 20 view .LVU764
  67:user/htu21d/htu21d.c **** }
 1717              		.loc 1 67 11 view .LVU765
 1718              	.LBB263:
 1719              	.LBB250:
 207:user/htu21d/htu21d.c ****         if (HAL_GPIO_ReadPin(HTU21D_SDA_GPIO_Port, HTU21D_SDA_Pin) == GPIO_PIN_SET) {
 1720              		.loc 1 207 9 view .LVU766
 208:user/htu21d/htu21d.c ****             value += 1;
 1721              		.loc 1 208 13 is_stmt 0 view .LVU767
 1722 035e 8021     		movs	r1, #128
 1723 0360 3846     		mov	r0, r7
 1724 0362 FFF7FEFF 		bl	HAL_GPIO_ReadPin
 1725              	.LVL110:
 1726 0366 0346     		mov	r3, r0
 207:user/htu21d/htu21d.c ****         if (HAL_GPIO_ReadPin(HTU21D_SDA_GPIO_Port, HTU21D_SDA_Pin) == GPIO_PIN_SET) {
 1727              		.loc 1 207 15 view .LVU768
 1728 0368 6400     		lsls	r4, r4, #1
 1729              	.LVL111:
 208:user/htu21d/htu21d.c ****             value += 1;
 1730              		.loc 1 208 12 view .LVU769
 1731 036a 012B     		cmp	r3, #1
 207:user/htu21d/htu21d.c ****         if (HAL_GPIO_ReadPin(HTU21D_SDA_GPIO_Port, HTU21D_SDA_Pin) == GPIO_PIN_SET) {
 1732              		.loc 1 207 15 view .LVU770
 1733 036c E4B2     		uxtb	r4, r4
 1734              	.LVL112:
 208:user/htu21d/htu21d.c ****             value += 1;
 1735              		.loc 1 208 9 is_stmt 1 view .LVU771
ARM GAS  C:\Users\WENHUA~1\AppData\Local\Temp\ccnJErvg.s 			page 49


 209:user/htu21d/htu21d.c ****         }
 1736              		.loc 1 209 13 view .LVU772
 209:user/htu21d/htu21d.c ****         }
 1737              		.loc 1 209 19 is_stmt 0 view .LVU773
 1738 036e 08BF     		it	eq
 1739 0370 0134     		addeq	r4, r4, #1
 1740              	.LVL113:
 211:user/htu21d/htu21d.c ****     }
 1741              		.loc 1 211 9 view .LVU774
 1742 0372 4FF00002 		mov	r2, #0
 1743 0376 4FF04001 		mov	r1, #64
 1744 037a 3846     		mov	r0, r7
 204:user/htu21d/htu21d.c ****         HTU21D_SCL_HIGH();
 1745              		.loc 1 204 5 view .LVU775
 1746 037c 05F1FF35 		add	r5, r5, #-1
 209:user/htu21d/htu21d.c ****         }
 1747              		.loc 1 209 19 view .LVU776
 1748 0380 08BF     		it	eq
 1749 0382 E4B2     		uxtbeq	r4, r4
 1750              	.LVL114:
 211:user/htu21d/htu21d.c ****     }
 1751              		.loc 1 211 9 is_stmt 1 view .LVU777
 211:user/htu21d/htu21d.c ****     }
 1752              		.loc 1 211 9 view .LVU778
 1753 0384 FFF7FEFF 		bl	HAL_GPIO_WritePin
 1754              	.LVL115:
 211:user/htu21d/htu21d.c ****     }
 1755              		.loc 1 211 9 view .LVU779
 204:user/htu21d/htu21d.c ****         HTU21D_SCL_HIGH();
 1756              		.loc 1 204 24 view .LVU780
 204:user/htu21d/htu21d.c ****         HTU21D_SCL_HIGH();
 1757              		.loc 1 204 17 view .LVU781
 204:user/htu21d/htu21d.c ****         HTU21D_SCL_HIGH();
 1758              		.loc 1 204 5 is_stmt 0 view .LVU782
 1759 0388 15F0FF05 		ands	r5, r5, #255
 1760 038c E2D1     		bne	.L31
 213:user/htu21d/htu21d.c **** 
 1761              		.loc 1 213 5 is_stmt 1 view .LVU783
 213:user/htu21d/htu21d.c **** 
 1762              		.loc 1 213 5 view .LVU784
 1763              	.LVL116:
 1764              	.LBB245:
 1765              	.LBI245:
  70:user/htu21d/htu21d.c **** {
 1766              		.loc 1 70 13 view .LVU785
 1767              	.LBB246:
  72:user/htu21d/htu21d.c **** 
 1768              		.loc 1 72 5 view .LVU786
  74:user/htu21d/htu21d.c ****         GPIO_InitStructure.Pin = HTU21D_SDA_Pin;
 1769              		.loc 1 74 5 view .LVU787
 1770              	.LBB247:
 1771              	.LBI247:
  70:user/htu21d/htu21d.c **** {
 1772              		.loc 1 70 13 view .LVU788
 1773              	.LBB248:
  75:user/htu21d/htu21d.c ****         GPIO_InitStructure.Mode = GPIO_MODE_OUTPUT_OD;
 1774              		.loc 1 75 9 view .LVU789
ARM GAS  C:\Users\WENHUA~1\AppData\Local\Temp\ccnJErvg.s 			page 50


  76:user/htu21d/htu21d.c ****         GPIO_InitStructure.Speed = GPIO_SPEED_FREQ_LOW;
 1775              		.loc 1 76 9 view .LVU790
  77:user/htu21d/htu21d.c ****         HAL_GPIO_Init(HTU21D_SDA_GPIO_Port, &GPIO_InitStructure);
 1776              		.loc 1 77 34 is_stmt 0 view .LVU791
 1777 038e 0223     		movs	r3, #2
  75:user/htu21d/htu21d.c ****         GPIO_InitStructure.Mode = GPIO_MODE_OUTPUT_OD;
 1778              		.loc 1 75 32 view .LVU792
 1779 0390 8022     		movs	r2, #128
  77:user/htu21d/htu21d.c ****         HAL_GPIO_Init(HTU21D_SDA_GPIO_Port, &GPIO_InitStructure);
 1780              		.loc 1 77 34 view .LVU793
 1781 0392 0593     		str	r3, [sp, #20]
  75:user/htu21d/htu21d.c ****         GPIO_InitStructure.Mode = GPIO_MODE_OUTPUT_OD;
 1782              		.loc 1 75 32 view .LVU794
 1783 0394 1123     		movs	r3, #17
  78:user/htu21d/htu21d.c ****     } else {
 1784              		.loc 1 78 9 view .LVU795
 1785 0396 0448     		ldr	r0, .L60
 1786 0398 02A9     		add	r1, sp, #8
  75:user/htu21d/htu21d.c ****         GPIO_InitStructure.Mode = GPIO_MODE_OUTPUT_OD;
 1787              		.loc 1 75 32 view .LVU796
 1788 039a CDE90223 		strd	r2, [sp, #8]
  77:user/htu21d/htu21d.c ****         HAL_GPIO_Init(HTU21D_SDA_GPIO_Port, &GPIO_InitStructure);
 1789              		.loc 1 77 9 is_stmt 1 view .LVU797
  78:user/htu21d/htu21d.c ****     } else {
 1790              		.loc 1 78 9 view .LVU798
 1791 039e FFF7FEFF 		bl	HAL_GPIO_Init
 1792              	.LVL117:
  78:user/htu21d/htu21d.c ****     } else {
 1793              		.loc 1 78 9 is_stmt 0 view .LVU799
 1794              	.LBE248:
 1795              	.LBE247:
 1796              	.LBE246:
 1797              	.LBE245:
 213:user/htu21d/htu21d.c **** 
 1798              		.loc 1 213 5 is_stmt 1 view .LVU800
 215:user/htu21d/htu21d.c **** }
 1799              		.loc 1 215 5 view .LVU801
 215:user/htu21d/htu21d.c **** }
 1800              		.loc 1 215 5 is_stmt 0 view .LVU802
 1801              	.LBE250:
 1802              	.LBE263:
 1803              	.LBB264:
 1804              	.LBB265:
 125:user/htu21d/htu21d.c ****     DelayUs(HTU21D_I2C_DELAY);
 1805              		.loc 1 125 5 view .LVU803
 1806 03a2 0122     		movs	r2, #1
 1807 03a4 8021     		movs	r1, #128
 1808 03a6 09E0     		b	.L61
 1809              	.L62:
 1810              		.align	2
 1811              	.L60:
 1812 03a8 000C0140 		.word	1073810432
 1813 03ac 0000F03E 		.word	1055916032
 1814 03b0 00405F40 		.word	1079984128
 1815 03b4 00001840 		.word	1075314688
 1816 03b8 00000000 		.word	.LANCHOR0
 1817              	.L61:
ARM GAS  C:\Users\WENHUA~1\AppData\Local\Temp\ccnJErvg.s 			page 51


 1818 03bc 2A48     		ldr	r0, .L63+16
 1819 03be FFF7FEFF 		bl	HAL_GPIO_WritePin
 1820              	.LVL118:
 127:user/htu21d/htu21d.c ****     DelayUs(HTU21D_I2C_DELAY);
 1821              		.loc 1 127 5 view .LVU804
 1822 03c2 4021     		movs	r1, #64
 1823 03c4 0122     		movs	r2, #1
 1824 03c6 2848     		ldr	r0, .L63+16
 1825 03c8 FFF7FEFF 		bl	HAL_GPIO_WritePin
 1826              	.LVL119:
 129:user/htu21d/htu21d.c **** }
 1827              		.loc 1 129 5 view .LVU805
 1828 03cc 2A46     		mov	r2, r5
 1829 03ce 4021     		movs	r1, #64
 1830 03d0 2548     		ldr	r0, .L63+16
 1831 03d2 FFF7FEFF 		bl	HAL_GPIO_WritePin
 1832              	.LVL120:
 1833              	.LBE265:
 1834              	.LBE264:
 1835              	.LBB269:
 1836              	.LBB270:
 101:user/htu21d/htu21d.c ****     DelayUs(HTU21D_I2C_DELAY);
 1837              		.loc 1 101 5 view .LVU806
 1838 03d6 2A46     		mov	r2, r5
 1839 03d8 8021     		movs	r1, #128
 1840 03da 2348     		ldr	r0, .L63+16
 1841 03dc FFF7FEFF 		bl	HAL_GPIO_WritePin
 1842              	.LVL121:
 1843              	.LBE270:
 1844              	.LBE269:
 276:user/htu21d/htu21d.c ****     NoAckBus();
 1845              		.loc 1 276 15 view .LVU807
 1846 03e0 4444     		add	r4, r4, r8
 1847              	.LBB275:
 1848              	.LBB271:
 103:user/htu21d/htu21d.c ****     DelayUs(HTU21D_I2C_DELAY);
 1849              		.loc 1 103 5 view .LVU808
 1850 03e2 0122     		movs	r2, #1
 1851 03e4 4021     		movs	r1, #64
 1852 03e6 2048     		ldr	r0, .L63+16
 1853 03e8 FFF7FEFF 		bl	HAL_GPIO_WritePin
 1854              	.LVL122:
 1855              	.LBE271:
 1856              	.LBE275:
 276:user/htu21d/htu21d.c ****     NoAckBus();
 1857              		.loc 1 276 15 view .LVU809
 1858 03ec A4B2     		uxth	r4, r4
 1859              	.LVL123:
 277:user/htu21d/htu21d.c ****     StopBus();
 1860              		.loc 1 277 5 is_stmt 1 view .LVU810
 1861              	.LBB276:
 1862              	.LBI264:
 123:user/htu21d/htu21d.c **** {
 1863              		.loc 1 123 13 view .LVU811
 1864              	.LBB266:
 125:user/htu21d/htu21d.c ****     DelayUs(HTU21D_I2C_DELAY);
 1865              		.loc 1 125 5 view .LVU812
ARM GAS  C:\Users\WENHUA~1\AppData\Local\Temp\ccnJErvg.s 			page 52


 125:user/htu21d/htu21d.c ****     DelayUs(HTU21D_I2C_DELAY);
 1866              		.loc 1 125 5 view .LVU813
 125:user/htu21d/htu21d.c ****     DelayUs(HTU21D_I2C_DELAY);
 1867              		.loc 1 125 5 view .LVU814
 126:user/htu21d/htu21d.c ****     HTU21D_SCL_HIGH();
 1868              		.loc 1 126 5 view .LVU815
 126:user/htu21d/htu21d.c ****     HTU21D_SCL_HIGH();
 1869              		.loc 1 126 5 is_stmt 0 view .LVU816
 1870              	.LBE266:
 1871              	.LBE276:
  65:user/htu21d/htu21d.c **** 
 1872              		.loc 1 65 5 is_stmt 1 view .LVU817
  67:user/htu21d/htu21d.c **** }
 1873              		.loc 1 67 5 view .LVU818
  67:user/htu21d/htu21d.c **** }
 1874              		.loc 1 67 20 view .LVU819
  67:user/htu21d/htu21d.c **** }
 1875              		.loc 1 67 11 view .LVU820
 1876              	.LBB277:
 1877              	.LBB267:
 127:user/htu21d/htu21d.c ****     DelayUs(HTU21D_I2C_DELAY);
 1878              		.loc 1 127 5 view .LVU821
 127:user/htu21d/htu21d.c ****     DelayUs(HTU21D_I2C_DELAY);
 1879              		.loc 1 127 5 view .LVU822
 127:user/htu21d/htu21d.c ****     DelayUs(HTU21D_I2C_DELAY);
 1880              		.loc 1 127 5 view .LVU823
 128:user/htu21d/htu21d.c ****     HTU21D_SCL_LOW();
 1881              		.loc 1 128 5 view .LVU824
 128:user/htu21d/htu21d.c ****     HTU21D_SCL_LOW();
 1882              		.loc 1 128 5 is_stmt 0 view .LVU825
 1883              	.LBE267:
 1884              	.LBE277:
  65:user/htu21d/htu21d.c **** 
 1885              		.loc 1 65 5 is_stmt 1 view .LVU826
  67:user/htu21d/htu21d.c **** }
 1886              		.loc 1 67 5 view .LVU827
  67:user/htu21d/htu21d.c **** }
 1887              		.loc 1 67 20 view .LVU828
  67:user/htu21d/htu21d.c **** }
 1888              		.loc 1 67 11 view .LVU829
 1889              	.LBB278:
 1890              	.LBB268:
 129:user/htu21d/htu21d.c **** }
 1891              		.loc 1 129 5 view .LVU830
 129:user/htu21d/htu21d.c **** }
 1892              		.loc 1 129 5 view .LVU831
 129:user/htu21d/htu21d.c **** }
 1893              		.loc 1 129 5 view .LVU832
 1894              	.LBE268:
 1895              	.LBE278:
 278:user/htu21d/htu21d.c ****     temp = ((temp_data & 0xfffc) / 65536.0 * 175.72 - 46.85) * 10;
 1896              		.loc 1 278 5 view .LVU833
 1897              	.LBB279:
 1898              	.LBI269:
  99:user/htu21d/htu21d.c **** {
 1899              		.loc 1 99 13 view .LVU834
 1900              	.LBB272:
ARM GAS  C:\Users\WENHUA~1\AppData\Local\Temp\ccnJErvg.s 			page 53


 101:user/htu21d/htu21d.c ****     DelayUs(HTU21D_I2C_DELAY);
 1901              		.loc 1 101 5 view .LVU835
 101:user/htu21d/htu21d.c ****     DelayUs(HTU21D_I2C_DELAY);
 1902              		.loc 1 101 5 view .LVU836
 101:user/htu21d/htu21d.c ****     DelayUs(HTU21D_I2C_DELAY);
 1903              		.loc 1 101 5 view .LVU837
 102:user/htu21d/htu21d.c ****     HTU21D_SCL_HIGH();
 1904              		.loc 1 102 5 view .LVU838
 102:user/htu21d/htu21d.c ****     HTU21D_SCL_HIGH();
 1905              		.loc 1 102 5 is_stmt 0 view .LVU839
 1906              	.LBE272:
 1907              	.LBE279:
  65:user/htu21d/htu21d.c **** 
 1908              		.loc 1 65 5 is_stmt 1 view .LVU840
  67:user/htu21d/htu21d.c **** }
 1909              		.loc 1 67 5 view .LVU841
  67:user/htu21d/htu21d.c **** }
 1910              		.loc 1 67 20 view .LVU842
  67:user/htu21d/htu21d.c **** }
 1911              		.loc 1 67 11 view .LVU843
 1912              	.LBB280:
 1913              	.LBB273:
 103:user/htu21d/htu21d.c ****     DelayUs(HTU21D_I2C_DELAY);
 1914              		.loc 1 103 5 view .LVU844
 103:user/htu21d/htu21d.c ****     DelayUs(HTU21D_I2C_DELAY);
 1915              		.loc 1 103 5 view .LVU845
 103:user/htu21d/htu21d.c ****     DelayUs(HTU21D_I2C_DELAY);
 1916              		.loc 1 103 5 view .LVU846
 104:user/htu21d/htu21d.c ****     HTU21D_SDA_HIGH();
 1917              		.loc 1 104 5 view .LVU847
 104:user/htu21d/htu21d.c ****     HTU21D_SDA_HIGH();
 1918              		.loc 1 104 5 is_stmt 0 view .LVU848
 1919              	.LBE273:
 1920              	.LBE280:
  65:user/htu21d/htu21d.c **** 
 1921              		.loc 1 65 5 is_stmt 1 view .LVU849
  67:user/htu21d/htu21d.c **** }
 1922              		.loc 1 67 5 view .LVU850
  67:user/htu21d/htu21d.c **** }
 1923              		.loc 1 67 20 view .LVU851
  67:user/htu21d/htu21d.c **** }
 1924              		.loc 1 67 11 view .LVU852
 1925              	.LBB281:
 1926              	.LBB274:
 105:user/htu21d/htu21d.c ****     DelayUs(HTU21D_I2C_DELAY);
 1927              		.loc 1 105 5 view .LVU853
 105:user/htu21d/htu21d.c ****     DelayUs(HTU21D_I2C_DELAY);
 1928              		.loc 1 105 5 view .LVU854
 1929 03ee 0122     		movs	r2, #1
 1930 03f0 8021     		movs	r1, #128
 1931 03f2 1D48     		ldr	r0, .L63+16
 1932 03f4 FFF7FEFF 		bl	HAL_GPIO_WritePin
 1933              	.LVL124:
 105:user/htu21d/htu21d.c ****     DelayUs(HTU21D_I2C_DELAY);
 1934              		.loc 1 105 5 view .LVU855
 106:user/htu21d/htu21d.c **** }
 1935              		.loc 1 106 5 view .LVU856
ARM GAS  C:\Users\WENHUA~1\AppData\Local\Temp\ccnJErvg.s 			page 54


 106:user/htu21d/htu21d.c **** }
 1936              		.loc 1 106 5 is_stmt 0 view .LVU857
 1937              	.LBE274:
 1938              	.LBE281:
  65:user/htu21d/htu21d.c **** 
 1939              		.loc 1 65 5 is_stmt 1 view .LVU858
  67:user/htu21d/htu21d.c **** }
 1940              		.loc 1 67 5 view .LVU859
  67:user/htu21d/htu21d.c **** }
 1941              		.loc 1 67 20 view .LVU860
  67:user/htu21d/htu21d.c **** }
 1942              		.loc 1 67 11 view .LVU861
 279:user/htu21d/htu21d.c ****     g_thData.temperature = (int16_t)temp;
 1943              		.loc 1 279 5 view .LVU862
 280:user/htu21d/htu21d.c **** 
 1944              		.loc 1 280 5 view .LVU863
 279:user/htu21d/htu21d.c ****     g_thData.temperature = (int16_t)temp;
 1945              		.loc 1 279 24 is_stmt 0 view .LVU864
 1946 03f8 24F00300 		bic	r0, r4, #3
 279:user/htu21d/htu21d.c ****     g_thData.temperature = (int16_t)temp;
 1947              		.loc 1 279 34 view .LVU865
 1948 03fc FFF7FEFF 		bl	__aeabi_i2d
 1949              	.LVL125:
 1950 0400 0022     		movs	r2, #0
 1951 0402 1A4B     		ldr	r3, .L63+20
 1952 0404 FFF7FEFF 		bl	__aeabi_dmul
 1953              	.LVL126:
 279:user/htu21d/htu21d.c ****     g_thData.temperature = (int16_t)temp;
 1954              		.loc 1 279 44 view .LVU866
 1955 0408 13A3     		adr	r3, .L63
 1956 040a D3E90023 		ldrd	r2, [r3]
 1957 040e FFF7FEFF 		bl	__aeabi_dmul
 1958              	.LVL127:
 279:user/htu21d/htu21d.c ****     g_thData.temperature = (int16_t)temp;
 1959              		.loc 1 279 53 view .LVU867
 1960 0412 13A3     		adr	r3, .L63+8
 1961 0414 D3E90023 		ldrd	r2, [r3]
 1962 0418 FFF7FEFF 		bl	__aeabi_dsub
 1963              	.LVL128:
 279:user/htu21d/htu21d.c ****     g_thData.temperature = (int16_t)temp;
 1964              		.loc 1 279 62 view .LVU868
 1965 041c 0022     		movs	r2, #0
 1966 041e 144B     		ldr	r3, .L63+24
 1967 0420 FFF7FEFF 		bl	__aeabi_dmul
 1968              	.LVL129:
 279:user/htu21d/htu21d.c ****     g_thData.temperature = (int16_t)temp;
 1969              		.loc 1 279 10 view .LVU869
 1970 0424 FFF7FEFF 		bl	__aeabi_d2f
 1971              	.LVL130:
 280:user/htu21d/htu21d.c **** 
 1972              		.loc 1 280 28 view .LVU870
 1973 0428 FFF7FEFF 		bl	__aeabi_f2iz
 1974              	.LVL131:
 1975 042c 0446     		mov	r4, r0
 1976              	.LVL132:
 282:user/htu21d/htu21d.c ****     TRACE_PRINTF("Temp: %d \r\n", g_thData.temperature);
 1977              		.loc 1 282 5 view .LVU871
ARM GAS  C:\Users\WENHUA~1\AppData\Local\Temp\ccnJErvg.s 			page 55


 1978 042e 7188     		ldrh	r1, [r6, #2]
 1979 0430 2A46     		mov	r2, r5
 1980 0432 0091     		str	r1, [sp]
 1981 0434 0F4B     		ldr	r3, .L63+28
 1982 0436 2946     		mov	r1, r5
 280:user/htu21d/htu21d.c **** 
 1983              		.loc 1 280 28 view .LVU872
 1984 0438 3480     		strh	r4, [r6]	@ movhi
 282:user/htu21d/htu21d.c ****     TRACE_PRINTF("Temp: %d \r\n", g_thData.temperature);
 1985              		.loc 1 282 5 is_stmt 1 view .LVU873
 282:user/htu21d/htu21d.c ****     TRACE_PRINTF("Temp: %d \r\n", g_thData.temperature);
 1986              		.loc 1 282 5 view .LVU874
 1987 043a 2846     		mov	r0, r5
 1988 043c FFF7FEFF 		bl	TRACE_COND_FSend
 1989              	.LVL133:
 282:user/htu21d/htu21d.c ****     TRACE_PRINTF("Temp: %d \r\n", g_thData.temperature);
 1990              		.loc 1 282 5 view .LVU875
 283:user/htu21d/htu21d.c ****     g_i2cFial = 0;
 1991              		.loc 1 283 5 view .LVU876
 283:user/htu21d/htu21d.c ****     g_i2cFial = 0;
 1992              		.loc 1 283 5 view .LVU877
 1993 0440 B6F90040 		ldrsh	r4, [r6]
 1994 0444 0C4B     		ldr	r3, .L63+32
 1995 0446 2A46     		mov	r2, r5
 1996 0448 2946     		mov	r1, r5
 1997 044a 2846     		mov	r0, r5
 1998 044c 0094     		str	r4, [sp]
 1999 044e FFF7FEFF 		bl	TRACE_COND_FSend
 2000              	.LVL134:
 283:user/htu21d/htu21d.c ****     g_i2cFial = 0;
 2001              		.loc 1 283 5 view .LVU878
 284:user/htu21d/htu21d.c ****     return true;
 2002              		.loc 1 284 5 view .LVU879
 284:user/htu21d/htu21d.c ****     return true;
 2003              		.loc 1 284 15 is_stmt 0 view .LVU880
 2004 0452 0A4B     		ldr	r3, .L63+36
 2005 0454 1D70     		strb	r5, [r3]
 285:user/htu21d/htu21d.c **** 
 2006              		.loc 1 285 5 is_stmt 1 view .LVU881
 285:user/htu21d/htu21d.c **** 
 2007              		.loc 1 285 12 is_stmt 0 view .LVU882
 2008 0456 F9E5     		b	.L22
 2009              	.L64:
 2010              		.align	3
 2011              	.L63:
 2012 0458 D7A3703D 		.word	1030792151
 2013 045c 0AF76540 		.word	1080424202
 2014 0460 CDCCCCCC 		.word	-858993459
 2015 0464 CC6C4740 		.word	1078422732
 2016 0468 000C0140 		.word	1073810432
 2017 046c 0000F03E 		.word	1055916032
 2018 0470 00002440 		.word	1076101120
 2019 0474 00000000 		.word	.LC0
 2020 0478 10000000 		.word	.LC1
 2021 047c 00000000 		.word	.LANCHOR1
 2022              		.cfi_endproc
 2023              	.LFE86:
ARM GAS  C:\Users\WENHUA~1\AppData\Local\Temp\ccnJErvg.s 			page 56


 2025              		.section	.text.HTU21D_GetTemperature,"ax",%progbits
 2026              		.align	1
 2027              		.p2align 2,,3
 2028              		.global	HTU21D_GetTemperature
 2029              		.syntax unified
 2030              		.thumb
 2031              		.thumb_func
 2033              	HTU21D_GetTemperature:
 2034              	.LFB80:
 294:user/htu21d/htu21d.c **** 
 295:user/htu21d/htu21d.c **** static uint8_t HTU21D_FuncInit(void)
 296:user/htu21d/htu21d.c **** {
 297:user/htu21d/htu21d.c ****     uint8_t usr_reg;
 298:user/htu21d/htu21d.c ****     uint8_t status;
 299:user/htu21d/htu21d.c **** 
 300:user/htu21d/htu21d.c ****     StartBus();
 301:user/htu21d/htu21d.c ****     status = WriteByte(DEVICE_ADDR | WRITE);
 302:user/htu21d/htu21d.c ****     if (status == 0) {
 303:user/htu21d/htu21d.c ****         goto i2c_fail;
 304:user/htu21d/htu21d.c ****     }
 305:user/htu21d/htu21d.c **** 
 306:user/htu21d/htu21d.c ****     status = WriteByte(RDSR);
 307:user/htu21d/htu21d.c ****     if (status == 0) {
 308:user/htu21d/htu21d.c ****         goto i2c_fail;
 309:user/htu21d/htu21d.c ****     }
 310:user/htu21d/htu21d.c **** 
 311:user/htu21d/htu21d.c ****     StartBus();
 312:user/htu21d/htu21d.c ****     status = WriteByte(DEVICE_ADDR | READ);
 313:user/htu21d/htu21d.c ****     if (status == 0) {
 314:user/htu21d/htu21d.c ****         goto i2c_fail;
 315:user/htu21d/htu21d.c ****     }
 316:user/htu21d/htu21d.c **** 
 317:user/htu21d/htu21d.c ****     usr_reg = ReadByte();
 318:user/htu21d/htu21d.c ****     NoAckBus();
 319:user/htu21d/htu21d.c **** 
 320:user/htu21d/htu21d.c ****     StartBus();
 321:user/htu21d/htu21d.c ****     status = WriteByte(DEVICE_ADDR | WRITE);
 322:user/htu21d/htu21d.c ****     if (status == 0) {
 323:user/htu21d/htu21d.c ****         goto i2c_fail;
 324:user/htu21d/htu21d.c ****     }
 325:user/htu21d/htu21d.c **** 
 326:user/htu21d/htu21d.c ****     status = WriteByte(WRSR);
 327:user/htu21d/htu21d.c ****     if (status == 0) {
 328:user/htu21d/htu21d.c ****         goto i2c_fail;
 329:user/htu21d/htu21d.c ****     }
 330:user/htu21d/htu21d.c **** 
 331:user/htu21d/htu21d.c ****     status = WriteByte((usr_reg & 0x38) | 0x02);
 332:user/htu21d/htu21d.c ****     if (status == 0) {
 333:user/htu21d/htu21d.c ****         goto i2c_fail;
 334:user/htu21d/htu21d.c ****     }
 335:user/htu21d/htu21d.c **** 
 336:user/htu21d/htu21d.c ****     StopBus();
 337:user/htu21d/htu21d.c **** 
 338:user/htu21d/htu21d.c ****     g_i2cFial = 0;
 339:user/htu21d/htu21d.c ****     return true;
 340:user/htu21d/htu21d.c **** 
 341:user/htu21d/htu21d.c **** i2c_fail:
ARM GAS  C:\Users\WENHUA~1\AppData\Local\Temp\ccnJErvg.s 			page 57


 342:user/htu21d/htu21d.c ****     g_i2cFial = 1;
 343:user/htu21d/htu21d.c ****     return false;
 344:user/htu21d/htu21d.c **** }
 345:user/htu21d/htu21d.c **** 
 346:user/htu21d/htu21d.c **** static uint8_t HTU21D_Reset(void)
 347:user/htu21d/htu21d.c **** {
 348:user/htu21d/htu21d.c ****     uint8_t status;
 349:user/htu21d/htu21d.c **** 
 350:user/htu21d/htu21d.c ****     StartBus();
 351:user/htu21d/htu21d.c ****     status = WriteByte(DEVICE_ADDR | WRITE);
 352:user/htu21d/htu21d.c ****     if (status == 0) {
 353:user/htu21d/htu21d.c ****         goto error;
 354:user/htu21d/htu21d.c ****     }
 355:user/htu21d/htu21d.c ****     status = WriteByte(HTU21D_RESET);
 356:user/htu21d/htu21d.c ****     if (status == 0) {
 357:user/htu21d/htu21d.c ****         goto error;
 358:user/htu21d/htu21d.c ****     }
 359:user/htu21d/htu21d.c ****     StopBus();
 360:user/htu21d/htu21d.c ****     HAL_Delay(15);
 361:user/htu21d/htu21d.c **** 
 362:user/htu21d/htu21d.c ****     g_i2cFial = 0;
 363:user/htu21d/htu21d.c ****     TRACE_PRINTF("\r\nHTU21D Reset OK\r\n");
 364:user/htu21d/htu21d.c ****     return true;
 365:user/htu21d/htu21d.c **** 
 366:user/htu21d/htu21d.c **** error:
 367:user/htu21d/htu21d.c ****     TRACE_PRINTF("\r\nHTU21D Reset NG\r\n");
 368:user/htu21d/htu21d.c ****     g_i2cFial = 1;
 369:user/htu21d/htu21d.c ****     return false;
 370:user/htu21d/htu21d.c **** }
 371:user/htu21d/htu21d.c **** 
 372:user/htu21d/htu21d.c **** int16_t HTU21D_GetTemperature(void)
 373:user/htu21d/htu21d.c **** {
 2035              		.loc 1 373 1 is_stmt 1 view -0
 2036              		.cfi_startproc
 2037              		@ args = 0, pretend = 0, frame = 0
 2038              		@ frame_needed = 0, uses_anonymous_args = 0
 2039              		@ link register save eliminated.
 374:user/htu21d/htu21d.c ****     return g_thData.temperature;
 2040              		.loc 1 374 5 view .LVU884
 2041              		.loc 1 374 20 is_stmt 0 view .LVU885
 2042 0000 014B     		ldr	r3, .L66
 375:user/htu21d/htu21d.c **** }
 2043              		.loc 1 375 1 view .LVU886
 2044 0002 B3F90000 		ldrsh	r0, [r3]
 2045 0006 7047     		bx	lr
 2046              	.L67:
 2047              		.align	2
 2048              	.L66:
 2049 0008 00000000 		.word	.LANCHOR0
 2050              		.cfi_endproc
 2051              	.LFE80:
 2053              		.section	.text.HTU21D_GetHumidity,"ax",%progbits
 2054              		.align	1
 2055              		.p2align 2,,3
 2056              		.global	HTU21D_GetHumidity
 2057              		.syntax unified
 2058              		.thumb
ARM GAS  C:\Users\WENHUA~1\AppData\Local\Temp\ccnJErvg.s 			page 58


 2059              		.thumb_func
 2061              	HTU21D_GetHumidity:
 2062              	.LFB81:
 376:user/htu21d/htu21d.c **** 
 377:user/htu21d/htu21d.c **** uint16_t HTU21D_GetHumidity(void)
 378:user/htu21d/htu21d.c **** {
 2063              		.loc 1 378 1 is_stmt 1 view -0
 2064              		.cfi_startproc
 2065              		@ args = 0, pretend = 0, frame = 0
 2066              		@ frame_needed = 0, uses_anonymous_args = 0
 2067              		@ link register save eliminated.
 379:user/htu21d/htu21d.c ****     return g_thData.humidity;
 2068              		.loc 1 379 5 view .LVU888
 2069              		.loc 1 379 20 is_stmt 0 view .LVU889
 2070 0000 014B     		ldr	r3, .L69
 380:user/htu21d/htu21d.c **** }
 2071              		.loc 1 380 1 view .LVU890
 2072 0002 5888     		ldrh	r0, [r3, #2]
 2073 0004 7047     		bx	lr
 2074              	.L70:
 2075 0006 00BF     		.align	2
 2076              	.L69:
 2077 0008 00000000 		.word	.LANCHOR0
 2078              		.cfi_endproc
 2079              	.LFE81:
 2081              		.section	.rodata.HTU21D_Init.str1.4,"aMS",%progbits,1
 2082              		.align	2
 2083              	.LC3:
 2084 0000 0D0A4854 		.ascii	"\015\012HTU21D Init NG\015\012\000"
 2084      55323144 
 2084      20496E69 
 2084      74204E47 
 2084      0D0A00
 2085 0013 00       		.align	2
 2086              	.LC4:
 2087 0014 0D0A4854 		.ascii	"\015\012HTU21D Reset OK\015\012\000"
 2087      55323144 
 2087      20526573 
 2087      6574204F 
 2087      4B0D0A00 
 2088              		.align	2
 2089              	.LC5:
 2090 0028 0D0A4854 		.ascii	"\015\012HTU21D Reset NG\015\012\000"
 2090      55323144 
 2090      20526573 
 2090      6574204E 
 2090      470D0A00 
 2091              		.section	.text.HTU21D_Init,"ax",%progbits
 2092              		.align	1
 2093              		.p2align 2,,3
 2094              		.global	HTU21D_Init
 2095              		.syntax unified
 2096              		.thumb
 2097              		.thumb_func
 2099              	HTU21D_Init:
 2100              	.LFB83:
 381:user/htu21d/htu21d.c **** 
ARM GAS  C:\Users\WENHUA~1\AppData\Local\Temp\ccnJErvg.s 			page 59


 382:user/htu21d/htu21d.c **** void HTU21D_Sampling(void)
 383:user/htu21d/htu21d.c **** {
 384:user/htu21d/htu21d.c ****     static uint8_t count;
 385:user/htu21d/htu21d.c **** 
 386:user/htu21d/htu21d.c ****     if (g_i2cFial) {
 387:user/htu21d/htu21d.c ****         g_i2cFial = 0;
 388:user/htu21d/htu21d.c ****         count = 0x00;
 389:user/htu21d/htu21d.c ****         HTU21D_Init();
 390:user/htu21d/htu21d.c ****     }
 391:user/htu21d/htu21d.c ****     count++;
 392:user/htu21d/htu21d.c ****     if (count > 9) {
 393:user/htu21d/htu21d.c ****         count = 0;
 394:user/htu21d/htu21d.c ****         HTU21D_GetData();
 395:user/htu21d/htu21d.c ****     }
 396:user/htu21d/htu21d.c **** }
 397:user/htu21d/htu21d.c **** 
 398:user/htu21d/htu21d.c **** void HTU21D_Init(void)
 399:user/htu21d/htu21d.c **** {
 2101              		.loc 1 399 1 is_stmt 1 view -0
 2102              		.cfi_startproc
 2103              		@ args = 0, pretend = 0, frame = 16
 2104              		@ frame_needed = 0, uses_anonymous_args = 0
 400:user/htu21d/htu21d.c ****     HTU21D_I2cInit();
 2105              		.loc 1 400 5 view .LVU892
 2106              	.LBB312:
 2107              	.LBI312:
 132:user/htu21d/htu21d.c **** {
 2108              		.loc 1 132 13 view .LVU893
 2109              	.LBB313:
 134:user/htu21d/htu21d.c **** 
 2110              		.loc 1 134 5 view .LVU894
 136:user/htu21d/htu21d.c ****     GPIO_InitStructure.Mode = GPIO_MODE_OUTPUT_OD;
 2111              		.loc 1 136 5 view .LVU895
 137:user/htu21d/htu21d.c ****     GPIO_InitStructure.Speed = GPIO_SPEED_FREQ_LOW;
 2112              		.loc 1 137 5 view .LVU896
 2113              	.LBE313:
 2114              	.LBE312:
 399:user/htu21d/htu21d.c ****     HTU21D_I2cInit();
 2115              		.loc 1 399 1 is_stmt 0 view .LVU897
 2116 0000 2DE97043 		push	{r4, r5, r6, r8, r9, lr}
 2117              	.LCFI8:
 2118              		.cfi_def_cfa_offset 24
 2119              		.cfi_offset 4, -24
 2120              		.cfi_offset 5, -20
 2121              		.cfi_offset 6, -16
 2122              		.cfi_offset 8, -12
 2123              		.cfi_offset 9, -8
 2124              		.cfi_offset 14, -4
 2125              	.LBB316:
 2126              	.LBB314:
 136:user/htu21d/htu21d.c ****     GPIO_InitStructure.Mode = GPIO_MODE_OUTPUT_OD;
 2127              		.loc 1 136 28 view .LVU898
 2128 0004 8022     		movs	r2, #128
 2129 0006 1123     		movs	r3, #17
 138:user/htu21d/htu21d.c ****     HAL_GPIO_Init(HTU21D_SDA_GPIO_Port, &GPIO_InitStructure);
 2130              		.loc 1 138 30 view .LVU899
 2131 0008 0224     		movs	r4, #2
ARM GAS  C:\Users\WENHUA~1\AppData\Local\Temp\ccnJErvg.s 			page 60


 2132              	.LBE314:
 2133              	.LBE316:
 399:user/htu21d/htu21d.c ****     HTU21D_I2cInit();
 2134              		.loc 1 399 1 view .LVU900
 2135 000a 84B0     		sub	sp, sp, #16
 2136              	.LCFI9:
 2137              		.cfi_def_cfa_offset 40
 2138              	.LBB317:
 2139              	.LBB315:
 139:user/htu21d/htu21d.c **** 
 2140              		.loc 1 139 5 view .LVU901
 2141 000c 6946     		mov	r1, sp
 2142 000e 9148     		ldr	r0, .L106
 136:user/htu21d/htu21d.c ****     GPIO_InitStructure.Mode = GPIO_MODE_OUTPUT_OD;
 2143              		.loc 1 136 28 view .LVU902
 2144 0010 CDE90023 		strd	r2, [sp]
 138:user/htu21d/htu21d.c ****     HAL_GPIO_Init(HTU21D_SDA_GPIO_Port, &GPIO_InitStructure);
 2145              		.loc 1 138 5 is_stmt 1 view .LVU903
 139:user/htu21d/htu21d.c **** 
 2146              		.loc 1 139 5 view .LVU904
 138:user/htu21d/htu21d.c ****     HAL_GPIO_Init(HTU21D_SDA_GPIO_Port, &GPIO_InitStructure);
 2147              		.loc 1 138 30 is_stmt 0 view .LVU905
 2148 0014 0394     		str	r4, [sp, #12]
 139:user/htu21d/htu21d.c **** 
 2149              		.loc 1 139 5 view .LVU906
 2150 0016 FFF7FEFF 		bl	HAL_GPIO_Init
 2151              	.LVL135:
 141:user/htu21d/htu21d.c ****     GPIO_InitStructure.Mode = GPIO_MODE_OUTPUT_OD;
 2152              		.loc 1 141 5 is_stmt 1 view .LVU907
 142:user/htu21d/htu21d.c ****     GPIO_InitStructure.Speed = GPIO_SPEED_FREQ_LOW;
 2153              		.loc 1 142 5 view .LVU908
 141:user/htu21d/htu21d.c ****     GPIO_InitStructure.Mode = GPIO_MODE_OUTPUT_OD;
 2154              		.loc 1 141 28 is_stmt 0 view .LVU909
 2155 001a 1123     		movs	r3, #17
 2156 001c 4022     		movs	r2, #64
 144:user/htu21d/htu21d.c **** 
 2157              		.loc 1 144 5 view .LVU910
 2158 001e 6946     		mov	r1, sp
 2159 0020 8C48     		ldr	r0, .L106
 141:user/htu21d/htu21d.c ****     GPIO_InitStructure.Mode = GPIO_MODE_OUTPUT_OD;
 2160              		.loc 1 141 28 view .LVU911
 2161 0022 CDE90023 		strd	r2, [sp]
 143:user/htu21d/htu21d.c ****     HAL_GPIO_Init(HTU21D_SCL_GPIO_Port, &GPIO_InitStructure);
 2162              		.loc 1 143 5 is_stmt 1 view .LVU912
 144:user/htu21d/htu21d.c **** 
 2163              		.loc 1 144 5 view .LVU913
 143:user/htu21d/htu21d.c ****     HAL_GPIO_Init(HTU21D_SCL_GPIO_Port, &GPIO_InitStructure);
 2164              		.loc 1 143 30 is_stmt 0 view .LVU914
 2165 0026 0394     		str	r4, [sp, #12]
 144:user/htu21d/htu21d.c **** 
 2166              		.loc 1 144 5 view .LVU915
 2167 0028 FFF7FEFF 		bl	HAL_GPIO_Init
 2168              	.LVL136:
 146:user/htu21d/htu21d.c ****     HAL_GPIO_WritePin(HTU21D_SDA_GPIO_Port, HTU21D_SDA_Pin, GPIO_PIN_SET);
 2169              		.loc 1 146 5 is_stmt 1 view .LVU916
 2170 002c 0122     		movs	r2, #1
 2171 002e 4021     		movs	r1, #64
ARM GAS  C:\Users\WENHUA~1\AppData\Local\Temp\ccnJErvg.s 			page 61


 2172 0030 8848     		ldr	r0, .L106
 2173 0032 FFF7FEFF 		bl	HAL_GPIO_WritePin
 2174              	.LVL137:
 147:user/htu21d/htu21d.c **** }
 2175              		.loc 1 147 5 view .LVU917
 2176 0036 0122     		movs	r2, #1
 2177 0038 8021     		movs	r1, #128
 2178 003a 8648     		ldr	r0, .L106
 2179 003c FFF7FEFF 		bl	HAL_GPIO_WritePin
 2180              	.LVL138:
 2181              	.LBE315:
 2182              	.LBE317:
 401:user/htu21d/htu21d.c ****     if (HTU21D_FuncInit() == false) {
 2183              		.loc 1 401 5 view .LVU918
 2184              	.LBB318:
 2185              	.LBI318:
 295:user/htu21d/htu21d.c **** {
 2186              		.loc 1 295 16 view .LVU919
 2187              	.LBB319:
 297:user/htu21d/htu21d.c ****     uint8_t status;
 2188              		.loc 1 297 5 view .LVU920
 298:user/htu21d/htu21d.c **** 
 2189              		.loc 1 298 5 view .LVU921
 300:user/htu21d/htu21d.c ****     status = WriteByte(DEVICE_ADDR | WRITE);
 2190              		.loc 1 300 5 view .LVU922
 2191              	.LBB320:
 2192              	.LBI320:
  87:user/htu21d/htu21d.c **** {
 2193              		.loc 1 87 13 view .LVU923
 2194              	.LBB321:
  89:user/htu21d/htu21d.c ****     DelayUs(HTU21D_I2C_DELAY);
 2195              		.loc 1 89 5 view .LVU924
  89:user/htu21d/htu21d.c ****     DelayUs(HTU21D_I2C_DELAY);
 2196              		.loc 1 89 5 view .LVU925
 2197 0040 0122     		movs	r2, #1
 2198 0042 8021     		movs	r1, #128
 2199 0044 8348     		ldr	r0, .L106
 2200 0046 FFF7FEFF 		bl	HAL_GPIO_WritePin
 2201              	.LVL139:
  89:user/htu21d/htu21d.c ****     DelayUs(HTU21D_I2C_DELAY);
 2202              		.loc 1 89 5 view .LVU926
  90:user/htu21d/htu21d.c ****     HTU21D_SCL_HIGH();
 2203              		.loc 1 90 5 view .LVU927
  90:user/htu21d/htu21d.c ****     HTU21D_SCL_HIGH();
 2204              		.loc 1 90 5 is_stmt 0 view .LVU928
 2205              	.LBE321:
 2206              	.LBE320:
 2207              	.LBE319:
 2208              	.LBE318:
  65:user/htu21d/htu21d.c **** 
 2209              		.loc 1 65 5 is_stmt 1 view .LVU929
  67:user/htu21d/htu21d.c **** }
 2210              		.loc 1 67 5 view .LVU930
  67:user/htu21d/htu21d.c **** }
 2211              		.loc 1 67 20 view .LVU931
  67:user/htu21d/htu21d.c **** }
 2212              		.loc 1 67 11 view .LVU932
ARM GAS  C:\Users\WENHUA~1\AppData\Local\Temp\ccnJErvg.s 			page 62


 2213              	.LBB392:
 2214              	.LBB370:
 2215              	.LBB325:
 2216              	.LBB322:
  91:user/htu21d/htu21d.c ****     DelayUs(HTU21D_I2C_DELAY);
 2217              		.loc 1 91 5 view .LVU933
  91:user/htu21d/htu21d.c ****     DelayUs(HTU21D_I2C_DELAY);
 2218              		.loc 1 91 5 view .LVU934
 2219 004a 0122     		movs	r2, #1
 2220 004c 4021     		movs	r1, #64
 2221 004e 8148     		ldr	r0, .L106
 2222 0050 FFF7FEFF 		bl	HAL_GPIO_WritePin
 2223              	.LVL140:
  91:user/htu21d/htu21d.c ****     DelayUs(HTU21D_I2C_DELAY);
 2224              		.loc 1 91 5 view .LVU935
  92:user/htu21d/htu21d.c ****     HTU21D_SDA_LOW();
 2225              		.loc 1 92 5 view .LVU936
  92:user/htu21d/htu21d.c ****     HTU21D_SDA_LOW();
 2226              		.loc 1 92 5 is_stmt 0 view .LVU937
 2227              	.LBE322:
 2228              	.LBE325:
 2229              	.LBE370:
 2230              	.LBE392:
  65:user/htu21d/htu21d.c **** 
 2231              		.loc 1 65 5 is_stmt 1 view .LVU938
  67:user/htu21d/htu21d.c **** }
 2232              		.loc 1 67 5 view .LVU939
  67:user/htu21d/htu21d.c **** }
 2233              		.loc 1 67 20 view .LVU940
  67:user/htu21d/htu21d.c **** }
 2234              		.loc 1 67 11 view .LVU941
 2235              	.LBB393:
 2236              	.LBB371:
 2237              	.LBB326:
 2238              	.LBB323:
  93:user/htu21d/htu21d.c ****     DelayUs(HTU21D_I2C_DELAY);
 2239              		.loc 1 93 5 view .LVU942
  93:user/htu21d/htu21d.c ****     DelayUs(HTU21D_I2C_DELAY);
 2240              		.loc 1 93 5 view .LVU943
 2241 0054 0022     		movs	r2, #0
 2242 0056 8021     		movs	r1, #128
 2243 0058 7E48     		ldr	r0, .L106
 2244 005a FFF7FEFF 		bl	HAL_GPIO_WritePin
 2245              	.LVL141:
  93:user/htu21d/htu21d.c ****     DelayUs(HTU21D_I2C_DELAY);
 2246              		.loc 1 93 5 view .LVU944
  94:user/htu21d/htu21d.c ****     HTU21D_SCL_LOW();
 2247              		.loc 1 94 5 view .LVU945
  94:user/htu21d/htu21d.c ****     HTU21D_SCL_LOW();
 2248              		.loc 1 94 5 is_stmt 0 view .LVU946
 2249              	.LBE323:
 2250              	.LBE326:
 2251              	.LBE371:
 2252              	.LBE393:
  65:user/htu21d/htu21d.c **** 
 2253              		.loc 1 65 5 is_stmt 1 view .LVU947
  67:user/htu21d/htu21d.c **** }
ARM GAS  C:\Users\WENHUA~1\AppData\Local\Temp\ccnJErvg.s 			page 63


 2254              		.loc 1 67 5 view .LVU948
  67:user/htu21d/htu21d.c **** }
 2255              		.loc 1 67 20 view .LVU949
  67:user/htu21d/htu21d.c **** }
 2256              		.loc 1 67 11 view .LVU950
 2257              	.LBB394:
 2258              	.LBB372:
 2259              	.LBB327:
 2260              	.LBB324:
  95:user/htu21d/htu21d.c ****     DelayUs(HTU21D_I2C_DELAY);
 2261              		.loc 1 95 5 view .LVU951
  95:user/htu21d/htu21d.c ****     DelayUs(HTU21D_I2C_DELAY);
 2262              		.loc 1 95 5 view .LVU952
 2263 005e 7D48     		ldr	r0, .L106
 2264 0060 0022     		movs	r2, #0
 2265 0062 4021     		movs	r1, #64
 2266 0064 FFF7FEFF 		bl	HAL_GPIO_WritePin
 2267              	.LVL142:
  95:user/htu21d/htu21d.c ****     DelayUs(HTU21D_I2C_DELAY);
 2268              		.loc 1 95 5 view .LVU953
  96:user/htu21d/htu21d.c **** }
 2269              		.loc 1 96 5 view .LVU954
  96:user/htu21d/htu21d.c **** }
 2270              		.loc 1 96 5 is_stmt 0 view .LVU955
 2271              	.LBE324:
 2272              	.LBE327:
 2273              	.LBE372:
 2274              	.LBE394:
  65:user/htu21d/htu21d.c **** 
 2275              		.loc 1 65 5 is_stmt 1 view .LVU956
  67:user/htu21d/htu21d.c **** }
 2276              		.loc 1 67 5 view .LVU957
  67:user/htu21d/htu21d.c **** }
 2277              		.loc 1 67 20 view .LVU958
  67:user/htu21d/htu21d.c **** }
 2278              		.loc 1 67 11 view .LVU959
 2279              	.LBB395:
 2280              	.LBB373:
 301:user/htu21d/htu21d.c ****     if (status == 0) {
 2281              		.loc 1 301 5 view .LVU960
 301:user/htu21d/htu21d.c ****     if (status == 0) {
 2282              		.loc 1 301 14 is_stmt 0 view .LVU961
 2283 0068 8020     		movs	r0, #128
 2284 006a FFF7FEFF 		bl	WriteByte
 2285              	.LVL143:
 302:user/htu21d/htu21d.c ****         goto i2c_fail;
 2286              		.loc 1 302 5 is_stmt 1 view .LVU962
 302:user/htu21d/htu21d.c ****         goto i2c_fail;
 2287              		.loc 1 302 8 is_stmt 0 view .LVU963
 2288 006e 58B9     		cbnz	r0, .L105
 2289              	.L72:
 2290              	.LDL2:
 342:user/htu21d/htu21d.c ****     return false;
 2291              		.loc 1 342 5 is_stmt 1 view .LVU964
 2292              	.LBE373:
 2293              	.LBE395:
 2294              	.LBB396:
ARM GAS  C:\Users\WENHUA~1\AppData\Local\Temp\ccnJErvg.s 			page 64


 2295              	.LBB397:
 402:user/htu21d/htu21d.c ****         TRACE_PRINTF("\r\nHTU21D Init NG\r\n");
 2296              		.loc 1 402 9 is_stmt 0 view .LVU965
 2297 0070 0022     		movs	r2, #0
 2298              	.LBE397:
 2299              	.LBE396:
 2300              	.LBB401:
 2301              	.LBB374:
 342:user/htu21d/htu21d.c ****     return false;
 2302              		.loc 1 342 15 view .LVU966
 2303 0072 0124     		movs	r4, #1
 2304 0074 7848     		ldr	r0, .L106+4
 2305              	.LVL144:
 342:user/htu21d/htu21d.c ****     return false;
 2306              		.loc 1 342 15 view .LVU967
 2307              	.LBE374:
 2308              	.LBE401:
 2309              	.LBB402:
 2310              	.LBB398:
 2311              		.loc 1 402 9 view .LVU968
 2312 0076 1146     		mov	r1, r2
 2313              	.LBE398:
 2314              	.LBE402:
 2315              	.LBB403:
 2316              	.LBB375:
 342:user/htu21d/htu21d.c ****     return false;
 2317              		.loc 1 342 15 view .LVU969
 2318 0078 0470     		strb	r4, [r0]
 343:user/htu21d/htu21d.c **** }
 2319              		.loc 1 343 5 is_stmt 1 view .LVU970
 343:user/htu21d/htu21d.c **** }
 2320              		.loc 1 343 5 is_stmt 0 view .LVU971
 2321              	.LBE375:
 2322              	.LBE403:
 2323              	.LBB404:
 2324              	.LBI396:
 398:user/htu21d/htu21d.c **** {
 2325              		.loc 1 398 6 is_stmt 1 view .LVU972
 2326              	.LBB399:
 2327              		.loc 1 402 9 view .LVU973
 2328              		.loc 1 402 9 view .LVU974
 2329 007a 1046     		mov	r0, r2
 2330 007c 774B     		ldr	r3, .L106+8
 2331              	.LBE399:
 2332              	.LBE404:
 403:user/htu21d/htu21d.c ****         return;
 404:user/htu21d/htu21d.c ****     }
 405:user/htu21d/htu21d.c ****     HAL_Delay(10);
 406:user/htu21d/htu21d.c ****     HTU21D_Reset();
 407:user/htu21d/htu21d.c ****     HAL_Delay(100);
 408:user/htu21d/htu21d.c ****     HTU21D_GetData();
 409:user/htu21d/htu21d.c **** }
 2333              		.loc 1 409 1 is_stmt 0 view .LVU975
 2334 007e 04B0     		add	sp, sp, #16
 2335              	.LCFI10:
 2336              		.cfi_remember_state
 2337              		.cfi_def_cfa_offset 24
ARM GAS  C:\Users\WENHUA~1\AppData\Local\Temp\ccnJErvg.s 			page 65


 2338              		@ sp needed
 2339 0080 BDE87043 		pop	{r4, r5, r6, r8, r9, lr}
 2340              	.LCFI11:
 2341              		.cfi_restore 14
 2342              		.cfi_restore 9
 2343              		.cfi_restore 8
 2344              		.cfi_restore 6
 2345              		.cfi_restore 5
 2346              		.cfi_restore 4
 2347              		.cfi_def_cfa_offset 0
 2348              	.LBB405:
 2349              	.LBB400:
 402:user/htu21d/htu21d.c ****         return;
 2350              		.loc 1 402 9 view .LVU976
 2351 0084 FFF7FEBF 		b	TRACE_COND_FSend
 2352              	.LVL145:
 2353              	.L105:
 2354              	.LCFI12:
 2355              		.cfi_restore_state
 402:user/htu21d/htu21d.c ****         return;
 2356              		.loc 1 402 9 view .LVU977
 2357              	.LBE400:
 2358              	.LBE405:
 2359              	.LBB406:
 2360              	.LBB376:
 306:user/htu21d/htu21d.c ****     if (status == 0) {
 2361              		.loc 1 306 5 is_stmt 1 view .LVU978
 306:user/htu21d/htu21d.c ****     if (status == 0) {
 2362              		.loc 1 306 14 is_stmt 0 view .LVU979
 2363 0088 E720     		movs	r0, #231
 2364              	.LVL146:
 306:user/htu21d/htu21d.c ****     if (status == 0) {
 2365              		.loc 1 306 14 view .LVU980
 2366 008a FFF7FEFF 		bl	WriteByte
 2367              	.LVL147:
 307:user/htu21d/htu21d.c ****         goto i2c_fail;
 2368              		.loc 1 307 5 is_stmt 1 view .LVU981
 307:user/htu21d/htu21d.c ****         goto i2c_fail;
 2369              		.loc 1 307 8 is_stmt 0 view .LVU982
 2370 008e 0028     		cmp	r0, #0
 2371 0090 EED0     		beq	.L72
 311:user/htu21d/htu21d.c ****     status = WriteByte(DEVICE_ADDR | READ);
 2372              		.loc 1 311 5 is_stmt 1 view .LVU983
 2373              	.LBB328:
 2374              	.LBI328:
  87:user/htu21d/htu21d.c **** {
 2375              		.loc 1 87 13 view .LVU984
 2376              	.LBB329:
  89:user/htu21d/htu21d.c ****     DelayUs(HTU21D_I2C_DELAY);
 2377              		.loc 1 89 5 view .LVU985
  89:user/htu21d/htu21d.c ****     DelayUs(HTU21D_I2C_DELAY);
 2378              		.loc 1 89 5 view .LVU986
 2379 0092 0122     		movs	r2, #1
 2380 0094 8021     		movs	r1, #128
 2381 0096 6F48     		ldr	r0, .L106
 2382              	.LVL148:
  89:user/htu21d/htu21d.c ****     DelayUs(HTU21D_I2C_DELAY);
ARM GAS  C:\Users\WENHUA~1\AppData\Local\Temp\ccnJErvg.s 			page 66


 2383              		.loc 1 89 5 is_stmt 0 view .LVU987
 2384 0098 FFF7FEFF 		bl	HAL_GPIO_WritePin
 2385              	.LVL149:
  89:user/htu21d/htu21d.c ****     DelayUs(HTU21D_I2C_DELAY);
 2386              		.loc 1 89 5 is_stmt 1 view .LVU988
  90:user/htu21d/htu21d.c ****     HTU21D_SCL_HIGH();
 2387              		.loc 1 90 5 view .LVU989
  90:user/htu21d/htu21d.c ****     HTU21D_SCL_HIGH();
 2388              		.loc 1 90 5 is_stmt 0 view .LVU990
 2389              	.LBE329:
 2390              	.LBE328:
 2391              	.LBE376:
 2392              	.LBE406:
  65:user/htu21d/htu21d.c **** 
 2393              		.loc 1 65 5 is_stmt 1 view .LVU991
  67:user/htu21d/htu21d.c **** }
 2394              		.loc 1 67 5 view .LVU992
  67:user/htu21d/htu21d.c **** }
 2395              		.loc 1 67 20 view .LVU993
  67:user/htu21d/htu21d.c **** }
 2396              		.loc 1 67 11 view .LVU994
 2397              	.LBB407:
 2398              	.LBB377:
 2399              	.LBB333:
 2400              	.LBB330:
  91:user/htu21d/htu21d.c ****     DelayUs(HTU21D_I2C_DELAY);
 2401              		.loc 1 91 5 view .LVU995
  91:user/htu21d/htu21d.c ****     DelayUs(HTU21D_I2C_DELAY);
 2402              		.loc 1 91 5 view .LVU996
 2403 009c 0122     		movs	r2, #1
 2404 009e 4021     		movs	r1, #64
 2405 00a0 6C48     		ldr	r0, .L106
 2406 00a2 FFF7FEFF 		bl	HAL_GPIO_WritePin
 2407              	.LVL150:
  91:user/htu21d/htu21d.c ****     DelayUs(HTU21D_I2C_DELAY);
 2408              		.loc 1 91 5 view .LVU997
  92:user/htu21d/htu21d.c ****     HTU21D_SDA_LOW();
 2409              		.loc 1 92 5 view .LVU998
  92:user/htu21d/htu21d.c ****     HTU21D_SDA_LOW();
 2410              		.loc 1 92 5 is_stmt 0 view .LVU999
 2411              	.LBE330:
 2412              	.LBE333:
 2413              	.LBE377:
 2414              	.LBE407:
  65:user/htu21d/htu21d.c **** 
 2415              		.loc 1 65 5 is_stmt 1 view .LVU1000
  67:user/htu21d/htu21d.c **** }
 2416              		.loc 1 67 5 view .LVU1001
  67:user/htu21d/htu21d.c **** }
 2417              		.loc 1 67 20 view .LVU1002
  67:user/htu21d/htu21d.c **** }
 2418              		.loc 1 67 11 view .LVU1003
 2419              	.LBB408:
 2420              	.LBB378:
 2421              	.LBB334:
 2422              	.LBB331:
  93:user/htu21d/htu21d.c ****     DelayUs(HTU21D_I2C_DELAY);
ARM GAS  C:\Users\WENHUA~1\AppData\Local\Temp\ccnJErvg.s 			page 67


 2423              		.loc 1 93 5 view .LVU1004
  93:user/htu21d/htu21d.c ****     DelayUs(HTU21D_I2C_DELAY);
 2424              		.loc 1 93 5 view .LVU1005
 2425 00a6 0022     		movs	r2, #0
 2426 00a8 8021     		movs	r1, #128
 2427 00aa 6A48     		ldr	r0, .L106
 2428 00ac FFF7FEFF 		bl	HAL_GPIO_WritePin
 2429              	.LVL151:
  93:user/htu21d/htu21d.c ****     DelayUs(HTU21D_I2C_DELAY);
 2430              		.loc 1 93 5 view .LVU1006
  94:user/htu21d/htu21d.c ****     HTU21D_SCL_LOW();
 2431              		.loc 1 94 5 view .LVU1007
  94:user/htu21d/htu21d.c ****     HTU21D_SCL_LOW();
 2432              		.loc 1 94 5 is_stmt 0 view .LVU1008
 2433              	.LBE331:
 2434              	.LBE334:
 2435              	.LBE378:
 2436              	.LBE408:
  65:user/htu21d/htu21d.c **** 
 2437              		.loc 1 65 5 is_stmt 1 view .LVU1009
  67:user/htu21d/htu21d.c **** }
 2438              		.loc 1 67 5 view .LVU1010
  67:user/htu21d/htu21d.c **** }
 2439              		.loc 1 67 20 view .LVU1011
  67:user/htu21d/htu21d.c **** }
 2440              		.loc 1 67 11 view .LVU1012
 2441              	.LBB409:
 2442              	.LBB379:
 2443              	.LBB335:
 2444              	.LBB332:
  95:user/htu21d/htu21d.c ****     DelayUs(HTU21D_I2C_DELAY);
 2445              		.loc 1 95 5 view .LVU1013
  95:user/htu21d/htu21d.c ****     DelayUs(HTU21D_I2C_DELAY);
 2446              		.loc 1 95 5 view .LVU1014
 2447 00b0 6848     		ldr	r0, .L106
 2448 00b2 0022     		movs	r2, #0
 2449 00b4 4021     		movs	r1, #64
 2450 00b6 FFF7FEFF 		bl	HAL_GPIO_WritePin
 2451              	.LVL152:
  95:user/htu21d/htu21d.c ****     DelayUs(HTU21D_I2C_DELAY);
 2452              		.loc 1 95 5 view .LVU1015
  96:user/htu21d/htu21d.c **** }
 2453              		.loc 1 96 5 view .LVU1016
  96:user/htu21d/htu21d.c **** }
 2454              		.loc 1 96 5 is_stmt 0 view .LVU1017
 2455              	.LBE332:
 2456              	.LBE335:
 2457              	.LBE379:
 2458              	.LBE409:
  65:user/htu21d/htu21d.c **** 
 2459              		.loc 1 65 5 is_stmt 1 view .LVU1018
  67:user/htu21d/htu21d.c **** }
 2460              		.loc 1 67 5 view .LVU1019
  67:user/htu21d/htu21d.c **** }
 2461              		.loc 1 67 20 view .LVU1020
  67:user/htu21d/htu21d.c **** }
 2462              		.loc 1 67 11 view .LVU1021
ARM GAS  C:\Users\WENHUA~1\AppData\Local\Temp\ccnJErvg.s 			page 68


 2463              	.LBB410:
 2464              	.LBB380:
 312:user/htu21d/htu21d.c ****     if (status == 0) {
 2465              		.loc 1 312 5 view .LVU1022
 312:user/htu21d/htu21d.c ****     if (status == 0) {
 2466              		.loc 1 312 14 is_stmt 0 view .LVU1023
 2467 00ba 8120     		movs	r0, #129
 2468 00bc FFF7FEFF 		bl	WriteByte
 2469              	.LVL153:
 313:user/htu21d/htu21d.c ****         goto i2c_fail;
 2470              		.loc 1 313 5 is_stmt 1 view .LVU1024
 313:user/htu21d/htu21d.c ****         goto i2c_fail;
 2471              		.loc 1 313 8 is_stmt 0 view .LVU1025
 2472 00c0 0028     		cmp	r0, #0
 2473 00c2 D5D0     		beq	.L72
 317:user/htu21d/htu21d.c ****     NoAckBus();
 2474              		.loc 1 317 5 is_stmt 1 view .LVU1026
 2475              	.LBB336:
 2476              	.LBI336:
 198:user/htu21d/htu21d.c **** {
 2477              		.loc 1 198 16 view .LVU1027
 2478              	.LBB337:
 200:user/htu21d/htu21d.c ****     uint8_t i;
 2479              		.loc 1 200 5 view .LVU1028
 2480              	.LVL154:
 201:user/htu21d/htu21d.c **** 
 2481              		.loc 1 201 5 view .LVU1029
 203:user/htu21d/htu21d.c ****     for (i = 0; i < 8; i++) {
 2482              		.loc 1 203 5 view .LVU1030
 203:user/htu21d/htu21d.c ****     for (i = 0; i < 8; i++) {
 2483              		.loc 1 203 5 view .LVU1031
 2484              	.LBB338:
 2485              	.LBI338:
  70:user/htu21d/htu21d.c **** {
 2486              		.loc 1 70 13 view .LVU1032
 2487              	.LBB339:
  72:user/htu21d/htu21d.c **** 
 2488              		.loc 1 72 5 view .LVU1033
  74:user/htu21d/htu21d.c ****         GPIO_InitStructure.Pin = HTU21D_SDA_Pin;
 2489              		.loc 1 74 5 view .LVU1034
  80:user/htu21d/htu21d.c ****         GPIO_InitStructure.Mode = GPIO_MODE_INPUT;
 2490              		.loc 1 80 9 view .LVU1035
  81:user/htu21d/htu21d.c ****         GPIO_InitStructure.Pull = GPIO_PULLUP;
 2491              		.loc 1 81 9 view .LVU1036
  80:user/htu21d/htu21d.c ****         GPIO_InitStructure.Mode = GPIO_MODE_INPUT;
 2492              		.loc 1 80 32 is_stmt 0 view .LVU1037
 2493 00c4 4FF08008 		mov	r8, #128
 2494 00c8 4FF00009 		mov	r9, #0
  82:user/htu21d/htu21d.c ****         HAL_GPIO_Init(HTU21D_SDA_GPIO_Port, &GPIO_InitStructure);
 2495              		.loc 1 82 33 view .LVU1038
 2496 00cc 0123     		movs	r3, #1
  83:user/htu21d/htu21d.c ****     }
 2497              		.loc 1 83 9 view .LVU1039
 2498 00ce 6148     		ldr	r0, .L106
 2499              	.LVL155:
  83:user/htu21d/htu21d.c ****     }
 2500              		.loc 1 83 9 view .LVU1040
ARM GAS  C:\Users\WENHUA~1\AppData\Local\Temp\ccnJErvg.s 			page 69


 2501 00d0 6946     		mov	r1, sp
 2502 00d2 0824     		movs	r4, #8
 2503              	.LBE339:
 2504              	.LBE338:
 200:user/htu21d/htu21d.c ****     uint8_t i;
 2505              		.loc 1 200 13 view .LVU1041
 2506 00d4 0025     		movs	r5, #0
 205:user/htu21d/htu21d.c ****         DelayUs(HTU21D_I2C_DELAY);
 2507              		.loc 1 205 9 view .LVU1042
 2508 00d6 0646     		mov	r6, r0
 2509              	.LBB341:
 2510              	.LBB340:
  80:user/htu21d/htu21d.c ****         GPIO_InitStructure.Mode = GPIO_MODE_INPUT;
 2511              		.loc 1 80 32 view .LVU1043
 2512 00d8 CDE90089 		strd	r8, [sp]
  82:user/htu21d/htu21d.c ****         HAL_GPIO_Init(HTU21D_SDA_GPIO_Port, &GPIO_InitStructure);
 2513              		.loc 1 82 9 is_stmt 1 view .LVU1044
  82:user/htu21d/htu21d.c ****         HAL_GPIO_Init(HTU21D_SDA_GPIO_Port, &GPIO_InitStructure);
 2514              		.loc 1 82 33 is_stmt 0 view .LVU1045
 2515 00dc 0293     		str	r3, [sp, #8]
  83:user/htu21d/htu21d.c ****     }
 2516              		.loc 1 83 9 is_stmt 1 view .LVU1046
 2517 00de FFF7FEFF 		bl	HAL_GPIO_Init
 2518              	.LVL156:
  83:user/htu21d/htu21d.c ****     }
 2519              		.loc 1 83 9 is_stmt 0 view .LVU1047
 2520              	.LBE340:
 2521              	.LBE341:
 203:user/htu21d/htu21d.c ****     for (i = 0; i < 8; i++) {
 2522              		.loc 1 203 5 is_stmt 1 view .LVU1048
 204:user/htu21d/htu21d.c ****         HTU21D_SCL_HIGH();
 2523              		.loc 1 204 5 view .LVU1049
 204:user/htu21d/htu21d.c ****         HTU21D_SCL_HIGH();
 2524              		.loc 1 204 17 view .LVU1050
 2525              	.L74:
 205:user/htu21d/htu21d.c ****         DelayUs(HTU21D_I2C_DELAY);
 2526              		.loc 1 205 9 view .LVU1051
 205:user/htu21d/htu21d.c ****         DelayUs(HTU21D_I2C_DELAY);
 2527              		.loc 1 205 9 view .LVU1052
 2528 00e2 0122     		movs	r2, #1
 2529 00e4 4021     		movs	r1, #64
 2530 00e6 3046     		mov	r0, r6
 2531 00e8 FFF7FEFF 		bl	HAL_GPIO_WritePin
 2532              	.LVL157:
 205:user/htu21d/htu21d.c ****         DelayUs(HTU21D_I2C_DELAY);
 2533              		.loc 1 205 9 view .LVU1053
 206:user/htu21d/htu21d.c ****         value <<= 1;
 2534              		.loc 1 206 9 view .LVU1054
 206:user/htu21d/htu21d.c ****         value <<= 1;
 2535              		.loc 1 206 9 is_stmt 0 view .LVU1055
 2536              	.LBE337:
 2537              	.LBE336:
 2538              	.LBE380:
 2539              	.LBE410:
  65:user/htu21d/htu21d.c **** 
 2540              		.loc 1 65 5 is_stmt 1 view .LVU1056
  67:user/htu21d/htu21d.c **** }
ARM GAS  C:\Users\WENHUA~1\AppData\Local\Temp\ccnJErvg.s 			page 70


 2541              		.loc 1 67 5 view .LVU1057
  67:user/htu21d/htu21d.c **** }
 2542              		.loc 1 67 20 view .LVU1058
  67:user/htu21d/htu21d.c **** }
 2543              		.loc 1 67 11 view .LVU1059
 2544              	.LBB411:
 2545              	.LBB381:
 2546              	.LBB347:
 2547              	.LBB346:
 207:user/htu21d/htu21d.c ****         if (HAL_GPIO_ReadPin(HTU21D_SDA_GPIO_Port, HTU21D_SDA_Pin) == GPIO_PIN_SET) {
 2548              		.loc 1 207 9 view .LVU1060
 208:user/htu21d/htu21d.c ****             value += 1;
 2549              		.loc 1 208 13 is_stmt 0 view .LVU1061
 2550 00ec 8021     		movs	r1, #128
 2551 00ee 3046     		mov	r0, r6
 2552 00f0 FFF7FEFF 		bl	HAL_GPIO_ReadPin
 2553              	.LVL158:
 2554 00f4 0346     		mov	r3, r0
 207:user/htu21d/htu21d.c ****         if (HAL_GPIO_ReadPin(HTU21D_SDA_GPIO_Port, HTU21D_SDA_Pin) == GPIO_PIN_SET) {
 2555              		.loc 1 207 15 view .LVU1062
 2556 00f6 6D00     		lsls	r5, r5, #1
 2557              	.LVL159:
 208:user/htu21d/htu21d.c ****             value += 1;
 2558              		.loc 1 208 12 view .LVU1063
 2559 00f8 012B     		cmp	r3, #1
 207:user/htu21d/htu21d.c ****         if (HAL_GPIO_ReadPin(HTU21D_SDA_GPIO_Port, HTU21D_SDA_Pin) == GPIO_PIN_SET) {
 2560              		.loc 1 207 15 view .LVU1064
 2561 00fa EDB2     		uxtb	r5, r5
 2562              	.LVL160:
 208:user/htu21d/htu21d.c ****             value += 1;
 2563              		.loc 1 208 9 is_stmt 1 view .LVU1065
 209:user/htu21d/htu21d.c ****         }
 2564              		.loc 1 209 13 view .LVU1066
 209:user/htu21d/htu21d.c ****         }
 2565              		.loc 1 209 19 is_stmt 0 view .LVU1067
 2566 00fc 08BF     		it	eq
 2567 00fe 0135     		addeq	r5, r5, #1
 2568              	.LVL161:
 211:user/htu21d/htu21d.c ****     }
 2569              		.loc 1 211 9 view .LVU1068
 2570 0100 4FF00002 		mov	r2, #0
 2571 0104 4FF04001 		mov	r1, #64
 2572 0108 3046     		mov	r0, r6
 204:user/htu21d/htu21d.c ****         HTU21D_SCL_HIGH();
 2573              		.loc 1 204 5 view .LVU1069
 2574 010a 04F1FF34 		add	r4, r4, #-1
 209:user/htu21d/htu21d.c ****         }
 2575              		.loc 1 209 19 view .LVU1070
 2576 010e 08BF     		it	eq
 2577 0110 EDB2     		uxtbeq	r5, r5
 2578              	.LVL162:
 211:user/htu21d/htu21d.c ****     }
 2579              		.loc 1 211 9 is_stmt 1 view .LVU1071
 211:user/htu21d/htu21d.c ****     }
 2580              		.loc 1 211 9 view .LVU1072
 2581 0112 FFF7FEFF 		bl	HAL_GPIO_WritePin
 2582              	.LVL163:
ARM GAS  C:\Users\WENHUA~1\AppData\Local\Temp\ccnJErvg.s 			page 71


 211:user/htu21d/htu21d.c ****     }
 2583              		.loc 1 211 9 view .LVU1073
 204:user/htu21d/htu21d.c ****         HTU21D_SCL_HIGH();
 2584              		.loc 1 204 24 view .LVU1074
 204:user/htu21d/htu21d.c ****         HTU21D_SCL_HIGH();
 2585              		.loc 1 204 17 view .LVU1075
 204:user/htu21d/htu21d.c ****         HTU21D_SCL_HIGH();
 2586              		.loc 1 204 5 is_stmt 0 view .LVU1076
 2587 0116 14F0FF04 		ands	r4, r4, #255
 2588 011a E2D1     		bne	.L74
 213:user/htu21d/htu21d.c **** 
 2589              		.loc 1 213 5 is_stmt 1 view .LVU1077
 213:user/htu21d/htu21d.c **** 
 2590              		.loc 1 213 5 view .LVU1078
 2591              	.LVL164:
 2592              	.LBB342:
 2593              	.LBI342:
  70:user/htu21d/htu21d.c **** {
 2594              		.loc 1 70 13 view .LVU1079
 2595              	.LBB343:
  72:user/htu21d/htu21d.c **** 
 2596              		.loc 1 72 5 view .LVU1080
  74:user/htu21d/htu21d.c ****         GPIO_InitStructure.Pin = HTU21D_SDA_Pin;
 2597              		.loc 1 74 5 view .LVU1081
 2598              	.LBB344:
 2599              	.LBI344:
  70:user/htu21d/htu21d.c **** {
 2600              		.loc 1 70 13 view .LVU1082
 2601              	.LBB345:
  75:user/htu21d/htu21d.c ****         GPIO_InitStructure.Mode = GPIO_MODE_OUTPUT_OD;
 2602              		.loc 1 75 9 view .LVU1083
  76:user/htu21d/htu21d.c ****         GPIO_InitStructure.Speed = GPIO_SPEED_FREQ_LOW;
 2603              		.loc 1 76 9 view .LVU1084
  77:user/htu21d/htu21d.c ****         HAL_GPIO_Init(HTU21D_SDA_GPIO_Port, &GPIO_InitStructure);
 2604              		.loc 1 77 34 is_stmt 0 view .LVU1085
 2605 011c 0220     		movs	r0, #2
  75:user/htu21d/htu21d.c ****         GPIO_InitStructure.Mode = GPIO_MODE_OUTPUT_OD;
 2606              		.loc 1 75 32 view .LVU1086
 2607 011e 1123     		movs	r3, #17
 2608 0120 8022     		movs	r2, #128
  78:user/htu21d/htu21d.c ****     } else {
 2609              		.loc 1 78 9 view .LVU1087
 2610 0122 6946     		mov	r1, sp
  77:user/htu21d/htu21d.c ****         HAL_GPIO_Init(HTU21D_SDA_GPIO_Port, &GPIO_InitStructure);
 2611              		.loc 1 77 34 view .LVU1088
 2612 0124 0390     		str	r0, [sp, #12]
  78:user/htu21d/htu21d.c ****     } else {
 2613              		.loc 1 78 9 view .LVU1089
 2614 0126 4B48     		ldr	r0, .L106
  75:user/htu21d/htu21d.c ****         GPIO_InitStructure.Mode = GPIO_MODE_OUTPUT_OD;
 2615              		.loc 1 75 32 view .LVU1090
 2616 0128 CDE90023 		strd	r2, [sp]
  77:user/htu21d/htu21d.c ****         HAL_GPIO_Init(HTU21D_SDA_GPIO_Port, &GPIO_InitStructure);
 2617              		.loc 1 77 9 is_stmt 1 view .LVU1091
  78:user/htu21d/htu21d.c ****     } else {
 2618              		.loc 1 78 9 view .LVU1092
 2619 012c FFF7FEFF 		bl	HAL_GPIO_Init
ARM GAS  C:\Users\WENHUA~1\AppData\Local\Temp\ccnJErvg.s 			page 72


 2620              	.LVL165:
  78:user/htu21d/htu21d.c ****     } else {
 2621              		.loc 1 78 9 is_stmt 0 view .LVU1093
 2622              	.LBE345:
 2623              	.LBE344:
 2624              	.LBE343:
 2625              	.LBE342:
 213:user/htu21d/htu21d.c **** 
 2626              		.loc 1 213 5 is_stmt 1 view .LVU1094
 215:user/htu21d/htu21d.c **** }
 2627              		.loc 1 215 5 view .LVU1095
 215:user/htu21d/htu21d.c **** }
 2628              		.loc 1 215 5 is_stmt 0 view .LVU1096
 2629              	.LBE346:
 2630              	.LBE347:
 318:user/htu21d/htu21d.c **** 
 2631              		.loc 1 318 5 is_stmt 1 view .LVU1097
 2632              	.LBB348:
 2633              	.LBI348:
 123:user/htu21d/htu21d.c **** {
 2634              		.loc 1 123 13 view .LVU1098
 2635              	.LBB349:
 125:user/htu21d/htu21d.c ****     DelayUs(HTU21D_I2C_DELAY);
 2636              		.loc 1 125 5 view .LVU1099
 125:user/htu21d/htu21d.c ****     DelayUs(HTU21D_I2C_DELAY);
 2637              		.loc 1 125 5 view .LVU1100
 2638 0130 0122     		movs	r2, #1
 2639 0132 8021     		movs	r1, #128
 2640 0134 4748     		ldr	r0, .L106
 2641 0136 FFF7FEFF 		bl	HAL_GPIO_WritePin
 2642              	.LVL166:
 125:user/htu21d/htu21d.c ****     DelayUs(HTU21D_I2C_DELAY);
 2643              		.loc 1 125 5 view .LVU1101
 126:user/htu21d/htu21d.c ****     HTU21D_SCL_HIGH();
 2644              		.loc 1 126 5 view .LVU1102
 126:user/htu21d/htu21d.c ****     HTU21D_SCL_HIGH();
 2645              		.loc 1 126 5 is_stmt 0 view .LVU1103
 2646              	.LBE349:
 2647              	.LBE348:
 2648              	.LBE381:
 2649              	.LBE411:
  65:user/htu21d/htu21d.c **** 
 2650              		.loc 1 65 5 is_stmt 1 view .LVU1104
  67:user/htu21d/htu21d.c **** }
 2651              		.loc 1 67 5 view .LVU1105
  67:user/htu21d/htu21d.c **** }
 2652              		.loc 1 67 20 view .LVU1106
  67:user/htu21d/htu21d.c **** }
 2653              		.loc 1 67 11 view .LVU1107
 2654              	.LBB412:
 2655              	.LBB382:
 2656              	.LBB352:
 2657              	.LBB350:
 127:user/htu21d/htu21d.c ****     DelayUs(HTU21D_I2C_DELAY);
 2658              		.loc 1 127 5 view .LVU1108
 127:user/htu21d/htu21d.c ****     DelayUs(HTU21D_I2C_DELAY);
 2659              		.loc 1 127 5 view .LVU1109
ARM GAS  C:\Users\WENHUA~1\AppData\Local\Temp\ccnJErvg.s 			page 73


 2660 013a 4021     		movs	r1, #64
 2661 013c 0122     		movs	r2, #1
 2662 013e 4548     		ldr	r0, .L106
 2663 0140 FFF7FEFF 		bl	HAL_GPIO_WritePin
 2664              	.LVL167:
 127:user/htu21d/htu21d.c ****     DelayUs(HTU21D_I2C_DELAY);
 2665              		.loc 1 127 5 view .LVU1110
 128:user/htu21d/htu21d.c ****     HTU21D_SCL_LOW();
 2666              		.loc 1 128 5 view .LVU1111
 128:user/htu21d/htu21d.c ****     HTU21D_SCL_LOW();
 2667              		.loc 1 128 5 is_stmt 0 view .LVU1112
 2668              	.LBE350:
 2669              	.LBE352:
 2670              	.LBE382:
 2671              	.LBE412:
  65:user/htu21d/htu21d.c **** 
 2672              		.loc 1 65 5 is_stmt 1 view .LVU1113
  67:user/htu21d/htu21d.c **** }
 2673              		.loc 1 67 5 view .LVU1114
  67:user/htu21d/htu21d.c **** }
 2674              		.loc 1 67 20 view .LVU1115
  67:user/htu21d/htu21d.c **** }
 2675              		.loc 1 67 11 view .LVU1116
 2676              	.LBB413:
 2677              	.LBB383:
 2678              	.LBB353:
 2679              	.LBB351:
 129:user/htu21d/htu21d.c **** }
 2680              		.loc 1 129 5 view .LVU1117
 129:user/htu21d/htu21d.c **** }
 2681              		.loc 1 129 5 view .LVU1118
 2682 0144 2246     		mov	r2, r4
 2683 0146 4021     		movs	r1, #64
 2684 0148 4248     		ldr	r0, .L106
 2685 014a FFF7FEFF 		bl	HAL_GPIO_WritePin
 2686              	.LVL168:
 129:user/htu21d/htu21d.c **** }
 2687              		.loc 1 129 5 view .LVU1119
 2688              	.LBE351:
 2689              	.LBE353:
 320:user/htu21d/htu21d.c ****     status = WriteByte(DEVICE_ADDR | WRITE);
 2690              		.loc 1 320 5 view .LVU1120
 2691              	.LBB354:
 2692              	.LBI354:
  87:user/htu21d/htu21d.c **** {
 2693              		.loc 1 87 13 view .LVU1121
 2694              	.LBB355:
  89:user/htu21d/htu21d.c ****     DelayUs(HTU21D_I2C_DELAY);
 2695              		.loc 1 89 5 view .LVU1122
  89:user/htu21d/htu21d.c ****     DelayUs(HTU21D_I2C_DELAY);
 2696              		.loc 1 89 5 view .LVU1123
 2697 014e 0122     		movs	r2, #1
 2698 0150 8021     		movs	r1, #128
 2699 0152 4048     		ldr	r0, .L106
 2700 0154 FFF7FEFF 		bl	HAL_GPIO_WritePin
 2701              	.LVL169:
  89:user/htu21d/htu21d.c ****     DelayUs(HTU21D_I2C_DELAY);
ARM GAS  C:\Users\WENHUA~1\AppData\Local\Temp\ccnJErvg.s 			page 74


 2702              		.loc 1 89 5 view .LVU1124
  90:user/htu21d/htu21d.c ****     HTU21D_SCL_HIGH();
 2703              		.loc 1 90 5 view .LVU1125
  90:user/htu21d/htu21d.c ****     HTU21D_SCL_HIGH();
 2704              		.loc 1 90 5 is_stmt 0 view .LVU1126
 2705              	.LBE355:
 2706              	.LBE354:
 2707              	.LBE383:
 2708              	.LBE413:
  65:user/htu21d/htu21d.c **** 
 2709              		.loc 1 65 5 is_stmt 1 view .LVU1127
  67:user/htu21d/htu21d.c **** }
 2710              		.loc 1 67 5 view .LVU1128
  67:user/htu21d/htu21d.c **** }
 2711              		.loc 1 67 20 view .LVU1129
  67:user/htu21d/htu21d.c **** }
 2712              		.loc 1 67 11 view .LVU1130
 2713              	.LBB414:
 2714              	.LBB384:
 2715              	.LBB359:
 2716              	.LBB356:
  91:user/htu21d/htu21d.c ****     DelayUs(HTU21D_I2C_DELAY);
 2717              		.loc 1 91 5 view .LVU1131
  91:user/htu21d/htu21d.c ****     DelayUs(HTU21D_I2C_DELAY);
 2718              		.loc 1 91 5 view .LVU1132
 2719 0158 4021     		movs	r1, #64
 2720 015a 0122     		movs	r2, #1
 2721 015c 3D48     		ldr	r0, .L106
 2722 015e FFF7FEFF 		bl	HAL_GPIO_WritePin
 2723              	.LVL170:
  91:user/htu21d/htu21d.c ****     DelayUs(HTU21D_I2C_DELAY);
 2724              		.loc 1 91 5 view .LVU1133
  92:user/htu21d/htu21d.c ****     HTU21D_SDA_LOW();
 2725              		.loc 1 92 5 view .LVU1134
  92:user/htu21d/htu21d.c ****     HTU21D_SDA_LOW();
 2726              		.loc 1 92 5 is_stmt 0 view .LVU1135
 2727              	.LBE356:
 2728              	.LBE359:
 2729              	.LBE384:
 2730              	.LBE414:
  65:user/htu21d/htu21d.c **** 
 2731              		.loc 1 65 5 is_stmt 1 view .LVU1136
  67:user/htu21d/htu21d.c **** }
 2732              		.loc 1 67 5 view .LVU1137
  67:user/htu21d/htu21d.c **** }
 2733              		.loc 1 67 20 view .LVU1138
  67:user/htu21d/htu21d.c **** }
 2734              		.loc 1 67 11 view .LVU1139
 2735              	.LBB415:
 2736              	.LBB385:
 2737              	.LBB360:
 2738              	.LBB357:
  93:user/htu21d/htu21d.c ****     DelayUs(HTU21D_I2C_DELAY);
 2739              		.loc 1 93 5 view .LVU1140
  93:user/htu21d/htu21d.c ****     DelayUs(HTU21D_I2C_DELAY);
 2740              		.loc 1 93 5 view .LVU1141
 2741 0162 2246     		mov	r2, r4
ARM GAS  C:\Users\WENHUA~1\AppData\Local\Temp\ccnJErvg.s 			page 75


 2742 0164 8021     		movs	r1, #128
 2743 0166 3B48     		ldr	r0, .L106
 2744 0168 FFF7FEFF 		bl	HAL_GPIO_WritePin
 2745              	.LVL171:
  93:user/htu21d/htu21d.c ****     DelayUs(HTU21D_I2C_DELAY);
 2746              		.loc 1 93 5 view .LVU1142
  94:user/htu21d/htu21d.c ****     HTU21D_SCL_LOW();
 2747              		.loc 1 94 5 view .LVU1143
  94:user/htu21d/htu21d.c ****     HTU21D_SCL_LOW();
 2748              		.loc 1 94 5 is_stmt 0 view .LVU1144
 2749              	.LBE357:
 2750              	.LBE360:
 2751              	.LBE385:
 2752              	.LBE415:
  65:user/htu21d/htu21d.c **** 
 2753              		.loc 1 65 5 is_stmt 1 view .LVU1145
  67:user/htu21d/htu21d.c **** }
 2754              		.loc 1 67 5 view .LVU1146
  67:user/htu21d/htu21d.c **** }
 2755              		.loc 1 67 20 view .LVU1147
  67:user/htu21d/htu21d.c **** }
 2756              		.loc 1 67 11 view .LVU1148
 2757              	.LBB416:
 2758              	.LBB386:
 2759              	.LBB361:
 2760              	.LBB358:
  95:user/htu21d/htu21d.c ****     DelayUs(HTU21D_I2C_DELAY);
 2761              		.loc 1 95 5 view .LVU1149
  95:user/htu21d/htu21d.c ****     DelayUs(HTU21D_I2C_DELAY);
 2762              		.loc 1 95 5 view .LVU1150
 2763 016c 3948     		ldr	r0, .L106
 2764 016e 2246     		mov	r2, r4
 2765 0170 4021     		movs	r1, #64
 2766 0172 FFF7FEFF 		bl	HAL_GPIO_WritePin
 2767              	.LVL172:
  95:user/htu21d/htu21d.c ****     DelayUs(HTU21D_I2C_DELAY);
 2768              		.loc 1 95 5 view .LVU1151
  96:user/htu21d/htu21d.c **** }
 2769              		.loc 1 96 5 view .LVU1152
  96:user/htu21d/htu21d.c **** }
 2770              		.loc 1 96 5 is_stmt 0 view .LVU1153
 2771              	.LBE358:
 2772              	.LBE361:
 2773              	.LBE386:
 2774              	.LBE416:
  65:user/htu21d/htu21d.c **** 
 2775              		.loc 1 65 5 is_stmt 1 view .LVU1154
  67:user/htu21d/htu21d.c **** }
 2776              		.loc 1 67 5 view .LVU1155
  67:user/htu21d/htu21d.c **** }
 2777              		.loc 1 67 20 view .LVU1156
  67:user/htu21d/htu21d.c **** }
 2778              		.loc 1 67 11 view .LVU1157
 2779              	.LBB417:
 2780              	.LBB387:
 321:user/htu21d/htu21d.c ****     if (status == 0) {
 2781              		.loc 1 321 5 view .LVU1158
ARM GAS  C:\Users\WENHUA~1\AppData\Local\Temp\ccnJErvg.s 			page 76


 321:user/htu21d/htu21d.c ****     if (status == 0) {
 2782              		.loc 1 321 14 is_stmt 0 view .LVU1159
 2783 0176 8020     		movs	r0, #128
 2784 0178 FFF7FEFF 		bl	WriteByte
 2785              	.LVL173:
 322:user/htu21d/htu21d.c ****         goto i2c_fail;
 2786              		.loc 1 322 5 is_stmt 1 view .LVU1160
 322:user/htu21d/htu21d.c ****         goto i2c_fail;
 2787              		.loc 1 322 8 is_stmt 0 view .LVU1161
 2788 017c 0028     		cmp	r0, #0
 2789 017e 3FF477AF 		beq	.L72
 326:user/htu21d/htu21d.c ****     if (status == 0) {
 2790              		.loc 1 326 5 is_stmt 1 view .LVU1162
 326:user/htu21d/htu21d.c ****     if (status == 0) {
 2791              		.loc 1 326 14 is_stmt 0 view .LVU1163
 2792 0182 E620     		movs	r0, #230
 2793              	.LVL174:
 326:user/htu21d/htu21d.c ****     if (status == 0) {
 2794              		.loc 1 326 14 view .LVU1164
 2795 0184 FFF7FEFF 		bl	WriteByte
 2796              	.LVL175:
 327:user/htu21d/htu21d.c ****         goto i2c_fail;
 2797              		.loc 1 327 5 is_stmt 1 view .LVU1165
 327:user/htu21d/htu21d.c ****         goto i2c_fail;
 2798              		.loc 1 327 8 is_stmt 0 view .LVU1166
 2799 0188 0028     		cmp	r0, #0
 2800 018a 3FF471AF 		beq	.L72
 331:user/htu21d/htu21d.c ****     if (status == 0) {
 2801              		.loc 1 331 5 is_stmt 1 view .LVU1167
 331:user/htu21d/htu21d.c ****     if (status == 0) {
 2802              		.loc 1 331 33 is_stmt 0 view .LVU1168
 2803 018e 05F03800 		and	r0, r5, #56
 2804              	.LVL176:
 331:user/htu21d/htu21d.c ****     if (status == 0) {
 2805              		.loc 1 331 14 view .LVU1169
 2806 0192 40F00200 		orr	r0, r0, #2
 2807 0196 FFF7FEFF 		bl	WriteByte
 2808              	.LVL177:
 332:user/htu21d/htu21d.c ****         goto i2c_fail;
 2809              		.loc 1 332 5 is_stmt 1 view .LVU1170
 332:user/htu21d/htu21d.c ****         goto i2c_fail;
 2810              		.loc 1 332 8 is_stmt 0 view .LVU1171
 2811 019a 0028     		cmp	r0, #0
 2812 019c 3FF468AF 		beq	.L72
 336:user/htu21d/htu21d.c **** 
 2813              		.loc 1 336 5 is_stmt 1 view .LVU1172
 2814              	.LBB362:
 2815              	.LBI362:
  99:user/htu21d/htu21d.c **** {
 2816              		.loc 1 99 13 view .LVU1173
 2817              	.LBB363:
 101:user/htu21d/htu21d.c ****     DelayUs(HTU21D_I2C_DELAY);
 2818              		.loc 1 101 5 view .LVU1174
 101:user/htu21d/htu21d.c ****     DelayUs(HTU21D_I2C_DELAY);
 2819              		.loc 1 101 5 view .LVU1175
 2820 01a0 2246     		mov	r2, r4
 2821 01a2 8021     		movs	r1, #128
ARM GAS  C:\Users\WENHUA~1\AppData\Local\Temp\ccnJErvg.s 			page 77


 2822 01a4 2B48     		ldr	r0, .L106
 2823              	.LVL178:
 101:user/htu21d/htu21d.c ****     DelayUs(HTU21D_I2C_DELAY);
 2824              		.loc 1 101 5 is_stmt 0 view .LVU1176
 2825 01a6 FFF7FEFF 		bl	HAL_GPIO_WritePin
 2826              	.LVL179:
 101:user/htu21d/htu21d.c ****     DelayUs(HTU21D_I2C_DELAY);
 2827              		.loc 1 101 5 is_stmt 1 view .LVU1177
 102:user/htu21d/htu21d.c ****     HTU21D_SCL_HIGH();
 2828              		.loc 1 102 5 view .LVU1178
 102:user/htu21d/htu21d.c ****     HTU21D_SCL_HIGH();
 2829              		.loc 1 102 5 is_stmt 0 view .LVU1179
 2830              	.LBE363:
 2831              	.LBE362:
 2832              	.LBE387:
 2833              	.LBE417:
  65:user/htu21d/htu21d.c **** 
 2834              		.loc 1 65 5 is_stmt 1 view .LVU1180
  67:user/htu21d/htu21d.c **** }
 2835              		.loc 1 67 5 view .LVU1181
  67:user/htu21d/htu21d.c **** }
 2836              		.loc 1 67 20 view .LVU1182
  67:user/htu21d/htu21d.c **** }
 2837              		.loc 1 67 11 view .LVU1183
 2838              	.LBB418:
 2839              	.LBB388:
 2840              	.LBB367:
 2841              	.LBB364:
 103:user/htu21d/htu21d.c ****     DelayUs(HTU21D_I2C_DELAY);
 2842              		.loc 1 103 5 view .LVU1184
 103:user/htu21d/htu21d.c ****     DelayUs(HTU21D_I2C_DELAY);
 2843              		.loc 1 103 5 view .LVU1185
 2844 01aa 0122     		movs	r2, #1
 2845 01ac 4021     		movs	r1, #64
 2846 01ae 2948     		ldr	r0, .L106
 2847 01b0 FFF7FEFF 		bl	HAL_GPIO_WritePin
 2848              	.LVL180:
 103:user/htu21d/htu21d.c ****     DelayUs(HTU21D_I2C_DELAY);
 2849              		.loc 1 103 5 view .LVU1186
 104:user/htu21d/htu21d.c ****     HTU21D_SDA_HIGH();
 2850              		.loc 1 104 5 view .LVU1187
 104:user/htu21d/htu21d.c ****     HTU21D_SDA_HIGH();
 2851              		.loc 1 104 5 is_stmt 0 view .LVU1188
 2852              	.LBE364:
 2853              	.LBE367:
 2854              	.LBE388:
 2855              	.LBE418:
  65:user/htu21d/htu21d.c **** 
 2856              		.loc 1 65 5 is_stmt 1 view .LVU1189
  67:user/htu21d/htu21d.c **** }
 2857              		.loc 1 67 5 view .LVU1190
  67:user/htu21d/htu21d.c **** }
 2858              		.loc 1 67 20 view .LVU1191
  67:user/htu21d/htu21d.c **** }
 2859              		.loc 1 67 11 view .LVU1192
 2860              	.LBB419:
 2861              	.LBB389:
ARM GAS  C:\Users\WENHUA~1\AppData\Local\Temp\ccnJErvg.s 			page 78


 2862              	.LBB368:
 2863              	.LBB365:
 105:user/htu21d/htu21d.c ****     DelayUs(HTU21D_I2C_DELAY);
 2864              		.loc 1 105 5 view .LVU1193
 105:user/htu21d/htu21d.c ****     DelayUs(HTU21D_I2C_DELAY);
 2865              		.loc 1 105 5 view .LVU1194
 2866              	.LBE365:
 2867              	.LBE368:
 338:user/htu21d/htu21d.c ****     return true;
 2868              		.loc 1 338 15 is_stmt 0 view .LVU1195
 2869 01b4 284D     		ldr	r5, .L106+4
 2870              	.LVL181:
 2871              	.LBB369:
 2872              	.LBB366:
 105:user/htu21d/htu21d.c ****     DelayUs(HTU21D_I2C_DELAY);
 2873              		.loc 1 105 5 view .LVU1196
 2874 01b6 0122     		movs	r2, #1
 2875 01b8 8021     		movs	r1, #128
 2876 01ba 2648     		ldr	r0, .L106
 2877 01bc FFF7FEFF 		bl	HAL_GPIO_WritePin
 2878              	.LVL182:
 105:user/htu21d/htu21d.c ****     DelayUs(HTU21D_I2C_DELAY);
 2879              		.loc 1 105 5 is_stmt 1 view .LVU1197
 106:user/htu21d/htu21d.c **** }
 2880              		.loc 1 106 5 view .LVU1198
 106:user/htu21d/htu21d.c **** }
 2881              		.loc 1 106 5 is_stmt 0 view .LVU1199
 2882              	.LBE366:
 2883              	.LBE369:
 2884              	.LBE389:
 2885              	.LBE419:
  65:user/htu21d/htu21d.c **** 
 2886              		.loc 1 65 5 is_stmt 1 view .LVU1200
  67:user/htu21d/htu21d.c **** }
 2887              		.loc 1 67 5 view .LVU1201
  67:user/htu21d/htu21d.c **** }
 2888              		.loc 1 67 20 view .LVU1202
  67:user/htu21d/htu21d.c **** }
 2889              		.loc 1 67 11 view .LVU1203
 2890              	.LBB420:
 2891              	.LBB390:
 338:user/htu21d/htu21d.c ****     return true;
 2892              		.loc 1 338 5 view .LVU1204
 2893              	.LBE390:
 2894              	.LBE420:
 405:user/htu21d/htu21d.c ****     HTU21D_Reset();
 2895              		.loc 1 405 5 is_stmt 0 view .LVU1205
 2896 01c0 0A20     		movs	r0, #10
 2897              	.LBB421:
 2898              	.LBB391:
 338:user/htu21d/htu21d.c ****     return true;
 2899              		.loc 1 338 15 view .LVU1206
 2900 01c2 2C70     		strb	r4, [r5]
 339:user/htu21d/htu21d.c **** 
 2901              		.loc 1 339 5 is_stmt 1 view .LVU1207
 339:user/htu21d/htu21d.c **** 
 2902              		.loc 1 339 5 is_stmt 0 view .LVU1208
ARM GAS  C:\Users\WENHUA~1\AppData\Local\Temp\ccnJErvg.s 			page 79


 2903              	.LBE391:
 2904              	.LBE421:
 405:user/htu21d/htu21d.c ****     HTU21D_Reset();
 2905              		.loc 1 405 5 is_stmt 1 view .LVU1209
 2906 01c4 FFF7FEFF 		bl	HAL_Delay
 2907              	.LVL183:
 406:user/htu21d/htu21d.c ****     HAL_Delay(100);
 2908              		.loc 1 406 5 view .LVU1210
 2909              	.LBB422:
 2910              	.LBI422:
 346:user/htu21d/htu21d.c **** {
 2911              		.loc 1 346 16 view .LVU1211
 2912              	.LBB423:
 348:user/htu21d/htu21d.c **** 
 2913              		.loc 1 348 5 view .LVU1212
 350:user/htu21d/htu21d.c ****     status = WriteByte(DEVICE_ADDR | WRITE);
 2914              		.loc 1 350 5 view .LVU1213
 2915              	.LBB424:
 2916              	.LBI424:
  87:user/htu21d/htu21d.c **** {
 2917              		.loc 1 87 13 view .LVU1214
 2918              	.LBB425:
  89:user/htu21d/htu21d.c ****     DelayUs(HTU21D_I2C_DELAY);
 2919              		.loc 1 89 5 view .LVU1215
  89:user/htu21d/htu21d.c ****     DelayUs(HTU21D_I2C_DELAY);
 2920              		.loc 1 89 5 view .LVU1216
 2921 01c8 0122     		movs	r2, #1
 2922 01ca 8021     		movs	r1, #128
 2923 01cc 2148     		ldr	r0, .L106
 2924 01ce FFF7FEFF 		bl	HAL_GPIO_WritePin
 2925              	.LVL184:
  89:user/htu21d/htu21d.c ****     DelayUs(HTU21D_I2C_DELAY);
 2926              		.loc 1 89 5 view .LVU1217
  90:user/htu21d/htu21d.c ****     HTU21D_SCL_HIGH();
 2927              		.loc 1 90 5 view .LVU1218
  90:user/htu21d/htu21d.c ****     HTU21D_SCL_HIGH();
 2928              		.loc 1 90 5 is_stmt 0 view .LVU1219
 2929              	.LBE425:
 2930              	.LBE424:
 2931              	.LBE423:
 2932              	.LBE422:
  65:user/htu21d/htu21d.c **** 
 2933              		.loc 1 65 5 is_stmt 1 view .LVU1220
  67:user/htu21d/htu21d.c **** }
 2934              		.loc 1 67 5 view .LVU1221
  67:user/htu21d/htu21d.c **** }
 2935              		.loc 1 67 20 view .LVU1222
  67:user/htu21d/htu21d.c **** }
 2936              		.loc 1 67 11 view .LVU1223
 2937              	.LBB446:
 2938              	.LBB438:
 2939              	.LBB429:
 2940              	.LBB426:
  91:user/htu21d/htu21d.c ****     DelayUs(HTU21D_I2C_DELAY);
 2941              		.loc 1 91 5 view .LVU1224
  91:user/htu21d/htu21d.c ****     DelayUs(HTU21D_I2C_DELAY);
 2942              		.loc 1 91 5 view .LVU1225
ARM GAS  C:\Users\WENHUA~1\AppData\Local\Temp\ccnJErvg.s 			page 80


 2943 01d2 4021     		movs	r1, #64
 2944 01d4 0122     		movs	r2, #1
 2945 01d6 1F48     		ldr	r0, .L106
 2946 01d8 FFF7FEFF 		bl	HAL_GPIO_WritePin
 2947              	.LVL185:
  91:user/htu21d/htu21d.c ****     DelayUs(HTU21D_I2C_DELAY);
 2948              		.loc 1 91 5 view .LVU1226
  92:user/htu21d/htu21d.c ****     HTU21D_SDA_LOW();
 2949              		.loc 1 92 5 view .LVU1227
  92:user/htu21d/htu21d.c ****     HTU21D_SDA_LOW();
 2950              		.loc 1 92 5 is_stmt 0 view .LVU1228
 2951              	.LBE426:
 2952              	.LBE429:
 2953              	.LBE438:
 2954              	.LBE446:
  65:user/htu21d/htu21d.c **** 
 2955              		.loc 1 65 5 is_stmt 1 view .LVU1229
  67:user/htu21d/htu21d.c **** }
 2956              		.loc 1 67 5 view .LVU1230
  67:user/htu21d/htu21d.c **** }
 2957              		.loc 1 67 20 view .LVU1231
  67:user/htu21d/htu21d.c **** }
 2958              		.loc 1 67 11 view .LVU1232
 2959              	.LBB447:
 2960              	.LBB439:
 2961              	.LBB430:
 2962              	.LBB427:
  93:user/htu21d/htu21d.c ****     DelayUs(HTU21D_I2C_DELAY);
 2963              		.loc 1 93 5 view .LVU1233
  93:user/htu21d/htu21d.c ****     DelayUs(HTU21D_I2C_DELAY);
 2964              		.loc 1 93 5 view .LVU1234
 2965 01dc 2246     		mov	r2, r4
 2966 01de 8021     		movs	r1, #128
 2967 01e0 1C48     		ldr	r0, .L106
 2968 01e2 FFF7FEFF 		bl	HAL_GPIO_WritePin
 2969              	.LVL186:
  93:user/htu21d/htu21d.c ****     DelayUs(HTU21D_I2C_DELAY);
 2970              		.loc 1 93 5 view .LVU1235
  94:user/htu21d/htu21d.c ****     HTU21D_SCL_LOW();
 2971              		.loc 1 94 5 view .LVU1236
  94:user/htu21d/htu21d.c ****     HTU21D_SCL_LOW();
 2972              		.loc 1 94 5 is_stmt 0 view .LVU1237
 2973              	.LBE427:
 2974              	.LBE430:
 2975              	.LBE439:
 2976              	.LBE447:
  65:user/htu21d/htu21d.c **** 
 2977              		.loc 1 65 5 is_stmt 1 view .LVU1238
  67:user/htu21d/htu21d.c **** }
 2978              		.loc 1 67 5 view .LVU1239
  67:user/htu21d/htu21d.c **** }
 2979              		.loc 1 67 20 view .LVU1240
  67:user/htu21d/htu21d.c **** }
 2980              		.loc 1 67 11 view .LVU1241
 2981              	.LBB448:
 2982              	.LBB440:
 2983              	.LBB431:
ARM GAS  C:\Users\WENHUA~1\AppData\Local\Temp\ccnJErvg.s 			page 81


 2984              	.LBB428:
  95:user/htu21d/htu21d.c ****     DelayUs(HTU21D_I2C_DELAY);
 2985              		.loc 1 95 5 view .LVU1242
  95:user/htu21d/htu21d.c ****     DelayUs(HTU21D_I2C_DELAY);
 2986              		.loc 1 95 5 view .LVU1243
 2987 01e6 1B48     		ldr	r0, .L106
 2988 01e8 2246     		mov	r2, r4
 2989 01ea 4021     		movs	r1, #64
 2990 01ec FFF7FEFF 		bl	HAL_GPIO_WritePin
 2991              	.LVL187:
  95:user/htu21d/htu21d.c ****     DelayUs(HTU21D_I2C_DELAY);
 2992              		.loc 1 95 5 view .LVU1244
  96:user/htu21d/htu21d.c **** }
 2993              		.loc 1 96 5 view .LVU1245
  96:user/htu21d/htu21d.c **** }
 2994              		.loc 1 96 5 is_stmt 0 view .LVU1246
 2995              	.LBE428:
 2996              	.LBE431:
 2997              	.LBE440:
 2998              	.LBE448:
  65:user/htu21d/htu21d.c **** 
 2999              		.loc 1 65 5 is_stmt 1 view .LVU1247
  67:user/htu21d/htu21d.c **** }
 3000              		.loc 1 67 5 view .LVU1248
  67:user/htu21d/htu21d.c **** }
 3001              		.loc 1 67 20 view .LVU1249
  67:user/htu21d/htu21d.c **** }
 3002              		.loc 1 67 11 view .LVU1250
 3003              	.LBB449:
 3004              	.LBB441:
 351:user/htu21d/htu21d.c ****     if (status == 0) {
 3005              		.loc 1 351 5 view .LVU1251
 351:user/htu21d/htu21d.c ****     if (status == 0) {
 3006              		.loc 1 351 14 is_stmt 0 view .LVU1252
 3007 01f0 8020     		movs	r0, #128
 3008 01f2 FFF7FEFF 		bl	WriteByte
 3009              	.LVL188:
 352:user/htu21d/htu21d.c ****         goto error;
 3010              		.loc 1 352 5 is_stmt 1 view .LVU1253
 352:user/htu21d/htu21d.c ****         goto error;
 3011              		.loc 1 352 8 is_stmt 0 view .LVU1254
 3012 01f6 20B3     		cbz	r0, .L75
 355:user/htu21d/htu21d.c ****     if (status == 0) {
 3013              		.loc 1 355 5 is_stmt 1 view .LVU1255
 355:user/htu21d/htu21d.c ****     if (status == 0) {
 3014              		.loc 1 355 14 is_stmt 0 view .LVU1256
 3015 01f8 FE20     		movs	r0, #254
 3016              	.LVL189:
 355:user/htu21d/htu21d.c ****     if (status == 0) {
 3017              		.loc 1 355 14 view .LVU1257
 3018 01fa FFF7FEFF 		bl	WriteByte
 3019              	.LVL190:
 356:user/htu21d/htu21d.c ****         goto error;
 3020              		.loc 1 356 5 is_stmt 1 view .LVU1258
 356:user/htu21d/htu21d.c ****         goto error;
 3021              		.loc 1 356 8 is_stmt 0 view .LVU1259
 3022 01fe 00B3     		cbz	r0, .L75
ARM GAS  C:\Users\WENHUA~1\AppData\Local\Temp\ccnJErvg.s 			page 82


 359:user/htu21d/htu21d.c ****     HAL_Delay(15);
 3023              		.loc 1 359 5 is_stmt 1 view .LVU1260
 3024              	.LBB432:
 3025              	.LBI432:
  99:user/htu21d/htu21d.c **** {
 3026              		.loc 1 99 13 view .LVU1261
 3027              	.LBB433:
 101:user/htu21d/htu21d.c ****     DelayUs(HTU21D_I2C_DELAY);
 3028              		.loc 1 101 5 view .LVU1262
 101:user/htu21d/htu21d.c ****     DelayUs(HTU21D_I2C_DELAY);
 3029              		.loc 1 101 5 view .LVU1263
 3030 0200 2246     		mov	r2, r4
 3031 0202 8021     		movs	r1, #128
 3032 0204 1348     		ldr	r0, .L106
 3033              	.LVL191:
 101:user/htu21d/htu21d.c ****     DelayUs(HTU21D_I2C_DELAY);
 3034              		.loc 1 101 5 is_stmt 0 view .LVU1264
 3035 0206 FFF7FEFF 		bl	HAL_GPIO_WritePin
 3036              	.LVL192:
 101:user/htu21d/htu21d.c ****     DelayUs(HTU21D_I2C_DELAY);
 3037              		.loc 1 101 5 is_stmt 1 view .LVU1265
 102:user/htu21d/htu21d.c ****     HTU21D_SCL_HIGH();
 3038              		.loc 1 102 5 view .LVU1266
 102:user/htu21d/htu21d.c ****     HTU21D_SCL_HIGH();
 3039              		.loc 1 102 5 is_stmt 0 view .LVU1267
 3040              	.LBE433:
 3041              	.LBE432:
 3042              	.LBE441:
 3043              	.LBE449:
  65:user/htu21d/htu21d.c **** 
 3044              		.loc 1 65 5 is_stmt 1 view .LVU1268
  67:user/htu21d/htu21d.c **** }
 3045              		.loc 1 67 5 view .LVU1269
  67:user/htu21d/htu21d.c **** }
 3046              		.loc 1 67 20 view .LVU1270
  67:user/htu21d/htu21d.c **** }
 3047              		.loc 1 67 11 view .LVU1271
 3048              	.LBB450:
 3049              	.LBB442:
 3050              	.LBB436:
 3051              	.LBB434:
 103:user/htu21d/htu21d.c ****     DelayUs(HTU21D_I2C_DELAY);
 3052              		.loc 1 103 5 view .LVU1272
 103:user/htu21d/htu21d.c ****     DelayUs(HTU21D_I2C_DELAY);
 3053              		.loc 1 103 5 view .LVU1273
 3054 020a 0122     		movs	r2, #1
 3055 020c 4021     		movs	r1, #64
 3056 020e 1148     		ldr	r0, .L106
 3057 0210 FFF7FEFF 		bl	HAL_GPIO_WritePin
 3058              	.LVL193:
 103:user/htu21d/htu21d.c ****     DelayUs(HTU21D_I2C_DELAY);
 3059              		.loc 1 103 5 view .LVU1274
 104:user/htu21d/htu21d.c ****     HTU21D_SDA_HIGH();
 3060              		.loc 1 104 5 view .LVU1275
 104:user/htu21d/htu21d.c ****     HTU21D_SDA_HIGH();
 3061              		.loc 1 104 5 is_stmt 0 view .LVU1276
 3062              	.LBE434:
ARM GAS  C:\Users\WENHUA~1\AppData\Local\Temp\ccnJErvg.s 			page 83


 3063              	.LBE436:
 3064              	.LBE442:
 3065              	.LBE450:
  65:user/htu21d/htu21d.c **** 
 3066              		.loc 1 65 5 is_stmt 1 view .LVU1277
  67:user/htu21d/htu21d.c **** }
 3067              		.loc 1 67 5 view .LVU1278
  67:user/htu21d/htu21d.c **** }
 3068              		.loc 1 67 20 view .LVU1279
  67:user/htu21d/htu21d.c **** }
 3069              		.loc 1 67 11 view .LVU1280
 3070              	.LBB451:
 3071              	.LBB443:
 3072              	.LBB437:
 3073              	.LBB435:
 105:user/htu21d/htu21d.c ****     DelayUs(HTU21D_I2C_DELAY);
 3074              		.loc 1 105 5 view .LVU1281
 105:user/htu21d/htu21d.c ****     DelayUs(HTU21D_I2C_DELAY);
 3075              		.loc 1 105 5 view .LVU1282
 3076 0214 0122     		movs	r2, #1
 3077 0216 8021     		movs	r1, #128
 3078 0218 0E48     		ldr	r0, .L106
 3079 021a FFF7FEFF 		bl	HAL_GPIO_WritePin
 3080              	.LVL194:
 105:user/htu21d/htu21d.c ****     DelayUs(HTU21D_I2C_DELAY);
 3081              		.loc 1 105 5 view .LVU1283
 106:user/htu21d/htu21d.c **** }
 3082              		.loc 1 106 5 view .LVU1284
 106:user/htu21d/htu21d.c **** }
 3083              		.loc 1 106 5 is_stmt 0 view .LVU1285
 3084              	.LBE435:
 3085              	.LBE437:
 3086              	.LBE443:
 3087              	.LBE451:
  65:user/htu21d/htu21d.c **** 
 3088              		.loc 1 65 5 is_stmt 1 view .LVU1286
  67:user/htu21d/htu21d.c **** }
 3089              		.loc 1 67 5 view .LVU1287
  67:user/htu21d/htu21d.c **** }
 3090              		.loc 1 67 20 view .LVU1288
  67:user/htu21d/htu21d.c **** }
 3091              		.loc 1 67 11 view .LVU1289
 3092              	.LBB452:
 3093              	.LBB444:
 360:user/htu21d/htu21d.c **** 
 3094              		.loc 1 360 5 view .LVU1290
 3095 021e 0F20     		movs	r0, #15
 3096 0220 FFF7FEFF 		bl	HAL_Delay
 3097              	.LVL195:
 362:user/htu21d/htu21d.c ****     TRACE_PRINTF("\r\nHTU21D Reset OK\r\n");
 3098              		.loc 1 362 5 view .LVU1291
 363:user/htu21d/htu21d.c ****     return true;
 3099              		.loc 1 363 5 is_stmt 0 view .LVU1292
 3100 0224 2246     		mov	r2, r4
 3101 0226 2146     		mov	r1, r4
 3102 0228 2046     		mov	r0, r4
 3103 022a 0D4B     		ldr	r3, .L106+12
ARM GAS  C:\Users\WENHUA~1\AppData\Local\Temp\ccnJErvg.s 			page 84


 362:user/htu21d/htu21d.c ****     TRACE_PRINTF("\r\nHTU21D Reset OK\r\n");
 3104              		.loc 1 362 15 view .LVU1293
 3105 022c 2C70     		strb	r4, [r5]
 363:user/htu21d/htu21d.c ****     return true;
 3106              		.loc 1 363 5 is_stmt 1 view .LVU1294
 363:user/htu21d/htu21d.c ****     return true;
 3107              		.loc 1 363 5 view .LVU1295
 3108 022e FFF7FEFF 		bl	TRACE_COND_FSend
 3109              	.LVL196:
 363:user/htu21d/htu21d.c ****     return true;
 3110              		.loc 1 363 5 view .LVU1296
 364:user/htu21d/htu21d.c **** 
 3111              		.loc 1 364 5 view .LVU1297
 3112              	.L77:
 364:user/htu21d/htu21d.c **** 
 3113              		.loc 1 364 5 is_stmt 0 view .LVU1298
 3114              	.LBE444:
 3115              	.LBE452:
 407:user/htu21d/htu21d.c ****     HTU21D_GetData();
 3116              		.loc 1 407 5 is_stmt 1 view .LVU1299
 3117 0232 6420     		movs	r0, #100
 3118 0234 FFF7FEFF 		bl	HAL_Delay
 3119              	.LVL197:
 408:user/htu21d/htu21d.c **** }
 3120              		.loc 1 408 5 view .LVU1300
 3121              		.loc 1 409 1 is_stmt 0 view .LVU1301
 3122 0238 04B0     		add	sp, sp, #16
 3123              	.LCFI13:
 3124              		.cfi_remember_state
 3125              		.cfi_def_cfa_offset 24
 3126              		@ sp needed
 3127 023a BDE87043 		pop	{r4, r5, r6, r8, r9, lr}
 3128              	.LCFI14:
 3129              		.cfi_restore 14
 3130              		.cfi_restore 9
 3131              		.cfi_restore 8
 3132              		.cfi_restore 6
 3133              		.cfi_restore 5
 3134              		.cfi_restore 4
 3135              		.cfi_def_cfa_offset 0
 408:user/htu21d/htu21d.c **** }
 3136              		.loc 1 408 5 view .LVU1302
 3137 023e FFF7FEBF 		b	HTU21D_GetData.isra.0
 3138              	.LVL198:
 3139              	.L75:
 3140              	.LCFI15:
 3141              		.cfi_restore_state
 3142              	.LDL3:
 3143              	.LBB453:
 3144              	.LBB445:
 367:user/htu21d/htu21d.c ****     g_i2cFial = 1;
 3145              		.loc 1 367 5 is_stmt 1 view .LVU1303
 367:user/htu21d/htu21d.c ****     g_i2cFial = 1;
 3146              		.loc 1 367 5 view .LVU1304
 3147 0242 0022     		movs	r2, #0
 3148 0244 074B     		ldr	r3, .L106+16
 3149 0246 1146     		mov	r1, r2
ARM GAS  C:\Users\WENHUA~1\AppData\Local\Temp\ccnJErvg.s 			page 85


 3150 0248 1046     		mov	r0, r2
 3151              	.LVL199:
 367:user/htu21d/htu21d.c ****     g_i2cFial = 1;
 3152              		.loc 1 367 5 is_stmt 0 view .LVU1305
 3153 024a FFF7FEFF 		bl	TRACE_COND_FSend
 3154              	.LVL200:
 367:user/htu21d/htu21d.c ****     g_i2cFial = 1;
 3155              		.loc 1 367 5 is_stmt 1 view .LVU1306
 368:user/htu21d/htu21d.c ****     return false;
 3156              		.loc 1 368 5 view .LVU1307
 368:user/htu21d/htu21d.c ****     return false;
 3157              		.loc 1 368 15 is_stmt 0 view .LVU1308
 3158 024e 0123     		movs	r3, #1
 3159 0250 2B70     		strb	r3, [r5]
 369:user/htu21d/htu21d.c **** }
 3160              		.loc 1 369 5 is_stmt 1 view .LVU1309
 369:user/htu21d/htu21d.c **** }
 3161              		.loc 1 369 12 is_stmt 0 view .LVU1310
 3162 0252 EEE7     		b	.L77
 3163              	.L107:
 3164              		.align	2
 3165              	.L106:
 3166 0254 000C0140 		.word	1073810432
 3167 0258 00000000 		.word	.LANCHOR1
 3168 025c 00000000 		.word	.LC3
 3169 0260 14000000 		.word	.LC4
 3170 0264 28000000 		.word	.LC5
 3171              	.LBE445:
 3172              	.LBE453:
 3173              		.cfi_endproc
 3174              	.LFE83:
 3176              		.section	.text.HTU21D_Sampling,"ax",%progbits
 3177              		.align	1
 3178              		.p2align 2,,3
 3179              		.global	HTU21D_Sampling
 3180              		.syntax unified
 3181              		.thumb
 3182              		.thumb_func
 3184              	HTU21D_Sampling:
 3185              	.LFB82:
 383:user/htu21d/htu21d.c ****     static uint8_t count;
 3186              		.loc 1 383 1 is_stmt 1 view -0
 3187              		.cfi_startproc
 3188              		@ args = 0, pretend = 0, frame = 0
 3189              		@ frame_needed = 0, uses_anonymous_args = 0
 384:user/htu21d/htu21d.c **** 
 3190              		.loc 1 384 5 view .LVU1312
 386:user/htu21d/htu21d.c ****         g_i2cFial = 0;
 3191              		.loc 1 386 5 view .LVU1313
 383:user/htu21d/htu21d.c ****     static uint8_t count;
 3192              		.loc 1 383 1 is_stmt 0 view .LVU1314
 3193 0000 10B5     		push	{r4, lr}
 3194              	.LCFI16:
 3195              		.cfi_def_cfa_offset 8
 3196              		.cfi_offset 4, -8
 3197              		.cfi_offset 14, -4
 386:user/htu21d/htu21d.c ****         g_i2cFial = 0;
ARM GAS  C:\Users\WENHUA~1\AppData\Local\Temp\ccnJErvg.s 			page 86


 3198              		.loc 1 386 9 view .LVU1315
 3199 0002 0E4B     		ldr	r3, .L118
 386:user/htu21d/htu21d.c ****         g_i2cFial = 0;
 3200              		.loc 1 386 8 view .LVU1316
 3201 0004 1A78     		ldrb	r2, [r3]	@ zero_extendqisi2
 3202 0006 3AB9     		cbnz	r2, .L114
 3203 0008 0D4C     		ldr	r4, .L118+4
 391:user/htu21d/htu21d.c ****     if (count > 9) {
 3204              		.loc 1 391 5 is_stmt 1 view .LVU1317
 391:user/htu21d/htu21d.c ****     if (count > 9) {
 3205              		.loc 1 391 10 is_stmt 0 view .LVU1318
 3206 000a 2378     		ldrb	r3, [r4]	@ zero_extendqisi2
 3207 000c 0133     		adds	r3, r3, #1
 3208 000e DBB2     		uxtb	r3, r3
 392:user/htu21d/htu21d.c ****         count = 0;
 3209              		.loc 1 392 5 is_stmt 1 view .LVU1319
 392:user/htu21d/htu21d.c ****         count = 0;
 3210              		.loc 1 392 8 is_stmt 0 view .LVU1320
 3211 0010 092B     		cmp	r3, #9
 3212 0012 0CD8     		bhi	.L110
 3213              	.L117:
 391:user/htu21d/htu21d.c ****     if (count > 9) {
 3214              		.loc 1 391 10 view .LVU1321
 3215 0014 2370     		strb	r3, [r4]
 396:user/htu21d/htu21d.c **** 
 3216              		.loc 1 396 1 view .LVU1322
 3217 0016 10BD     		pop	{r4, pc}
 3218              	.L114:
 387:user/htu21d/htu21d.c ****         count = 0x00;
 3219              		.loc 1 387 9 is_stmt 1 view .LVU1323
 387:user/htu21d/htu21d.c ****         count = 0x00;
 3220              		.loc 1 387 19 is_stmt 0 view .LVU1324
 3221 0018 0022     		movs	r2, #0
 388:user/htu21d/htu21d.c ****         HTU21D_Init();
 3222              		.loc 1 388 15 view .LVU1325
 3223 001a 094C     		ldr	r4, .L118+4
 387:user/htu21d/htu21d.c ****         count = 0x00;
 3224              		.loc 1 387 19 view .LVU1326
 3225 001c 1A70     		strb	r2, [r3]
 388:user/htu21d/htu21d.c ****         HTU21D_Init();
 3226              		.loc 1 388 9 is_stmt 1 view .LVU1327
 388:user/htu21d/htu21d.c ****         HTU21D_Init();
 3227              		.loc 1 388 15 is_stmt 0 view .LVU1328
 3228 001e 2270     		strb	r2, [r4]
 389:user/htu21d/htu21d.c ****     }
 3229              		.loc 1 389 9 is_stmt 1 view .LVU1329
 3230 0020 FFF7FEFF 		bl	HTU21D_Init
 3231              	.LVL201:
 391:user/htu21d/htu21d.c ****     if (count > 9) {
 3232              		.loc 1 391 5 view .LVU1330
 391:user/htu21d/htu21d.c ****     if (count > 9) {
 3233              		.loc 1 391 10 is_stmt 0 view .LVU1331
 3234 0024 2378     		ldrb	r3, [r4]	@ zero_extendqisi2
 3235 0026 0133     		adds	r3, r3, #1
 3236 0028 DBB2     		uxtb	r3, r3
 392:user/htu21d/htu21d.c ****         count = 0;
 3237              		.loc 1 392 5 is_stmt 1 view .LVU1332
ARM GAS  C:\Users\WENHUA~1\AppData\Local\Temp\ccnJErvg.s 			page 87


 392:user/htu21d/htu21d.c ****         count = 0;
 3238              		.loc 1 392 8 is_stmt 0 view .LVU1333
 3239 002a 092B     		cmp	r3, #9
 3240 002c F2D9     		bls	.L117
 3241              	.L110:
 393:user/htu21d/htu21d.c ****         HTU21D_GetData();
 3242              		.loc 1 393 9 is_stmt 1 view .LVU1334
 393:user/htu21d/htu21d.c ****         HTU21D_GetData();
 3243              		.loc 1 393 15 is_stmt 0 view .LVU1335
 3244 002e 0023     		movs	r3, #0
 3245 0030 2370     		strb	r3, [r4]
 394:user/htu21d/htu21d.c ****     }
 3246              		.loc 1 394 9 is_stmt 1 view .LVU1336
 396:user/htu21d/htu21d.c **** 
 3247              		.loc 1 396 1 is_stmt 0 view .LVU1337
 3248 0032 BDE81040 		pop	{r4, lr}
 3249              	.LCFI17:
 3250              		.cfi_restore 14
 3251              		.cfi_restore 4
 3252              		.cfi_def_cfa_offset 0
 394:user/htu21d/htu21d.c ****     }
 3253              		.loc 1 394 9 view .LVU1338
 3254 0036 FFF7FEBF 		b	HTU21D_GetData.isra.0
 3255              	.LVL202:
 3256              	.L119:
 3257 003a 00BF     		.align	2
 3258              	.L118:
 3259 003c 00000000 		.word	.LANCHOR1
 3260 0040 00000000 		.word	.LANCHOR2
 3261              		.cfi_endproc
 3262              	.LFE82:
 3264              		.global	g_thData
 3265              		.section	.bss.count.0,"aw",%nobits
 3266              		.set	.LANCHOR2,. + 0
 3269              	count.0:
 3270 0000 00       		.space	1
 3271              		.section	.bss.g_i2cFial,"aw",%nobits
 3272              		.set	.LANCHOR1,. + 0
 3275              	g_i2cFial:
 3276 0000 00       		.space	1
 3277              		.section	.bss.g_thData,"aw",%nobits
 3278              		.align	2
 3279              		.set	.LANCHOR0,. + 0
 3282              	g_thData:
 3283 0000 00000000 		.space	4
 3284              		.text
 3285              	.Letext0:
 3286              		.file 2 "d:\\program files (x86)\\gnu arm embedded toolchain\\10 2021.10\\arm-none-eabi\\include\\
 3287              		.file 3 "d:\\program files (x86)\\gnu arm embedded toolchain\\10 2021.10\\arm-none-eabi\\include\\
 3288              		.file 4 "Drivers/CMSIS/Device/ST/STM32F1xx/Include/stm32f103xb.h"
 3289              		.file 5 "Drivers/STM32F1xx_HAL_Driver/Inc/stm32f1xx_hal_gpio.h"
 3290              		.file 6 "user/trace/trace.h"
 3291              		.file 7 "Drivers/STM32F1xx_HAL_Driver/Inc/stm32f1xx_hal.h"
ARM GAS  C:\Users\WENHUA~1\AppData\Local\Temp\ccnJErvg.s 			page 88


DEFINED SYMBOLS
                            *ABS*:00000000 htu21d.c
C:\Users\WENHUA~1\AppData\Local\Temp\ccnJErvg.s:18     .text.WriteByte:00000000 $t
C:\Users\WENHUA~1\AppData\Local\Temp\ccnJErvg.s:24     .text.WriteByte:00000000 WriteByte
C:\Users\WENHUA~1\AppData\Local\Temp\ccnJErvg.s:329    .text.WriteByte:000000c0 $d
C:\Users\WENHUA~1\AppData\Local\Temp\ccnJErvg.s:340    .rodata.HTU21D_GetData.isra.0.str1.4:00000000 $d
C:\Users\WENHUA~1\AppData\Local\Temp\ccnJErvg.s:350    .text.HTU21D_GetData.isra.0:00000000 $t
C:\Users\WENHUA~1\AppData\Local\Temp\ccnJErvg.s:356    .text.HTU21D_GetData.isra.0:00000000 HTU21D_GetData.isra.0
C:\Users\WENHUA~1\AppData\Local\Temp\ccnJErvg.s:513    .text.HTU21D_GetData.isra.0:00000054 $d
C:\Users\WENHUA~1\AppData\Local\Temp\ccnJErvg.s:523    .text.HTU21D_GetData.isra.0:00000064 $t
C:\Users\WENHUA~1\AppData\Local\Temp\ccnJErvg.s:1812   .text.HTU21D_GetData.isra.0:000003a8 $d
C:\Users\WENHUA~1\AppData\Local\Temp\ccnJErvg.s:1818   .text.HTU21D_GetData.isra.0:000003bc $t
C:\Users\WENHUA~1\AppData\Local\Temp\ccnJErvg.s:2012   .text.HTU21D_GetData.isra.0:00000458 $d
C:\Users\WENHUA~1\AppData\Local\Temp\ccnJErvg.s:2026   .text.HTU21D_GetTemperature:00000000 $t
C:\Users\WENHUA~1\AppData\Local\Temp\ccnJErvg.s:2033   .text.HTU21D_GetTemperature:00000000 HTU21D_GetTemperature
C:\Users\WENHUA~1\AppData\Local\Temp\ccnJErvg.s:2049   .text.HTU21D_GetTemperature:00000008 $d
C:\Users\WENHUA~1\AppData\Local\Temp\ccnJErvg.s:2054   .text.HTU21D_GetHumidity:00000000 $t
C:\Users\WENHUA~1\AppData\Local\Temp\ccnJErvg.s:2061   .text.HTU21D_GetHumidity:00000000 HTU21D_GetHumidity
C:\Users\WENHUA~1\AppData\Local\Temp\ccnJErvg.s:2077   .text.HTU21D_GetHumidity:00000008 $d
C:\Users\WENHUA~1\AppData\Local\Temp\ccnJErvg.s:2082   .rodata.HTU21D_Init.str1.4:00000000 $d
C:\Users\WENHUA~1\AppData\Local\Temp\ccnJErvg.s:2092   .text.HTU21D_Init:00000000 $t
C:\Users\WENHUA~1\AppData\Local\Temp\ccnJErvg.s:2099   .text.HTU21D_Init:00000000 HTU21D_Init
C:\Users\WENHUA~1\AppData\Local\Temp\ccnJErvg.s:3166   .text.HTU21D_Init:00000254 $d
C:\Users\WENHUA~1\AppData\Local\Temp\ccnJErvg.s:3177   .text.HTU21D_Sampling:00000000 $t
C:\Users\WENHUA~1\AppData\Local\Temp\ccnJErvg.s:3184   .text.HTU21D_Sampling:00000000 HTU21D_Sampling
C:\Users\WENHUA~1\AppData\Local\Temp\ccnJErvg.s:3259   .text.HTU21D_Sampling:0000003c $d
C:\Users\WENHUA~1\AppData\Local\Temp\ccnJErvg.s:3282   .bss.g_thData:00000000 g_thData
C:\Users\WENHUA~1\AppData\Local\Temp\ccnJErvg.s:3269   .bss.count.0:00000000 count.0
C:\Users\WENHUA~1\AppData\Local\Temp\ccnJErvg.s:3270   .bss.count.0:00000000 $d
C:\Users\WENHUA~1\AppData\Local\Temp\ccnJErvg.s:3275   .bss.g_i2cFial:00000000 g_i2cFial
C:\Users\WENHUA~1\AppData\Local\Temp\ccnJErvg.s:3276   .bss.g_i2cFial:00000000 $d
C:\Users\WENHUA~1\AppData\Local\Temp\ccnJErvg.s:3278   .bss.g_thData:00000000 $d

UNDEFINED SYMBOLS
HAL_GPIO_WritePin
HAL_GPIO_Init
HAL_GPIO_ReadPin
__aeabi_i2d
__aeabi_dmul
__aeabi_dsub
__aeabi_d2f
__aeabi_f2uiz
__aeabi_f2iz
TRACE_COND_FSend
HAL_Delay
