ARM GAS  C:\Users\WENHUA~1\AppData\Local\Temp\cc11gPXD.s 			page 1


   1              		.cpu cortex-m3
   2              		.arch armv7-m
   3              		.fpu softvfp
   4              		.eabi_attribute 20, 1
   5              		.eabi_attribute 21, 1
   6              		.eabi_attribute 23, 3
   7              		.eabi_attribute 24, 1
   8              		.eabi_attribute 25, 1
   9              		.eabi_attribute 26, 1
  10              		.eabi_attribute 30, 2
  11              		.eabi_attribute 34, 1
  12              		.eabi_attribute 18, 4
  13              		.file	"htu21d.c"
  14              		.text
  15              	.Ltext0:
  16              		.cfi_sections	.debug_frame
  17              		.section	.text.WriteByte,"ax",%progbits
  18              		.align	1
  19              		.p2align 2,,3
  20              		.syntax unified
  21              		.thumb
  22              		.thumb_func
  24              	WriteByte:
  25              	.LVL0:
  26              	.LFB75:
  27              		.file 1 "user/htu21d/htu21d.c"
   1:user/htu21d/htu21d.c **** #include "htu21d.h"
   2:user/htu21d/htu21d.c **** #include <stdio.h>
   3:user/htu21d/htu21d.c **** #include <stdint.h>
   4:user/htu21d/htu21d.c **** #include <stdbool.h>
   5:user/htu21d/htu21d.c **** #include "stm32f1xx_hal.h"
   6:user/htu21d/htu21d.c **** #include "main.h"
   7:user/htu21d/htu21d.c **** 
   8:user/htu21d/htu21d.c **** #define HTU21D_I2C_DELAY 2
   9:user/htu21d/htu21d.c **** 
  10:user/htu21d/htu21d.c **** #define Write 0
  11:user/htu21d/htu21d.c **** #define Read 1
  12:user/htu21d/htu21d.c **** 
  13:user/htu21d/htu21d.c **** #define SlaveAddr 0x80
  14:user/htu21d/htu21d.c **** #define resolution 0
  15:user/htu21d/htu21d.c **** 
  16:user/htu21d/htu21d.c **** #define TEM_HOLD 0xe3
  17:user/htu21d/htu21d.c **** #define TEM_NO 0xf3
  18:user/htu21d/htu21d.c **** 
  19:user/htu21d/htu21d.c **** #define HUM_HOLD 0xe5
  20:user/htu21d/htu21d.c **** #define HUM_NO 0xf5
  21:user/htu21d/htu21d.c **** 
  22:user/htu21d/htu21d.c **** #define WRSR 0xe6
  23:user/htu21d/htu21d.c **** #define RDSR 0xe7
  24:user/htu21d/htu21d.c **** #define HT_RST 0xfe
  25:user/htu21d/htu21d.c **** 
  26:user/htu21d/htu21d.c **** enum SdaIoType {
  27:user/htu21d/htu21d.c ****     HTU21D_SDA_OUTPUT,
  28:user/htu21d/htu21d.c ****     HTU21D_SDA_INPUT,
  29:user/htu21d/htu21d.c **** };
  30:user/htu21d/htu21d.c **** 
  31:user/htu21d/htu21d.c **** #define HTU21D_SDAIN()                    \
ARM GAS  C:\Users\WENHUA~1\AppData\Local\Temp\cc11gPXD.s 			page 2


  32:user/htu21d/htu21d.c ****     do {                                  \
  33:user/htu21d/htu21d.c ****         HTU21D_SDA_SET(HTU21D_SDA_INPUT); \
  34:user/htu21d/htu21d.c ****     } while (0)
  35:user/htu21d/htu21d.c **** #define HTU21D_SDAOUT()                    \
  36:user/htu21d/htu21d.c ****     do {                                   \
  37:user/htu21d/htu21d.c ****         HTU21D_SDA_SET(HTU21D_SDA_OUTPUT); \
  38:user/htu21d/htu21d.c ****     } while (0)
  39:user/htu21d/htu21d.c **** #define HTU21D_SCL_HIGH()                                                      \
  40:user/htu21d/htu21d.c ****     do {                                                                       \
  41:user/htu21d/htu21d.c ****         HAL_GPIO_WritePin(HTU21D_SCL_GPIO_Port, HTU21D_SCL_Pin, GPIO_PIN_SET); \
  42:user/htu21d/htu21d.c ****     } while (0)
  43:user/htu21d/htu21d.c **** #define HTU21D_SCL_LOW()                                                         \
  44:user/htu21d/htu21d.c ****     do {                                                                         \
  45:user/htu21d/htu21d.c ****         HAL_GPIO_WritePin(HTU21D_SCL_GPIO_Port, HTU21D_SCL_Pin, GPIO_PIN_RESET); \
  46:user/htu21d/htu21d.c ****     } while (0)
  47:user/htu21d/htu21d.c **** #define HTU21D_SDA_HIGH()                                                      \
  48:user/htu21d/htu21d.c ****     do {                                                                       \
  49:user/htu21d/htu21d.c ****         HAL_GPIO_WritePin(HTU21D_SDA_GPIO_Port, HTU21D_SDA_Pin, GPIO_PIN_SET); \
  50:user/htu21d/htu21d.c ****     } while (0)
  51:user/htu21d/htu21d.c **** #define HTU21D_SDA_LOW()                                                         \
  52:user/htu21d/htu21d.c ****     do {                                                                         \
  53:user/htu21d/htu21d.c ****         HAL_GPIO_WritePin(HTU21D_SDA_GPIO_Port, HTU21D_SDA_Pin, GPIO_PIN_RESET); \
  54:user/htu21d/htu21d.c ****     } while (0)
  55:user/htu21d/htu21d.c **** 
  56:user/htu21d/htu21d.c **** struct Htu21dDataType {
  57:user/htu21d/htu21d.c ****     int16_t temperature;
  58:user/htu21d/htu21d.c ****     uint16_t humidity;
  59:user/htu21d/htu21d.c **** };
  60:user/htu21d/htu21d.c **** struct Htu21dDataType g_thData;
  61:user/htu21d/htu21d.c **** static uint8_t g_i2cFial;
  62:user/htu21d/htu21d.c **** 
  63:user/htu21d/htu21d.c **** static void DelayUs(uint8_t c)
  64:user/htu21d/htu21d.c **** {
  65:user/htu21d/htu21d.c ****     uint16_t count = c;
  66:user/htu21d/htu21d.c **** 
  67:user/htu21d/htu21d.c ****     while (count--);
  68:user/htu21d/htu21d.c **** }
  69:user/htu21d/htu21d.c **** 
  70:user/htu21d/htu21d.c **** static void HTU21D_SDA_SET(enum SdaIoType io)
  71:user/htu21d/htu21d.c **** {
  72:user/htu21d/htu21d.c ****     GPIO_InitTypeDef GPIO_InitStructure;
  73:user/htu21d/htu21d.c **** 
  74:user/htu21d/htu21d.c ****     if (io == HTU21D_SDA_OUTPUT) {
  75:user/htu21d/htu21d.c ****         GPIO_InitStructure.Pin = HTU21D_SDA_Pin;
  76:user/htu21d/htu21d.c ****         GPIO_InitStructure.Mode = GPIO_MODE_OUTPUT_OD;
  77:user/htu21d/htu21d.c ****         GPIO_InitStructure.Speed = GPIO_SPEED_FREQ_LOW;
  78:user/htu21d/htu21d.c ****         HAL_GPIO_Init(HTU21D_SDA_GPIO_Port, &GPIO_InitStructure);
  79:user/htu21d/htu21d.c ****     } else {
  80:user/htu21d/htu21d.c ****         GPIO_InitStructure.Pin = HTU21D_SDA_Pin;
  81:user/htu21d/htu21d.c ****         GPIO_InitStructure.Mode = GPIO_MODE_INPUT;
  82:user/htu21d/htu21d.c ****         GPIO_InitStructure.Pull = GPIO_PULLUP;
  83:user/htu21d/htu21d.c ****         HAL_GPIO_Init(HTU21D_SDA_GPIO_Port, &GPIO_InitStructure);
  84:user/htu21d/htu21d.c ****     }
  85:user/htu21d/htu21d.c **** }
  86:user/htu21d/htu21d.c **** 
  87:user/htu21d/htu21d.c **** static void StartBus(void)
  88:user/htu21d/htu21d.c **** {
ARM GAS  C:\Users\WENHUA~1\AppData\Local\Temp\cc11gPXD.s 			page 3


  89:user/htu21d/htu21d.c ****     HTU21D_SDA_HIGH();
  90:user/htu21d/htu21d.c ****     DelayUs(HTU21D_I2C_DELAY);
  91:user/htu21d/htu21d.c ****     HTU21D_SCL_HIGH();
  92:user/htu21d/htu21d.c ****     DelayUs(HTU21D_I2C_DELAY);
  93:user/htu21d/htu21d.c ****     HTU21D_SDA_LOW();
  94:user/htu21d/htu21d.c ****     DelayUs(HTU21D_I2C_DELAY);
  95:user/htu21d/htu21d.c ****     HTU21D_SCL_LOW();
  96:user/htu21d/htu21d.c ****     DelayUs(HTU21D_I2C_DELAY);
  97:user/htu21d/htu21d.c **** }
  98:user/htu21d/htu21d.c **** 
  99:user/htu21d/htu21d.c **** static void StopBus(void)
 100:user/htu21d/htu21d.c **** {
 101:user/htu21d/htu21d.c ****     HTU21D_SDA_LOW();
 102:user/htu21d/htu21d.c ****     DelayUs(HTU21D_I2C_DELAY);
 103:user/htu21d/htu21d.c ****     HTU21D_SCL_HIGH();
 104:user/htu21d/htu21d.c ****     DelayUs(HTU21D_I2C_DELAY);
 105:user/htu21d/htu21d.c ****     HTU21D_SDA_HIGH();
 106:user/htu21d/htu21d.c ****     DelayUs(HTU21D_I2C_DELAY);
 107:user/htu21d/htu21d.c **** }
 108:user/htu21d/htu21d.c **** 
 109:user/htu21d/htu21d.c **** static void AckBus(void)
 110:user/htu21d/htu21d.c **** {
 111:user/htu21d/htu21d.c ****     HTU21D_SDA_LOW();
 112:user/htu21d/htu21d.c ****     DelayUs(HTU21D_I2C_DELAY);
 113:user/htu21d/htu21d.c ****     HTU21D_SCL_LOW();
 114:user/htu21d/htu21d.c ****     DelayUs(HTU21D_I2C_DELAY);
 115:user/htu21d/htu21d.c ****     HTU21D_SCL_HIGH();
 116:user/htu21d/htu21d.c ****     DelayUs(HTU21D_I2C_DELAY);
 117:user/htu21d/htu21d.c ****     HTU21D_SCL_LOW();
 118:user/htu21d/htu21d.c ****     DelayUs(HTU21D_I2C_DELAY);
 119:user/htu21d/htu21d.c ****     HTU21D_SDA_HIGH();
 120:user/htu21d/htu21d.c ****     DelayUs(HTU21D_I2C_DELAY);
 121:user/htu21d/htu21d.c **** }
 122:user/htu21d/htu21d.c **** 
 123:user/htu21d/htu21d.c **** static void NoAckBus(void)
 124:user/htu21d/htu21d.c **** {
 125:user/htu21d/htu21d.c ****     HTU21D_SDA_HIGH();
 126:user/htu21d/htu21d.c ****     DelayUs(HTU21D_I2C_DELAY);
 127:user/htu21d/htu21d.c ****     HTU21D_SCL_HIGH();
 128:user/htu21d/htu21d.c ****     DelayUs(HTU21D_I2C_DELAY);
 129:user/htu21d/htu21d.c ****     HTU21D_SCL_LOW();
 130:user/htu21d/htu21d.c **** }
 131:user/htu21d/htu21d.c **** 
 132:user/htu21d/htu21d.c **** static void HTU21D_I2cInit(void)
 133:user/htu21d/htu21d.c **** {
 134:user/htu21d/htu21d.c ****     GPIO_InitTypeDef GPIO_InitStructure;
 135:user/htu21d/htu21d.c **** 
 136:user/htu21d/htu21d.c ****     GPIO_InitStructure.Pin = HTU21D_SDA_Pin;
 137:user/htu21d/htu21d.c ****     GPIO_InitStructure.Mode = GPIO_MODE_OUTPUT_OD;
 138:user/htu21d/htu21d.c ****     GPIO_InitStructure.Speed = GPIO_SPEED_FREQ_LOW;
 139:user/htu21d/htu21d.c ****     HAL_GPIO_Init(HTU21D_SDA_GPIO_Port, &GPIO_InitStructure);
 140:user/htu21d/htu21d.c **** 
 141:user/htu21d/htu21d.c ****     GPIO_InitStructure.Pin = HTU21D_SCL_Pin;
 142:user/htu21d/htu21d.c ****     GPIO_InitStructure.Mode = GPIO_MODE_OUTPUT_OD;
 143:user/htu21d/htu21d.c ****     GPIO_InitStructure.Speed = GPIO_SPEED_FREQ_LOW;
 144:user/htu21d/htu21d.c ****     HAL_GPIO_Init(HTU21D_SCL_GPIO_Port, &GPIO_InitStructure);
 145:user/htu21d/htu21d.c **** 
ARM GAS  C:\Users\WENHUA~1\AppData\Local\Temp\cc11gPXD.s 			page 4


 146:user/htu21d/htu21d.c ****     HAL_GPIO_WritePin(HTU21D_SCL_GPIO_Port, HTU21D_SCL_Pin, GPIO_PIN_SET);
 147:user/htu21d/htu21d.c ****     HAL_GPIO_WritePin(HTU21D_SDA_GPIO_Port, HTU21D_SDA_Pin, GPIO_PIN_SET);
 148:user/htu21d/htu21d.c **** }
 149:user/htu21d/htu21d.c **** 
 150:user/htu21d/htu21d.c **** static uint8_t WriteByte(uint8_t send_data)
 151:user/htu21d/htu21d.c **** {
  28              		.loc 1 151 1 view -0
  29              		.cfi_startproc
  30              		@ args = 0, pretend = 0, frame = 16
  31              		@ frame_needed = 0, uses_anonymous_args = 0
 152:user/htu21d/htu21d.c ****     uint8_t temp;
  32              		.loc 1 152 5 view .LVU1
 153:user/htu21d/htu21d.c ****     uint8_t ack = 0;
  33              		.loc 1 153 5 view .LVU2
 154:user/htu21d/htu21d.c ****     uint8_t i;
  34              		.loc 1 154 5 view .LVU3
 155:user/htu21d/htu21d.c **** 
 156:user/htu21d/htu21d.c ****     for (i = 0; i < 8; i++) {
  35              		.loc 1 156 5 view .LVU4
  36              		.loc 1 156 17 view .LVU5
 151:user/htu21d/htu21d.c ****     uint8_t temp;
  37              		.loc 1 151 1 is_stmt 0 view .LVU6
  38 0000 F0B5     		push	{r4, r5, r6, r7, lr}
  39              	.LCFI0:
  40              		.cfi_def_cfa_offset 20
  41              		.cfi_offset 4, -20
  42              		.cfi_offset 5, -16
  43              		.cfi_offset 6, -12
  44              		.cfi_offset 7, -8
  45              		.cfi_offset 14, -4
 157:user/htu21d/htu21d.c ****         HTU21D_SCL_LOW();
 158:user/htu21d/htu21d.c ****         if ((send_data << i) & 0x80) {
  46              		.loc 1 158 24 view .LVU7
  47 0002 0024     		movs	r4, #0
 151:user/htu21d/htu21d.c ****     uint8_t temp;
  48              		.loc 1 151 1 view .LVU8
  49 0004 0646     		mov	r6, r0
 157:user/htu21d/htu21d.c ****         HTU21D_SCL_LOW();
  50              		.loc 1 157 9 view .LVU9
  51 0006 2E4D     		ldr	r5, .L20
 151:user/htu21d/htu21d.c ****     uint8_t temp;
  52              		.loc 1 151 1 view .LVU10
  53 0008 85B0     		sub	sp, sp, #20
  54              	.LCFI1:
  55              		.cfi_def_cfa_offset 40
  56              	.LVL1:
  57              	.L5:
 157:user/htu21d/htu21d.c ****         HTU21D_SCL_LOW();
  58              		.loc 1 157 9 is_stmt 1 view .LVU11
 157:user/htu21d/htu21d.c ****         HTU21D_SCL_LOW();
  59              		.loc 1 157 9 view .LVU12
  60 000a 0022     		movs	r2, #0
  61 000c 4021     		movs	r1, #64
  62 000e 2846     		mov	r0, r5
  63 0010 FFF7FEFF 		bl	HAL_GPIO_WritePin
  64              	.LVL2:
 157:user/htu21d/htu21d.c ****         HTU21D_SCL_LOW();
ARM GAS  C:\Users\WENHUA~1\AppData\Local\Temp\cc11gPXD.s 			page 5


  65              		.loc 1 157 9 view .LVU13
  66              		.loc 1 158 9 view .LVU14
 159:user/htu21d/htu21d.c ****             HTU21D_SDA_HIGH();
  67              		.loc 1 159 13 view .LVU15
  68              		.loc 1 159 13 view .LVU16
 160:user/htu21d/htu21d.c ****         } else {
 161:user/htu21d/htu21d.c ****             HTU21D_SDA_LOW();
  69              		.loc 1 161 13 view .LVU17
  70              		.loc 1 161 13 view .LVU18
 158:user/htu21d/htu21d.c ****             HTU21D_SDA_HIGH();
  71              		.loc 1 158 24 is_stmt 0 view .LVU19
  72 0014 06FA04F2 		lsl	r2, r6, r4
 158:user/htu21d/htu21d.c ****             HTU21D_SDA_HIGH();
  73              		.loc 1 158 12 view .LVU20
  74 0018 12F08002 		ands	r2, r2, #128
 159:user/htu21d/htu21d.c ****             HTU21D_SDA_HIGH();
  75              		.loc 1 159 13 view .LVU21
  76 001c 18BF     		it	ne
  77 001e 0122     		movne	r2, #1
  78              		.loc 1 161 13 view .LVU22
  79 0020 8021     		movs	r1, #128
  80 0022 2846     		mov	r0, r5
  81 0024 FFF7FEFF 		bl	HAL_GPIO_WritePin
  82              	.LVL3:
  83              		.loc 1 161 13 is_stmt 1 view .LVU23
 162:user/htu21d/htu21d.c ****         }
 163:user/htu21d/htu21d.c ****         DelayUs(HTU21D_I2C_DELAY);
  84              		.loc 1 163 9 view .LVU24
  65:user/htu21d/htu21d.c **** 
  85              		.loc 1 65 5 view .LVU25
  67:user/htu21d/htu21d.c **** }
  86              		.loc 1 67 5 view .LVU26
  67:user/htu21d/htu21d.c **** }
  87              		.loc 1 67 20 view .LVU27
  67:user/htu21d/htu21d.c **** }
  88              		.loc 1 67 11 view .LVU28
 164:user/htu21d/htu21d.c ****         HTU21D_SCL_HIGH();
  89              		.loc 1 164 9 view .LVU29
  90              		.loc 1 164 9 view .LVU30
 156:user/htu21d/htu21d.c ****         HTU21D_SCL_LOW();
  91              		.loc 1 156 5 is_stmt 0 view .LVU31
  92 0028 0134     		adds	r4, r4, #1
  93              	.LVL4:
  94              		.loc 1 164 9 view .LVU32
  95 002a 0122     		movs	r2, #1
  96 002c 4021     		movs	r1, #64
  97 002e 2846     		mov	r0, r5
  98 0030 FFF7FEFF 		bl	HAL_GPIO_WritePin
  99              	.LVL5:
 100              		.loc 1 164 9 is_stmt 1 view .LVU33
 165:user/htu21d/htu21d.c ****         DelayUs(HTU21D_I2C_DELAY);
 101              		.loc 1 165 9 view .LVU34
  65:user/htu21d/htu21d.c **** 
 102              		.loc 1 65 5 view .LVU35
  67:user/htu21d/htu21d.c **** }
 103              		.loc 1 67 5 view .LVU36
  67:user/htu21d/htu21d.c **** }
ARM GAS  C:\Users\WENHUA~1\AppData\Local\Temp\cc11gPXD.s 			page 6


 104              		.loc 1 67 20 view .LVU37
  67:user/htu21d/htu21d.c **** }
 105              		.loc 1 67 11 view .LVU38
 156:user/htu21d/htu21d.c ****         HTU21D_SCL_LOW();
 106              		.loc 1 156 24 view .LVU39
 156:user/htu21d/htu21d.c ****         HTU21D_SCL_LOW();
 107              		.loc 1 156 17 view .LVU40
 156:user/htu21d/htu21d.c ****         HTU21D_SCL_LOW();
 108              		.loc 1 156 5 is_stmt 0 view .LVU41
 109 0034 082C     		cmp	r4, #8
 110 0036 E8D1     		bne	.L5
 166:user/htu21d/htu21d.c ****     }
 167:user/htu21d/htu21d.c **** 
 168:user/htu21d/htu21d.c ****     HTU21D_SCL_LOW();
 111              		.loc 1 168 5 is_stmt 1 view .LVU42
 112              		.loc 1 168 5 view .LVU43
 113 0038 0022     		movs	r2, #0
 114 003a 4021     		movs	r1, #64
 115 003c 2048     		ldr	r0, .L20
 116 003e FFF7FEFF 		bl	HAL_GPIO_WritePin
 117              	.LVL6:
 118              		.loc 1 168 5 view .LVU44
 169:user/htu21d/htu21d.c ****     DelayUs(HTU21D_I2C_DELAY);
 119              		.loc 1 169 5 view .LVU45
  65:user/htu21d/htu21d.c **** 
 120              		.loc 1 65 5 view .LVU46
  67:user/htu21d/htu21d.c **** }
 121              		.loc 1 67 5 view .LVU47
  67:user/htu21d/htu21d.c **** }
 122              		.loc 1 67 20 view .LVU48
  67:user/htu21d/htu21d.c **** }
 123              		.loc 1 67 11 view .LVU49
 170:user/htu21d/htu21d.c ****     HTU21D_SDA_HIGH();
 124              		.loc 1 170 5 view .LVU50
 125              		.loc 1 170 5 view .LVU51
 126 0042 0122     		movs	r2, #1
 127 0044 8021     		movs	r1, #128
 128 0046 1E48     		ldr	r0, .L20
 129 0048 FFF7FEFF 		bl	HAL_GPIO_WritePin
 130              	.LVL7:
 131              		.loc 1 170 5 view .LVU52
 171:user/htu21d/htu21d.c ****     DelayUs(HTU21D_I2C_DELAY);
 132              		.loc 1 171 5 view .LVU53
  65:user/htu21d/htu21d.c **** 
 133              		.loc 1 65 5 view .LVU54
  67:user/htu21d/htu21d.c **** }
 134              		.loc 1 67 5 view .LVU55
  67:user/htu21d/htu21d.c **** }
 135              		.loc 1 67 20 view .LVU56
  67:user/htu21d/htu21d.c **** }
 136              		.loc 1 67 11 view .LVU57
 172:user/htu21d/htu21d.c **** 
 173:user/htu21d/htu21d.c ****     //DelayUs(HTU21D_I2C_DELAY);
 174:user/htu21d/htu21d.c ****     HTU21D_SCL_HIGH();
 137              		.loc 1 174 5 view .LVU58
 138              		.loc 1 174 5 view .LVU59
 139 004c 0122     		movs	r2, #1
ARM GAS  C:\Users\WENHUA~1\AppData\Local\Temp\cc11gPXD.s 			page 7


 140 004e 4021     		movs	r1, #64
 141 0050 1B48     		ldr	r0, .L20
 142 0052 FFF7FEFF 		bl	HAL_GPIO_WritePin
 143              	.LVL8:
 144              		.loc 1 174 5 view .LVU60
 175:user/htu21d/htu21d.c ****     DelayUs(HTU21D_I2C_DELAY);
 145              		.loc 1 175 5 view .LVU61
  65:user/htu21d/htu21d.c **** 
 146              		.loc 1 65 5 view .LVU62
  67:user/htu21d/htu21d.c **** }
 147              		.loc 1 67 5 view .LVU63
  67:user/htu21d/htu21d.c **** }
 148              		.loc 1 67 20 view .LVU64
  67:user/htu21d/htu21d.c **** }
 149              		.loc 1 67 11 view .LVU65
 176:user/htu21d/htu21d.c **** 
 177:user/htu21d/htu21d.c ****     HTU21D_SDAIN();
 150              		.loc 1 177 5 view .LVU66
 151              		.loc 1 177 5 view .LVU67
 152              	.LBB60:
 153              	.LBI60:
  70:user/htu21d/htu21d.c **** {
 154              		.loc 1 70 13 view .LVU68
 155              	.LBB61:
  72:user/htu21d/htu21d.c **** 
 156              		.loc 1 72 5 view .LVU69
  74:user/htu21d/htu21d.c ****         GPIO_InitStructure.Pin = HTU21D_SDA_Pin;
 157              		.loc 1 74 5 view .LVU70
  80:user/htu21d/htu21d.c ****         GPIO_InitStructure.Mode = GPIO_MODE_INPUT;
 158              		.loc 1 80 9 view .LVU71
  81:user/htu21d/htu21d.c ****         GPIO_InitStructure.Pull = GPIO_PULLUP;
 159              		.loc 1 81 9 view .LVU72
  80:user/htu21d/htu21d.c ****         GPIO_InitStructure.Mode = GPIO_MODE_INPUT;
 160              		.loc 1 80 32 is_stmt 0 view .LVU73
 161 0056 8026     		movs	r6, #128
 162 0058 0027     		movs	r7, #0
  82:user/htu21d/htu21d.c ****         HAL_GPIO_Init(HTU21D_SDA_GPIO_Port, &GPIO_InitStructure);
 163              		.loc 1 82 33 view .LVU74
 164 005a 0123     		movs	r3, #1
  83:user/htu21d/htu21d.c ****     }
 165              		.loc 1 83 9 view .LVU75
 166 005c 1848     		ldr	r0, .L20
 167 005e 6946     		mov	r1, sp
 168 0060 C724     		movs	r4, #199
 169              	.LBE61:
 170              	.LBE60:
 178:user/htu21d/htu21d.c ****     temp = 200;
 179:user/htu21d/htu21d.c ****     while (--temp) {
 180:user/htu21d/htu21d.c ****         DelayUs(HTU21D_I2C_DELAY);
 181:user/htu21d/htu21d.c ****         if (HAL_GPIO_ReadPin(HTU21D_SDA_GPIO_Port, HTU21D_SDA_Pin) == GPIO_PIN_RESET) {
 171              		.loc 1 181 13 view .LVU76
 172 0062 0546     		mov	r5, r0
 173              	.LBB63:
 174              	.LBB62:
  80:user/htu21d/htu21d.c ****         GPIO_InitStructure.Mode = GPIO_MODE_INPUT;
 175              		.loc 1 80 32 view .LVU77
 176 0064 CDE90067 		strd	r6, [sp]
ARM GAS  C:\Users\WENHUA~1\AppData\Local\Temp\cc11gPXD.s 			page 8


  82:user/htu21d/htu21d.c ****         HAL_GPIO_Init(HTU21D_SDA_GPIO_Port, &GPIO_InitStructure);
 177              		.loc 1 82 9 is_stmt 1 view .LVU78
  82:user/htu21d/htu21d.c ****         HAL_GPIO_Init(HTU21D_SDA_GPIO_Port, &GPIO_InitStructure);
 178              		.loc 1 82 33 is_stmt 0 view .LVU79
 179 0068 0293     		str	r3, [sp, #8]
  83:user/htu21d/htu21d.c ****     }
 180              		.loc 1 83 9 is_stmt 1 view .LVU80
 181 006a FFF7FEFF 		bl	HAL_GPIO_Init
 182              	.LVL9:
  83:user/htu21d/htu21d.c ****     }
 183              		.loc 1 83 9 is_stmt 0 view .LVU81
 184              	.LBE62:
 185              	.LBE63:
 177:user/htu21d/htu21d.c ****     temp = 200;
 186              		.loc 1 177 5 is_stmt 1 view .LVU82
 178:user/htu21d/htu21d.c ****     while (--temp) {
 187              		.loc 1 178 5 view .LVU83
 179:user/htu21d/htu21d.c ****         DelayUs(HTU21D_I2C_DELAY);
 188              		.loc 1 179 5 view .LVU84
 179:user/htu21d/htu21d.c ****         DelayUs(HTU21D_I2C_DELAY);
 189              		.loc 1 179 11 view .LVU85
 179:user/htu21d/htu21d.c ****         DelayUs(HTU21D_I2C_DELAY);
 190              		.loc 1 179 11 is_stmt 0 view .LVU86
 191 006e 02E0     		b	.L7
 192              	.LVL10:
 193              	.L19:
 179:user/htu21d/htu21d.c ****         DelayUs(HTU21D_I2C_DELAY);
 194              		.loc 1 179 11 view .LVU87
 195 0070 13F0FF04 		ands	r4, r3, #255
 196 0074 19D0     		beq	.L18
 197              	.L7:
 180:user/htu21d/htu21d.c ****         if (HAL_GPIO_ReadPin(HTU21D_SDA_GPIO_Port, HTU21D_SDA_Pin) == GPIO_PIN_RESET) {
 198              		.loc 1 180 9 is_stmt 1 view .LVU88
 199              	.LVL11:
  65:user/htu21d/htu21d.c **** 
 200              		.loc 1 65 5 view .LVU89
  67:user/htu21d/htu21d.c **** }
 201              		.loc 1 67 5 view .LVU90
  67:user/htu21d/htu21d.c **** }
 202              		.loc 1 67 20 view .LVU91
  67:user/htu21d/htu21d.c **** }
 203              		.loc 1 67 11 view .LVU92
 204              		.loc 1 181 9 view .LVU93
 205              		.loc 1 181 13 is_stmt 0 view .LVU94
 206 0076 8021     		movs	r1, #128
 207 0078 2846     		mov	r0, r5
 208 007a FFF7FEFF 		bl	HAL_GPIO_ReadPin
 209              	.LVL12:
 179:user/htu21d/htu21d.c ****         DelayUs(HTU21D_I2C_DELAY);
 210              		.loc 1 179 11 is_stmt 1 view .LVU95
 211 007e 631E     		subs	r3, r4, #1
 212              		.loc 1 181 12 is_stmt 0 view .LVU96
 213 0080 0028     		cmp	r0, #0
 214 0082 F5D1     		bne	.L19
 215              	.LVL13:
 182:user/htu21d/htu21d.c ****             ack = 1;
 183:user/htu21d/htu21d.c ****             break;
ARM GAS  C:\Users\WENHUA~1\AppData\Local\Temp\cc11gPXD.s 			page 9


 184:user/htu21d/htu21d.c ****         }
 185:user/htu21d/htu21d.c ****     }
 186:user/htu21d/htu21d.c ****     HTU21D_SDAOUT();
 216              		.loc 1 186 5 is_stmt 1 view .LVU97
 217              		.loc 1 186 5 view .LVU98
 218              	.LBB64:
 219              	.LBI64:
  70:user/htu21d/htu21d.c **** {
 220              		.loc 1 70 13 view .LVU99
 221              	.LBB65:
  72:user/htu21d/htu21d.c **** 
 222              		.loc 1 72 5 view .LVU100
  74:user/htu21d/htu21d.c ****         GPIO_InitStructure.Pin = HTU21D_SDA_Pin;
 223              		.loc 1 74 5 view .LVU101
 224              	.LBB66:
 225              	.LBI66:
  70:user/htu21d/htu21d.c **** {
 226              		.loc 1 70 13 view .LVU102
 227              	.LBB67:
  75:user/htu21d/htu21d.c ****         GPIO_InitStructure.Mode = GPIO_MODE_OUTPUT_OD;
 228              		.loc 1 75 9 view .LVU103
  76:user/htu21d/htu21d.c ****         GPIO_InitStructure.Speed = GPIO_SPEED_FREQ_LOW;
 229              		.loc 1 76 9 view .LVU104
  75:user/htu21d/htu21d.c ****         GPIO_InitStructure.Mode = GPIO_MODE_OUTPUT_OD;
 230              		.loc 1 75 32 is_stmt 0 view .LVU105
 231 0084 8026     		movs	r6, #128
 232 0086 1127     		movs	r7, #17
  77:user/htu21d/htu21d.c ****         HAL_GPIO_Init(HTU21D_SDA_GPIO_Port, &GPIO_InitStructure);
 233              		.loc 1 77 34 view .LVU106
 234 0088 0223     		movs	r3, #2
  78:user/htu21d/htu21d.c ****     } else {
 235              		.loc 1 78 9 view .LVU107
 236 008a 6946     		mov	r1, sp
 237 008c 0C48     		ldr	r0, .L20
 238              	.LBE67:
 239              	.LBE66:
 240              	.LBE65:
 241              	.LBE64:
 182:user/htu21d/htu21d.c ****             break;
 242              		.loc 1 182 17 view .LVU108
 243 008e 0124     		movs	r4, #1
 244              	.LBB74:
 245              	.LBB72:
 246              	.LBB70:
 247              	.LBB68:
  75:user/htu21d/htu21d.c ****         GPIO_InitStructure.Mode = GPIO_MODE_OUTPUT_OD;
 248              		.loc 1 75 32 view .LVU109
 249 0090 CDE90067 		strd	r6, [sp]
  77:user/htu21d/htu21d.c ****         HAL_GPIO_Init(HTU21D_SDA_GPIO_Port, &GPIO_InitStructure);
 250              		.loc 1 77 9 is_stmt 1 view .LVU110
  77:user/htu21d/htu21d.c ****         HAL_GPIO_Init(HTU21D_SDA_GPIO_Port, &GPIO_InitStructure);
 251              		.loc 1 77 34 is_stmt 0 view .LVU111
 252 0094 0393     		str	r3, [sp, #12]
  78:user/htu21d/htu21d.c ****     } else {
 253              		.loc 1 78 9 is_stmt 1 view .LVU112
 254 0096 FFF7FEFF 		bl	HAL_GPIO_Init
 255              	.LVL14:
ARM GAS  C:\Users\WENHUA~1\AppData\Local\Temp\cc11gPXD.s 			page 10


  78:user/htu21d/htu21d.c ****     } else {
 256              		.loc 1 78 9 is_stmt 0 view .LVU113
 257              	.LBE68:
 258              	.LBE70:
 259              	.LBE72:
 260              	.LBE74:
 261              		.loc 1 186 5 is_stmt 1 view .LVU114
 187:user/htu21d/htu21d.c **** 
 188:user/htu21d/htu21d.c ****     if (temp == 0) {
 262              		.loc 1 188 5 view .LVU115
 263              	.L9:
 189:user/htu21d/htu21d.c ****         ack = 0;
 190:user/htu21d/htu21d.c ****     }
 191:user/htu21d/htu21d.c **** 
 192:user/htu21d/htu21d.c ****     HTU21D_SCL_LOW();
 264              		.loc 1 192 5 view .LVU116
 265              		.loc 1 192 5 view .LVU117
 266 009a 0022     		movs	r2, #0
 267 009c 4021     		movs	r1, #64
 268 009e 0848     		ldr	r0, .L20
 269 00a0 FFF7FEFF 		bl	HAL_GPIO_WritePin
 270              	.LVL15:
 271              		.loc 1 192 5 view .LVU118
 193:user/htu21d/htu21d.c ****     DelayUs(HTU21D_I2C_DELAY);
 272              		.loc 1 193 5 view .LVU119
  65:user/htu21d/htu21d.c **** 
 273              		.loc 1 65 5 view .LVU120
  67:user/htu21d/htu21d.c **** }
 274              		.loc 1 67 5 view .LVU121
  67:user/htu21d/htu21d.c **** }
 275              		.loc 1 67 20 view .LVU122
  67:user/htu21d/htu21d.c **** }
 276              		.loc 1 67 11 view .LVU123
 194:user/htu21d/htu21d.c **** 
 195:user/htu21d/htu21d.c ****     return ack;
 277              		.loc 1 195 5 view .LVU124
 196:user/htu21d/htu21d.c **** }
 278              		.loc 1 196 1 is_stmt 0 view .LVU125
 279 00a4 2046     		mov	r0, r4
 280 00a6 05B0     		add	sp, sp, #20
 281              	.LCFI2:
 282              		.cfi_remember_state
 283              		.cfi_def_cfa_offset 20
 284              		@ sp needed
 285 00a8 F0BD     		pop	{r4, r5, r6, r7, pc}
 286              	.LVL16:
 287              	.L18:
 288              	.LCFI3:
 289              		.cfi_restore_state
 186:user/htu21d/htu21d.c **** 
 290              		.loc 1 186 5 is_stmt 1 view .LVU126
 186:user/htu21d/htu21d.c **** 
 291              		.loc 1 186 5 view .LVU127
 292              	.LBB75:
  70:user/htu21d/htu21d.c **** {
 293              		.loc 1 70 13 view .LVU128
 294              	.LBB73:
ARM GAS  C:\Users\WENHUA~1\AppData\Local\Temp\cc11gPXD.s 			page 11


  72:user/htu21d/htu21d.c **** 
 295              		.loc 1 72 5 view .LVU129
  74:user/htu21d/htu21d.c ****         GPIO_InitStructure.Pin = HTU21D_SDA_Pin;
 296              		.loc 1 74 5 view .LVU130
 297              	.LBB71:
  70:user/htu21d/htu21d.c **** {
 298              		.loc 1 70 13 view .LVU131
 299              	.LBB69:
  75:user/htu21d/htu21d.c ****         GPIO_InitStructure.Mode = GPIO_MODE_OUTPUT_OD;
 300              		.loc 1 75 9 view .LVU132
  76:user/htu21d/htu21d.c ****         GPIO_InitStructure.Speed = GPIO_SPEED_FREQ_LOW;
 301              		.loc 1 76 9 view .LVU133
  75:user/htu21d/htu21d.c ****         GPIO_InitStructure.Mode = GPIO_MODE_OUTPUT_OD;
 302              		.loc 1 75 32 is_stmt 0 view .LVU134
 303 00aa 8026     		movs	r6, #128
 304 00ac 1127     		movs	r7, #17
  77:user/htu21d/htu21d.c ****         HAL_GPIO_Init(HTU21D_SDA_GPIO_Port, &GPIO_InitStructure);
 305              		.loc 1 77 34 view .LVU135
 306 00ae 0223     		movs	r3, #2
  78:user/htu21d/htu21d.c ****     } else {
 307              		.loc 1 78 9 view .LVU136
 308 00b0 6946     		mov	r1, sp
 309 00b2 0348     		ldr	r0, .L20
  75:user/htu21d/htu21d.c ****         GPIO_InitStructure.Mode = GPIO_MODE_OUTPUT_OD;
 310              		.loc 1 75 32 view .LVU137
 311 00b4 CDE90067 		strd	r6, [sp]
  77:user/htu21d/htu21d.c ****         HAL_GPIO_Init(HTU21D_SDA_GPIO_Port, &GPIO_InitStructure);
 312              		.loc 1 77 9 is_stmt 1 view .LVU138
  77:user/htu21d/htu21d.c ****         HAL_GPIO_Init(HTU21D_SDA_GPIO_Port, &GPIO_InitStructure);
 313              		.loc 1 77 34 is_stmt 0 view .LVU139
 314 00b8 0393     		str	r3, [sp, #12]
  78:user/htu21d/htu21d.c ****     } else {
 315              		.loc 1 78 9 is_stmt 1 view .LVU140
 316 00ba FFF7FEFF 		bl	HAL_GPIO_Init
 317              	.LVL17:
  78:user/htu21d/htu21d.c ****     } else {
 318              		.loc 1 78 9 is_stmt 0 view .LVU141
 319              	.LBE69:
 320              	.LBE71:
 321              	.LBE73:
 322              	.LBE75:
 186:user/htu21d/htu21d.c **** 
 323              		.loc 1 186 5 is_stmt 1 view .LVU142
 188:user/htu21d/htu21d.c ****         ack = 0;
 324              		.loc 1 188 5 view .LVU143
 325 00be ECE7     		b	.L9
 326              	.L21:
 327              		.align	2
 328              	.L20:
 329 00c0 000C0140 		.word	1073810432
 330              		.cfi_endproc
 331              	.LFE75:
 333              		.global	__aeabi_i2d
 334              		.global	__aeabi_dmul
 335              		.global	__aeabi_dsub
 336              		.global	__aeabi_d2f
 337              		.global	__aeabi_f2uiz
ARM GAS  C:\Users\WENHUA~1\AppData\Local\Temp\cc11gPXD.s 			page 12


 338              		.global	__aeabi_f2iz
 339              		.section	.rodata.HTU21D_GetData.isra.0.str1.4,"aMS",%progbits,1
 340              		.align	2
 341              	.LC0:
 342 0000 0D0A4875 		.ascii	"\015\012Humi: %d \015\012\000"
 342      6D693A20 
 342      2564200D 
 342      0A00
 343 000e 0000     		.align	2
 344              	.LC1:
 345 0010 54656D70 		.ascii	"Temp: %d \015\012\000"
 345      3A202564 
 345      200D0A00 
 346              		.align	2
 347              	.LC2:
 348 001c 0D0A5465 		.ascii	"\015\012Temp test fail. \015\000"
 348      6D702074 
 348      65737420 
 348      6661696C 
 348      2E200D00 
 349              		.section	.text.HTU21D_GetData.isra.0,"ax",%progbits
 350              		.align	1
 351              		.p2align 2,,3
 352              		.syntax unified
 353              		.thumb
 354              		.thumb_func
 356              	HTU21D_GetData.isra.0:
 357              	.LFB86:
 197:user/htu21d/htu21d.c **** 
 198:user/htu21d/htu21d.c **** static uint8_t ReadByte(void)
 199:user/htu21d/htu21d.c **** {
 200:user/htu21d/htu21d.c ****     uint8_t value = 0;
 201:user/htu21d/htu21d.c ****     uint8_t i;
 202:user/htu21d/htu21d.c **** 
 203:user/htu21d/htu21d.c ****     HTU21D_SDAIN();
 204:user/htu21d/htu21d.c ****     for (i = 0; i < 8; i++) {
 205:user/htu21d/htu21d.c ****         HTU21D_SCL_HIGH();
 206:user/htu21d/htu21d.c ****         DelayUs(HTU21D_I2C_DELAY);
 207:user/htu21d/htu21d.c ****         value <<= 1;
 208:user/htu21d/htu21d.c ****         if (HAL_GPIO_ReadPin(HTU21D_SDA_GPIO_Port, HTU21D_SDA_Pin) == GPIO_PIN_SET) {
 209:user/htu21d/htu21d.c ****             value += 1;
 210:user/htu21d/htu21d.c ****         }
 211:user/htu21d/htu21d.c ****         HTU21D_SCL_LOW();
 212:user/htu21d/htu21d.c ****     }
 213:user/htu21d/htu21d.c ****     HTU21D_SDAOUT();
 214:user/htu21d/htu21d.c **** 
 215:user/htu21d/htu21d.c ****     return value;
 216:user/htu21d/htu21d.c **** }
 217:user/htu21d/htu21d.c **** 
 218:user/htu21d/htu21d.c **** static uint8_t HTU21D_GetData(void)
 358              		.loc 1 218 16 view -0
 359              		.cfi_startproc
 360              		@ args = 0, pretend = 0, frame = 16
 361              		@ frame_needed = 0, uses_anonymous_args = 0
 219:user/htu21d/htu21d.c **** {
 220:user/htu21d/htu21d.c ****     uint16_t htu_data;
 362              		.loc 1 220 5 view .LVU145
ARM GAS  C:\Users\WENHUA~1\AppData\Local\Temp\cc11gPXD.s 			page 13


 221:user/htu21d/htu21d.c ****     float htu;
 363              		.loc 1 221 5 view .LVU146
 222:user/htu21d/htu21d.c ****     uint16_t temp_data;
 364              		.loc 1 222 5 view .LVU147
 223:user/htu21d/htu21d.c ****     float temp;
 365              		.loc 1 223 5 view .LVU148
 224:user/htu21d/htu21d.c ****     uint8_t err;
 366              		.loc 1 224 5 view .LVU149
 225:user/htu21d/htu21d.c **** 
 226:user/htu21d/htu21d.c ****     StartBus();
 367              		.loc 1 226 5 view .LVU150
 368              	.LBB128:
 369              	.LBI128:
  87:user/htu21d/htu21d.c **** {
 370              		.loc 1 87 13 view .LVU151
 371              	.LBB129:
  89:user/htu21d/htu21d.c ****     DelayUs(HTU21D_I2C_DELAY);
 372              		.loc 1 89 5 view .LVU152
  89:user/htu21d/htu21d.c ****     DelayUs(HTU21D_I2C_DELAY);
 373              		.loc 1 89 5 view .LVU153
 374              	.LBE129:
 375              	.LBE128:
 218:user/htu21d/htu21d.c **** {
 376              		.loc 1 218 16 is_stmt 0 view .LVU154
 377 0000 2DE9F043 		push	{r4, r5, r6, r7, r8, r9, lr}
 378              	.LCFI4:
 379              		.cfi_def_cfa_offset 28
 380              		.cfi_offset 4, -28
 381              		.cfi_offset 5, -24
 382              		.cfi_offset 6, -20
 383              		.cfi_offset 7, -16
 384              		.cfi_offset 8, -12
 385              		.cfi_offset 9, -8
 386              		.cfi_offset 14, -4
 387              	.LBB135:
 388              	.LBB130:
  89:user/htu21d/htu21d.c ****     DelayUs(HTU21D_I2C_DELAY);
 389              		.loc 1 89 5 view .LVU155
 390 0004 0122     		movs	r2, #1
 391              	.LBE130:
 392              	.LBE135:
 218:user/htu21d/htu21d.c **** {
 393              		.loc 1 218 16 view .LVU156
 394 0006 85B0     		sub	sp, sp, #20
 395              	.LCFI5:
 396              		.cfi_def_cfa_offset 48
 397              	.LBB136:
 398              	.LBB131:
  89:user/htu21d/htu21d.c ****     DelayUs(HTU21D_I2C_DELAY);
 399              		.loc 1 89 5 view .LVU157
 400 0008 8021     		movs	r1, #128
 401 000a 1148     		ldr	r0, .L58
 402 000c FFF7FEFF 		bl	HAL_GPIO_WritePin
 403              	.LVL18:
  89:user/htu21d/htu21d.c ****     DelayUs(HTU21D_I2C_DELAY);
 404              		.loc 1 89 5 is_stmt 1 view .LVU158
  90:user/htu21d/htu21d.c ****     HTU21D_SCL_HIGH();
ARM GAS  C:\Users\WENHUA~1\AppData\Local\Temp\cc11gPXD.s 			page 14


 405              		.loc 1 90 5 view .LVU159
  90:user/htu21d/htu21d.c ****     HTU21D_SCL_HIGH();
 406              		.loc 1 90 5 is_stmt 0 view .LVU160
 407              	.LBE131:
 408              	.LBE136:
  65:user/htu21d/htu21d.c **** 
 409              		.loc 1 65 5 is_stmt 1 view .LVU161
  67:user/htu21d/htu21d.c **** }
 410              		.loc 1 67 5 view .LVU162
  67:user/htu21d/htu21d.c **** }
 411              		.loc 1 67 20 view .LVU163
  67:user/htu21d/htu21d.c **** }
 412              		.loc 1 67 11 view .LVU164
 413              	.LBB137:
 414              	.LBB132:
  91:user/htu21d/htu21d.c ****     DelayUs(HTU21D_I2C_DELAY);
 415              		.loc 1 91 5 view .LVU165
  91:user/htu21d/htu21d.c ****     DelayUs(HTU21D_I2C_DELAY);
 416              		.loc 1 91 5 view .LVU166
 417 0010 0122     		movs	r2, #1
 418 0012 4021     		movs	r1, #64
 419 0014 0E48     		ldr	r0, .L58
 420 0016 FFF7FEFF 		bl	HAL_GPIO_WritePin
 421              	.LVL19:
  91:user/htu21d/htu21d.c ****     DelayUs(HTU21D_I2C_DELAY);
 422              		.loc 1 91 5 view .LVU167
  92:user/htu21d/htu21d.c ****     HTU21D_SDA_LOW();
 423              		.loc 1 92 5 view .LVU168
  92:user/htu21d/htu21d.c ****     HTU21D_SDA_LOW();
 424              		.loc 1 92 5 is_stmt 0 view .LVU169
 425              	.LBE132:
 426              	.LBE137:
  65:user/htu21d/htu21d.c **** 
 427              		.loc 1 65 5 is_stmt 1 view .LVU170
  67:user/htu21d/htu21d.c **** }
 428              		.loc 1 67 5 view .LVU171
  67:user/htu21d/htu21d.c **** }
 429              		.loc 1 67 20 view .LVU172
  67:user/htu21d/htu21d.c **** }
 430              		.loc 1 67 11 view .LVU173
 431              	.LBB138:
 432              	.LBB133:
  93:user/htu21d/htu21d.c ****     DelayUs(HTU21D_I2C_DELAY);
 433              		.loc 1 93 5 view .LVU174
  93:user/htu21d/htu21d.c ****     DelayUs(HTU21D_I2C_DELAY);
 434              		.loc 1 93 5 view .LVU175
 435 001a 0022     		movs	r2, #0
 436 001c 8021     		movs	r1, #128
 437 001e 0C48     		ldr	r0, .L58
 438 0020 FFF7FEFF 		bl	HAL_GPIO_WritePin
 439              	.LVL20:
  93:user/htu21d/htu21d.c ****     DelayUs(HTU21D_I2C_DELAY);
 440              		.loc 1 93 5 view .LVU176
  94:user/htu21d/htu21d.c ****     HTU21D_SCL_LOW();
 441              		.loc 1 94 5 view .LVU177
  94:user/htu21d/htu21d.c ****     HTU21D_SCL_LOW();
 442              		.loc 1 94 5 is_stmt 0 view .LVU178
ARM GAS  C:\Users\WENHUA~1\AppData\Local\Temp\cc11gPXD.s 			page 15


 443              	.LBE133:
 444              	.LBE138:
  65:user/htu21d/htu21d.c **** 
 445              		.loc 1 65 5 is_stmt 1 view .LVU179
  67:user/htu21d/htu21d.c **** }
 446              		.loc 1 67 5 view .LVU180
  67:user/htu21d/htu21d.c **** }
 447              		.loc 1 67 20 view .LVU181
  67:user/htu21d/htu21d.c **** }
 448              		.loc 1 67 11 view .LVU182
 449              	.LBB139:
 450              	.LBB134:
  95:user/htu21d/htu21d.c ****     DelayUs(HTU21D_I2C_DELAY);
 451              		.loc 1 95 5 view .LVU183
  95:user/htu21d/htu21d.c ****     DelayUs(HTU21D_I2C_DELAY);
 452              		.loc 1 95 5 view .LVU184
 453 0024 0A48     		ldr	r0, .L58
 454 0026 0022     		movs	r2, #0
 455 0028 4021     		movs	r1, #64
 456 002a FFF7FEFF 		bl	HAL_GPIO_WritePin
 457              	.LVL21:
  95:user/htu21d/htu21d.c ****     DelayUs(HTU21D_I2C_DELAY);
 458              		.loc 1 95 5 view .LVU185
  96:user/htu21d/htu21d.c **** }
 459              		.loc 1 96 5 view .LVU186
  96:user/htu21d/htu21d.c **** }
 460              		.loc 1 96 5 is_stmt 0 view .LVU187
 461              	.LBE134:
 462              	.LBE139:
  65:user/htu21d/htu21d.c **** 
 463              		.loc 1 65 5 is_stmt 1 view .LVU188
  67:user/htu21d/htu21d.c **** }
 464              		.loc 1 67 5 view .LVU189
  67:user/htu21d/htu21d.c **** }
 465              		.loc 1 67 20 view .LVU190
  67:user/htu21d/htu21d.c **** }
 466              		.loc 1 67 11 view .LVU191
 227:user/htu21d/htu21d.c ****     err = WriteByte(SlaveAddr | Write);
 467              		.loc 1 227 5 view .LVU192
 468              		.loc 1 227 11 is_stmt 0 view .LVU193
 469 002e 8020     		movs	r0, #128
 470 0030 FFF7FEFF 		bl	WriteByte
 471              	.LVL22:
 228:user/htu21d/htu21d.c ****     if (err == 0) {
 472              		.loc 1 228 5 is_stmt 1 view .LVU194
 473              		.loc 1 228 8 is_stmt 0 view .LVU195
 474 0034 A0B9     		cbnz	r0, .L52
 475              	.L57:
 476              		.loc 1 228 8 view .LVU196
 477 0036 074E     		ldr	r6, .L58+4
 478              	.L23:
 479              	.LDL1:
 229:user/htu21d/htu21d.c ****         goto i2c_fail;
 230:user/htu21d/htu21d.c ****     }
 231:user/htu21d/htu21d.c **** 
 232:user/htu21d/htu21d.c ****     err = WriteByte(HUM_HOLD);
 233:user/htu21d/htu21d.c ****     if (err == 0) {
ARM GAS  C:\Users\WENHUA~1\AppData\Local\Temp\cc11gPXD.s 			page 16


 234:user/htu21d/htu21d.c ****         goto i2c_fail;
 235:user/htu21d/htu21d.c ****     }
 236:user/htu21d/htu21d.c **** 
 237:user/htu21d/htu21d.c ****     StartBus();
 238:user/htu21d/htu21d.c ****     err = WriteByte(SlaveAddr | Read);
 239:user/htu21d/htu21d.c ****     if (err == 0) {
 240:user/htu21d/htu21d.c ****         goto i2c_fail;
 241:user/htu21d/htu21d.c ****     }
 242:user/htu21d/htu21d.c **** 
 243:user/htu21d/htu21d.c ****     HAL_Delay(20);
 244:user/htu21d/htu21d.c ****     htu_data = ReadByte();
 245:user/htu21d/htu21d.c ****     htu_data = htu_data << 8;
 246:user/htu21d/htu21d.c ****     AckBus();
 247:user/htu21d/htu21d.c ****     htu_data += ReadByte();
 248:user/htu21d/htu21d.c ****     NoAckBus();
 249:user/htu21d/htu21d.c ****     StopBus();
 250:user/htu21d/htu21d.c ****     htu = ((htu_data & 0xfffc) / 65536.0 * 125.0 - 6.0);
 251:user/htu21d/htu21d.c ****     g_thData.humidity = (uint16_t)htu * 10;
 252:user/htu21d/htu21d.c **** 
 253:user/htu21d/htu21d.c ****     HAL_Delay(10);
 254:user/htu21d/htu21d.c **** 
 255:user/htu21d/htu21d.c ****     StartBus();
 256:user/htu21d/htu21d.c ****     err = WriteByte(SlaveAddr | Write);
 257:user/htu21d/htu21d.c ****     if (err == 0) {
 258:user/htu21d/htu21d.c ****         goto i2c_fail;
 259:user/htu21d/htu21d.c ****     }
 260:user/htu21d/htu21d.c **** 
 261:user/htu21d/htu21d.c ****     err = WriteByte(TEM_HOLD);
 262:user/htu21d/htu21d.c ****     if (err == 0) {
 263:user/htu21d/htu21d.c ****         goto i2c_fail;
 264:user/htu21d/htu21d.c ****     }
 265:user/htu21d/htu21d.c **** 
 266:user/htu21d/htu21d.c ****     StartBus();
 267:user/htu21d/htu21d.c ****     err = WriteByte(SlaveAddr | Read);
 268:user/htu21d/htu21d.c ****     if (err == 0) {
 269:user/htu21d/htu21d.c ****         goto i2c_fail;
 270:user/htu21d/htu21d.c ****     }
 271:user/htu21d/htu21d.c **** 
 272:user/htu21d/htu21d.c ****     HAL_Delay(60); /* must 58ms the above */
 273:user/htu21d/htu21d.c ****     temp_data = ReadByte();
 274:user/htu21d/htu21d.c ****     temp_data = temp_data << 8;
 275:user/htu21d/htu21d.c ****     AckBus();
 276:user/htu21d/htu21d.c ****     temp_data += ReadByte();
 277:user/htu21d/htu21d.c ****     NoAckBus();
 278:user/htu21d/htu21d.c ****     StopBus();
 279:user/htu21d/htu21d.c ****     temp = ((temp_data & 0xfffc) / 65536.0 * 175.72 - 46.85) * 10;
 280:user/htu21d/htu21d.c ****     g_thData.temperature = (int16_t)temp;
 281:user/htu21d/htu21d.c **** 
 282:user/htu21d/htu21d.c ****     printf("\r\nHumi: %d \r\n", g_thData.humidity);
 283:user/htu21d/htu21d.c ****     printf("Temp: %d \r\n", g_thData.temperature);
 284:user/htu21d/htu21d.c ****     g_i2cFial = 0;
 285:user/htu21d/htu21d.c **** 
 286:user/htu21d/htu21d.c ****     return true;
 287:user/htu21d/htu21d.c **** 
 288:user/htu21d/htu21d.c **** i2c_fail:
 289:user/htu21d/htu21d.c ****     g_thData.temperature = 0x00;
 480              		.loc 1 289 5 is_stmt 1 view .LVU197
ARM GAS  C:\Users\WENHUA~1\AppData\Local\Temp\cc11gPXD.s 			page 17


 290:user/htu21d/htu21d.c ****     g_thData.humidity = 0x00;
 481              		.loc 1 290 5 view .LVU198
 289:user/htu21d/htu21d.c ****     g_thData.humidity = 0x00;
 482              		.loc 1 289 26 is_stmt 0 view .LVU199
 483 0038 0023     		movs	r3, #0
 291:user/htu21d/htu21d.c ****     printf("\r\nTemp test fail. \r\n");
 484              		.loc 1 291 5 view .LVU200
 485 003a 0748     		ldr	r0, .L58+8
 486              	.LVL23:
 289:user/htu21d/htu21d.c ****     g_thData.humidity = 0x00;
 487              		.loc 1 289 26 view .LVU201
 488 003c 3360     		str	r3, [r6]
 489              		.loc 1 291 5 is_stmt 1 view .LVU202
 490 003e FFF7FEFF 		bl	puts
 491              	.LVL24:
 292:user/htu21d/htu21d.c ****     g_i2cFial = 1;
 492              		.loc 1 292 5 view .LVU203
 493              		.loc 1 292 15 is_stmt 0 view .LVU204
 494 0042 0122     		movs	r2, #1
 495 0044 054B     		ldr	r3, .L58+12
 496 0046 1A70     		strb	r2, [r3]
 293:user/htu21d/htu21d.c ****     return false;
 497              		.loc 1 293 5 is_stmt 1 view .LVU205
 498              	.L22:
 294:user/htu21d/htu21d.c **** }
 499              		.loc 1 294 1 is_stmt 0 view .LVU206
 500 0048 05B0     		add	sp, sp, #20
 501              	.LCFI6:
 502              		.cfi_remember_state
 503              		.cfi_def_cfa_offset 28
 504              		@ sp needed
 505 004a BDE8F083 		pop	{r4, r5, r6, r7, r8, r9, pc}
 506              	.L59:
 507 004e 00BF     		.align	2
 508              	.L58:
 509 0050 000C0140 		.word	1073810432
 510 0054 00000000 		.word	.LANCHOR0
 511 0058 1C000000 		.word	.LC2
 512 005c 00000000 		.word	.LANCHOR1
 513              	.LVL25:
 514              	.L52:
 515              	.LCFI7:
 516              		.cfi_restore_state
 232:user/htu21d/htu21d.c ****     if (err == 0) {
 517              		.loc 1 232 5 is_stmt 1 view .LVU207
 232:user/htu21d/htu21d.c ****     if (err == 0) {
 518              		.loc 1 232 11 is_stmt 0 view .LVU208
 519 0060 E520     		movs	r0, #229
 520              	.LVL26:
 232:user/htu21d/htu21d.c ****     if (err == 0) {
 521              		.loc 1 232 11 view .LVU209
 522 0062 FFF7FEFF 		bl	WriteByte
 523              	.LVL27:
 233:user/htu21d/htu21d.c ****         goto i2c_fail;
 524              		.loc 1 233 5 is_stmt 1 view .LVU210
 233:user/htu21d/htu21d.c ****         goto i2c_fail;
 525              		.loc 1 233 8 is_stmt 0 view .LVU211
ARM GAS  C:\Users\WENHUA~1\AppData\Local\Temp\cc11gPXD.s 			page 18


 526 0066 0028     		cmp	r0, #0
 527 0068 E5D0     		beq	.L57
 237:user/htu21d/htu21d.c ****     err = WriteByte(SlaveAddr | Read);
 528              		.loc 1 237 5 is_stmt 1 view .LVU212
 529              	.LBB140:
 530              	.LBI140:
  87:user/htu21d/htu21d.c **** {
 531              		.loc 1 87 13 view .LVU213
 532              	.LBB141:
  89:user/htu21d/htu21d.c ****     DelayUs(HTU21D_I2C_DELAY);
 533              		.loc 1 89 5 view .LVU214
  89:user/htu21d/htu21d.c ****     DelayUs(HTU21D_I2C_DELAY);
 534              		.loc 1 89 5 view .LVU215
 535 006a 0122     		movs	r2, #1
 536 006c 8021     		movs	r1, #128
 537 006e D148     		ldr	r0, .L60
 538              	.LVL28:
  89:user/htu21d/htu21d.c ****     DelayUs(HTU21D_I2C_DELAY);
 539              		.loc 1 89 5 is_stmt 0 view .LVU216
 540 0070 FFF7FEFF 		bl	HAL_GPIO_WritePin
 541              	.LVL29:
  89:user/htu21d/htu21d.c ****     DelayUs(HTU21D_I2C_DELAY);
 542              		.loc 1 89 5 is_stmt 1 view .LVU217
  90:user/htu21d/htu21d.c ****     HTU21D_SCL_HIGH();
 543              		.loc 1 90 5 view .LVU218
  90:user/htu21d/htu21d.c ****     HTU21D_SCL_HIGH();
 544              		.loc 1 90 5 is_stmt 0 view .LVU219
 545              	.LBE141:
 546              	.LBE140:
  65:user/htu21d/htu21d.c **** 
 547              		.loc 1 65 5 is_stmt 1 view .LVU220
  67:user/htu21d/htu21d.c **** }
 548              		.loc 1 67 5 view .LVU221
  67:user/htu21d/htu21d.c **** }
 549              		.loc 1 67 20 view .LVU222
  67:user/htu21d/htu21d.c **** }
 550              		.loc 1 67 11 view .LVU223
 551              	.LBB145:
 552              	.LBB142:
  91:user/htu21d/htu21d.c ****     DelayUs(HTU21D_I2C_DELAY);
 553              		.loc 1 91 5 view .LVU224
  91:user/htu21d/htu21d.c ****     DelayUs(HTU21D_I2C_DELAY);
 554              		.loc 1 91 5 view .LVU225
 555 0074 0122     		movs	r2, #1
 556 0076 4021     		movs	r1, #64
 557 0078 CE48     		ldr	r0, .L60
 558 007a FFF7FEFF 		bl	HAL_GPIO_WritePin
 559              	.LVL30:
  91:user/htu21d/htu21d.c ****     DelayUs(HTU21D_I2C_DELAY);
 560              		.loc 1 91 5 view .LVU226
  92:user/htu21d/htu21d.c ****     HTU21D_SDA_LOW();
 561              		.loc 1 92 5 view .LVU227
  92:user/htu21d/htu21d.c ****     HTU21D_SDA_LOW();
 562              		.loc 1 92 5 is_stmt 0 view .LVU228
 563              	.LBE142:
 564              	.LBE145:
  65:user/htu21d/htu21d.c **** 
ARM GAS  C:\Users\WENHUA~1\AppData\Local\Temp\cc11gPXD.s 			page 19


 565              		.loc 1 65 5 is_stmt 1 view .LVU229
  67:user/htu21d/htu21d.c **** }
 566              		.loc 1 67 5 view .LVU230
  67:user/htu21d/htu21d.c **** }
 567              		.loc 1 67 20 view .LVU231
  67:user/htu21d/htu21d.c **** }
 568              		.loc 1 67 11 view .LVU232
 569              	.LBB146:
 570              	.LBB143:
  93:user/htu21d/htu21d.c ****     DelayUs(HTU21D_I2C_DELAY);
 571              		.loc 1 93 5 view .LVU233
  93:user/htu21d/htu21d.c ****     DelayUs(HTU21D_I2C_DELAY);
 572              		.loc 1 93 5 view .LVU234
 573 007e 0022     		movs	r2, #0
 574 0080 8021     		movs	r1, #128
 575 0082 CC48     		ldr	r0, .L60
 576 0084 FFF7FEFF 		bl	HAL_GPIO_WritePin
 577              	.LVL31:
  93:user/htu21d/htu21d.c ****     DelayUs(HTU21D_I2C_DELAY);
 578              		.loc 1 93 5 view .LVU235
  94:user/htu21d/htu21d.c ****     HTU21D_SCL_LOW();
 579              		.loc 1 94 5 view .LVU236
  94:user/htu21d/htu21d.c ****     HTU21D_SCL_LOW();
 580              		.loc 1 94 5 is_stmt 0 view .LVU237
 581              	.LBE143:
 582              	.LBE146:
  65:user/htu21d/htu21d.c **** 
 583              		.loc 1 65 5 is_stmt 1 view .LVU238
  67:user/htu21d/htu21d.c **** }
 584              		.loc 1 67 5 view .LVU239
  67:user/htu21d/htu21d.c **** }
 585              		.loc 1 67 20 view .LVU240
  67:user/htu21d/htu21d.c **** }
 586              		.loc 1 67 11 view .LVU241
 587              	.LBB147:
 588              	.LBB144:
  95:user/htu21d/htu21d.c ****     DelayUs(HTU21D_I2C_DELAY);
 589              		.loc 1 95 5 view .LVU242
  95:user/htu21d/htu21d.c ****     DelayUs(HTU21D_I2C_DELAY);
 590              		.loc 1 95 5 view .LVU243
 591 0088 CA48     		ldr	r0, .L60
 592 008a 0022     		movs	r2, #0
 593 008c 4021     		movs	r1, #64
 594 008e FFF7FEFF 		bl	HAL_GPIO_WritePin
 595              	.LVL32:
  95:user/htu21d/htu21d.c ****     DelayUs(HTU21D_I2C_DELAY);
 596              		.loc 1 95 5 view .LVU244
  96:user/htu21d/htu21d.c **** }
 597              		.loc 1 96 5 view .LVU245
  96:user/htu21d/htu21d.c **** }
 598              		.loc 1 96 5 is_stmt 0 view .LVU246
 599              	.LBE144:
 600              	.LBE147:
  65:user/htu21d/htu21d.c **** 
 601              		.loc 1 65 5 is_stmt 1 view .LVU247
  67:user/htu21d/htu21d.c **** }
 602              		.loc 1 67 5 view .LVU248
ARM GAS  C:\Users\WENHUA~1\AppData\Local\Temp\cc11gPXD.s 			page 20


  67:user/htu21d/htu21d.c **** }
 603              		.loc 1 67 20 view .LVU249
  67:user/htu21d/htu21d.c **** }
 604              		.loc 1 67 11 view .LVU250
 238:user/htu21d/htu21d.c ****     if (err == 0) {
 605              		.loc 1 238 5 view .LVU251
 238:user/htu21d/htu21d.c ****     if (err == 0) {
 606              		.loc 1 238 11 is_stmt 0 view .LVU252
 607 0092 8120     		movs	r0, #129
 608 0094 FFF7FEFF 		bl	WriteByte
 609              	.LVL33:
 239:user/htu21d/htu21d.c ****         goto i2c_fail;
 610              		.loc 1 239 5 is_stmt 1 view .LVU253
 239:user/htu21d/htu21d.c ****         goto i2c_fail;
 611              		.loc 1 239 8 is_stmt 0 view .LVU254
 612 0098 0028     		cmp	r0, #0
 613 009a CCD0     		beq	.L57
 243:user/htu21d/htu21d.c ****     htu_data = ReadByte();
 614              		.loc 1 243 5 is_stmt 1 view .LVU255
 615 009c 1420     		movs	r0, #20
 616              	.LVL34:
 243:user/htu21d/htu21d.c ****     htu_data = ReadByte();
 617              		.loc 1 243 5 is_stmt 0 view .LVU256
 618 009e FFF7FEFF 		bl	HAL_Delay
 619              	.LVL35:
 244:user/htu21d/htu21d.c ****     htu_data = htu_data << 8;
 620              		.loc 1 244 5 is_stmt 1 view .LVU257
 621              	.LBB148:
 622              	.LBI148:
 198:user/htu21d/htu21d.c **** {
 623              		.loc 1 198 16 view .LVU258
 624              	.LBB149:
 200:user/htu21d/htu21d.c ****     uint8_t i;
 625              		.loc 1 200 5 view .LVU259
 201:user/htu21d/htu21d.c **** 
 626              		.loc 1 201 5 view .LVU260
 203:user/htu21d/htu21d.c ****     for (i = 0; i < 8; i++) {
 627              		.loc 1 203 5 view .LVU261
 203:user/htu21d/htu21d.c ****     for (i = 0; i < 8; i++) {
 628              		.loc 1 203 5 view .LVU262
 629              	.LBB150:
 630              	.LBI150:
  70:user/htu21d/htu21d.c **** {
 631              		.loc 1 70 13 view .LVU263
 632              	.LBB151:
  72:user/htu21d/htu21d.c **** 
 633              		.loc 1 72 5 view .LVU264
  74:user/htu21d/htu21d.c ****         GPIO_InitStructure.Pin = HTU21D_SDA_Pin;
 634              		.loc 1 74 5 view .LVU265
  80:user/htu21d/htu21d.c ****         GPIO_InitStructure.Mode = GPIO_MODE_INPUT;
 635              		.loc 1 80 9 view .LVU266
  81:user/htu21d/htu21d.c ****         GPIO_InitStructure.Pull = GPIO_PULLUP;
 636              		.loc 1 81 9 view .LVU267
  80:user/htu21d/htu21d.c ****         GPIO_InitStructure.Mode = GPIO_MODE_INPUT;
 637              		.loc 1 80 32 is_stmt 0 view .LVU268
 638 00a2 4FF08008 		mov	r8, #128
 639 00a6 4FF00009 		mov	r9, #0
ARM GAS  C:\Users\WENHUA~1\AppData\Local\Temp\cc11gPXD.s 			page 21


  82:user/htu21d/htu21d.c ****         HAL_GPIO_Init(HTU21D_SDA_GPIO_Port, &GPIO_InitStructure);
 640              		.loc 1 82 33 view .LVU269
 641 00aa 0123     		movs	r3, #1
  83:user/htu21d/htu21d.c ****     }
 642              		.loc 1 83 9 view .LVU270
 643 00ac C148     		ldr	r0, .L60
 644 00ae 6946     		mov	r1, sp
 645 00b0 0824     		movs	r4, #8
 646              	.LBE151:
 647              	.LBE150:
 200:user/htu21d/htu21d.c ****     uint8_t i;
 648              		.loc 1 200 13 view .LVU271
 649 00b2 0025     		movs	r5, #0
 205:user/htu21d/htu21d.c ****         DelayUs(HTU21D_I2C_DELAY);
 650              		.loc 1 205 9 view .LVU272
 651 00b4 0646     		mov	r6, r0
 652              	.LBB153:
 653              	.LBB152:
  80:user/htu21d/htu21d.c ****         GPIO_InitStructure.Mode = GPIO_MODE_INPUT;
 654              		.loc 1 80 32 view .LVU273
 655 00b6 CDE90089 		strd	r8, [sp]
  82:user/htu21d/htu21d.c ****         HAL_GPIO_Init(HTU21D_SDA_GPIO_Port, &GPIO_InitStructure);
 656              		.loc 1 82 9 is_stmt 1 view .LVU274
  82:user/htu21d/htu21d.c ****         HAL_GPIO_Init(HTU21D_SDA_GPIO_Port, &GPIO_InitStructure);
 657              		.loc 1 82 33 is_stmt 0 view .LVU275
 658 00ba 0293     		str	r3, [sp, #8]
  83:user/htu21d/htu21d.c ****     }
 659              		.loc 1 83 9 is_stmt 1 view .LVU276
 660 00bc FFF7FEFF 		bl	HAL_GPIO_Init
 661              	.LVL36:
  83:user/htu21d/htu21d.c ****     }
 662              		.loc 1 83 9 is_stmt 0 view .LVU277
 663              	.LBE152:
 664              	.LBE153:
 203:user/htu21d/htu21d.c ****     for (i = 0; i < 8; i++) {
 665              		.loc 1 203 5 is_stmt 1 view .LVU278
 204:user/htu21d/htu21d.c ****         HTU21D_SCL_HIGH();
 666              		.loc 1 204 5 view .LVU279
 204:user/htu21d/htu21d.c ****         HTU21D_SCL_HIGH();
 667              		.loc 1 204 17 view .LVU280
 668              	.L25:
 205:user/htu21d/htu21d.c ****         DelayUs(HTU21D_I2C_DELAY);
 669              		.loc 1 205 9 view .LVU281
 205:user/htu21d/htu21d.c ****         DelayUs(HTU21D_I2C_DELAY);
 670              		.loc 1 205 9 view .LVU282
 671 00c0 0122     		movs	r2, #1
 672 00c2 4021     		movs	r1, #64
 673 00c4 3046     		mov	r0, r6
 674 00c6 FFF7FEFF 		bl	HAL_GPIO_WritePin
 675              	.LVL37:
 205:user/htu21d/htu21d.c ****         DelayUs(HTU21D_I2C_DELAY);
 676              		.loc 1 205 9 view .LVU283
 206:user/htu21d/htu21d.c ****         value <<= 1;
 677              		.loc 1 206 9 view .LVU284
 206:user/htu21d/htu21d.c ****         value <<= 1;
 678              		.loc 1 206 9 is_stmt 0 view .LVU285
 679              	.LBE149:
ARM GAS  C:\Users\WENHUA~1\AppData\Local\Temp\cc11gPXD.s 			page 22


 680              	.LBE148:
  65:user/htu21d/htu21d.c **** 
 681              		.loc 1 65 5 is_stmt 1 view .LVU286
  67:user/htu21d/htu21d.c **** }
 682              		.loc 1 67 5 view .LVU287
  67:user/htu21d/htu21d.c **** }
 683              		.loc 1 67 20 view .LVU288
  67:user/htu21d/htu21d.c **** }
 684              		.loc 1 67 11 view .LVU289
 685              	.LBB159:
 686              	.LBB158:
 207:user/htu21d/htu21d.c ****         if (HAL_GPIO_ReadPin(HTU21D_SDA_GPIO_Port, HTU21D_SDA_Pin) == GPIO_PIN_SET) {
 687              		.loc 1 207 9 view .LVU290
 208:user/htu21d/htu21d.c ****             value += 1;
 688              		.loc 1 208 13 is_stmt 0 view .LVU291
 689 00ca 8021     		movs	r1, #128
 690 00cc 3046     		mov	r0, r6
 691 00ce FFF7FEFF 		bl	HAL_GPIO_ReadPin
 692              	.LVL38:
 693 00d2 0346     		mov	r3, r0
 207:user/htu21d/htu21d.c ****         if (HAL_GPIO_ReadPin(HTU21D_SDA_GPIO_Port, HTU21D_SDA_Pin) == GPIO_PIN_SET) {
 694              		.loc 1 207 15 view .LVU292
 695 00d4 6D00     		lsls	r5, r5, #1
 696              	.LVL39:
 208:user/htu21d/htu21d.c ****             value += 1;
 697              		.loc 1 208 12 view .LVU293
 698 00d6 012B     		cmp	r3, #1
 207:user/htu21d/htu21d.c ****         if (HAL_GPIO_ReadPin(HTU21D_SDA_GPIO_Port, HTU21D_SDA_Pin) == GPIO_PIN_SET) {
 699              		.loc 1 207 15 view .LVU294
 700 00d8 EDB2     		uxtb	r5, r5
 701              	.LVL40:
 208:user/htu21d/htu21d.c ****             value += 1;
 702              		.loc 1 208 9 is_stmt 1 view .LVU295
 209:user/htu21d/htu21d.c ****         }
 703              		.loc 1 209 13 view .LVU296
 209:user/htu21d/htu21d.c ****         }
 704              		.loc 1 209 19 is_stmt 0 view .LVU297
 705 00da 08BF     		it	eq
 706 00dc 0135     		addeq	r5, r5, #1
 707              	.LVL41:
 211:user/htu21d/htu21d.c ****     }
 708              		.loc 1 211 9 view .LVU298
 709 00de 4FF00002 		mov	r2, #0
 710 00e2 4FF04001 		mov	r1, #64
 711 00e6 3046     		mov	r0, r6
 204:user/htu21d/htu21d.c ****         HTU21D_SCL_HIGH();
 712              		.loc 1 204 5 view .LVU299
 713 00e8 04F1FF34 		add	r4, r4, #-1
 209:user/htu21d/htu21d.c ****         }
 714              		.loc 1 209 19 view .LVU300
 715 00ec 08BF     		it	eq
 716 00ee EDB2     		uxtbeq	r5, r5
 717              	.LVL42:
 211:user/htu21d/htu21d.c ****     }
 718              		.loc 1 211 9 is_stmt 1 view .LVU301
 211:user/htu21d/htu21d.c ****     }
 719              		.loc 1 211 9 view .LVU302
ARM GAS  C:\Users\WENHUA~1\AppData\Local\Temp\cc11gPXD.s 			page 23


 720 00f0 FFF7FEFF 		bl	HAL_GPIO_WritePin
 721              	.LVL43:
 211:user/htu21d/htu21d.c ****     }
 722              		.loc 1 211 9 view .LVU303
 204:user/htu21d/htu21d.c ****         HTU21D_SCL_HIGH();
 723              		.loc 1 204 24 view .LVU304
 204:user/htu21d/htu21d.c ****         HTU21D_SCL_HIGH();
 724              		.loc 1 204 17 view .LVU305
 204:user/htu21d/htu21d.c ****         HTU21D_SCL_HIGH();
 725              		.loc 1 204 5 is_stmt 0 view .LVU306
 726 00f4 14F0FF04 		ands	r4, r4, #255
 727 00f8 E2D1     		bne	.L25
 213:user/htu21d/htu21d.c **** 
 728              		.loc 1 213 5 is_stmt 1 view .LVU307
 213:user/htu21d/htu21d.c **** 
 729              		.loc 1 213 5 view .LVU308
 730              	.LVL44:
 731              	.LBB154:
 732              	.LBI154:
  70:user/htu21d/htu21d.c **** {
 733              		.loc 1 70 13 view .LVU309
 734              	.LBB155:
  72:user/htu21d/htu21d.c **** 
 735              		.loc 1 72 5 view .LVU310
  74:user/htu21d/htu21d.c ****         GPIO_InitStructure.Pin = HTU21D_SDA_Pin;
 736              		.loc 1 74 5 view .LVU311
 737              	.LBB156:
 738              	.LBI156:
  70:user/htu21d/htu21d.c **** {
 739              		.loc 1 70 13 view .LVU312
 740              	.LBB157:
  75:user/htu21d/htu21d.c ****         GPIO_InitStructure.Mode = GPIO_MODE_OUTPUT_OD;
 741              		.loc 1 75 9 view .LVU313
  76:user/htu21d/htu21d.c ****         GPIO_InitStructure.Speed = GPIO_SPEED_FREQ_LOW;
 742              		.loc 1 76 9 view .LVU314
  77:user/htu21d/htu21d.c ****         HAL_GPIO_Init(HTU21D_SDA_GPIO_Port, &GPIO_InitStructure);
 743              		.loc 1 77 34 is_stmt 0 view .LVU315
 744 00fa 0221     		movs	r1, #2
  75:user/htu21d/htu21d.c ****         GPIO_InitStructure.Mode = GPIO_MODE_OUTPUT_OD;
 745              		.loc 1 75 32 view .LVU316
 746 00fc 1123     		movs	r3, #17
 747 00fe 8022     		movs	r2, #128
  78:user/htu21d/htu21d.c ****     } else {
 748              		.loc 1 78 9 view .LVU317
 749 0100 AC48     		ldr	r0, .L60
  77:user/htu21d/htu21d.c ****         HAL_GPIO_Init(HTU21D_SDA_GPIO_Port, &GPIO_InitStructure);
 750              		.loc 1 77 34 view .LVU318
 751 0102 0391     		str	r1, [sp, #12]
  78:user/htu21d/htu21d.c ****     } else {
 752              		.loc 1 78 9 view .LVU319
 753 0104 6946     		mov	r1, sp
  75:user/htu21d/htu21d.c ****         GPIO_InitStructure.Mode = GPIO_MODE_OUTPUT_OD;
 754              		.loc 1 75 32 view .LVU320
 755 0106 CDE90023 		strd	r2, [sp]
  77:user/htu21d/htu21d.c ****         HAL_GPIO_Init(HTU21D_SDA_GPIO_Port, &GPIO_InitStructure);
 756              		.loc 1 77 9 is_stmt 1 view .LVU321
  78:user/htu21d/htu21d.c ****     } else {
ARM GAS  C:\Users\WENHUA~1\AppData\Local\Temp\cc11gPXD.s 			page 24


 757              		.loc 1 78 9 view .LVU322
 758 010a FFF7FEFF 		bl	HAL_GPIO_Init
 759              	.LVL45:
  78:user/htu21d/htu21d.c ****     } else {
 760              		.loc 1 78 9 is_stmt 0 view .LVU323
 761              	.LBE157:
 762              	.LBE156:
 763              	.LBE155:
 764              	.LBE154:
 213:user/htu21d/htu21d.c **** 
 765              		.loc 1 213 5 is_stmt 1 view .LVU324
 215:user/htu21d/htu21d.c **** }
 766              		.loc 1 215 5 view .LVU325
 215:user/htu21d/htu21d.c **** }
 767              		.loc 1 215 5 is_stmt 0 view .LVU326
 768              	.LBE158:
 769              	.LBE159:
 245:user/htu21d/htu21d.c ****     AckBus();
 770              		.loc 1 245 5 is_stmt 1 view .LVU327
 771              	.LBB160:
 772              	.LBB161:
 111:user/htu21d/htu21d.c ****     DelayUs(HTU21D_I2C_DELAY);
 773              		.loc 1 111 5 is_stmt 0 view .LVU328
 774 010e 8021     		movs	r1, #128
 775 0110 2246     		mov	r2, r4
 776 0112 A848     		ldr	r0, .L60
 777 0114 FFF7FEFF 		bl	HAL_GPIO_WritePin
 778              	.LVL46:
 113:user/htu21d/htu21d.c ****     DelayUs(HTU21D_I2C_DELAY);
 779              		.loc 1 113 5 view .LVU329
 780 0118 2246     		mov	r2, r4
 781 011a 4021     		movs	r1, #64
 782 011c A548     		ldr	r0, .L60
 783 011e FFF7FEFF 		bl	HAL_GPIO_WritePin
 784              	.LVL47:
 115:user/htu21d/htu21d.c ****     DelayUs(HTU21D_I2C_DELAY);
 785              		.loc 1 115 5 view .LVU330
 786 0122 4021     		movs	r1, #64
 787 0124 0122     		movs	r2, #1
 788 0126 A348     		ldr	r0, .L60
 789 0128 FFF7FEFF 		bl	HAL_GPIO_WritePin
 790              	.LVL48:
 117:user/htu21d/htu21d.c ****     DelayUs(HTU21D_I2C_DELAY);
 791              		.loc 1 117 5 view .LVU331
 792 012c 2246     		mov	r2, r4
 793 012e 4021     		movs	r1, #64
 794 0130 A048     		ldr	r0, .L60
 795 0132 FFF7FEFF 		bl	HAL_GPIO_WritePin
 796              	.LVL49:
 119:user/htu21d/htu21d.c ****     DelayUs(HTU21D_I2C_DELAY);
 797              		.loc 1 119 5 view .LVU332
 798 0136 0122     		movs	r2, #1
 799 0138 8021     		movs	r1, #128
 800 013a 9E48     		ldr	r0, .L60
 801 013c FFF7FEFF 		bl	HAL_GPIO_WritePin
 802              	.LVL50:
 803              	.LBE161:
ARM GAS  C:\Users\WENHUA~1\AppData\Local\Temp\cc11gPXD.s 			page 25


 804              	.LBE160:
 805              	.LBB167:
 806              	.LBB168:
 807              	.LBB169:
 808              	.LBB170:
  82:user/htu21d/htu21d.c ****         HAL_GPIO_Init(HTU21D_SDA_GPIO_Port, &GPIO_InitStructure);
 809              		.loc 1 82 33 view .LVU333
 810 0140 0121     		movs	r1, #1
  80:user/htu21d/htu21d.c ****         GPIO_InitStructure.Mode = GPIO_MODE_INPUT;
 811              		.loc 1 80 32 view .LVU334
 812 0142 8022     		movs	r2, #128
 813 0144 0023     		movs	r3, #0
  82:user/htu21d/htu21d.c ****         HAL_GPIO_Init(HTU21D_SDA_GPIO_Port, &GPIO_InitStructure);
 814              		.loc 1 82 33 view .LVU335
 815 0146 0291     		str	r1, [sp, #8]
  83:user/htu21d/htu21d.c ****     }
 816              		.loc 1 83 9 view .LVU336
 817 0148 9A48     		ldr	r0, .L60
 818 014a 6946     		mov	r1, sp
  80:user/htu21d/htu21d.c ****         GPIO_InitStructure.Mode = GPIO_MODE_INPUT;
 819              		.loc 1 80 32 view .LVU337
 820 014c CDE90023 		strd	r2, [sp]
 821 0150 0827     		movs	r7, #8
  83:user/htu21d/htu21d.c ****     }
 822              		.loc 1 83 9 view .LVU338
 823 0152 FFF7FEFF 		bl	HAL_GPIO_Init
 824              	.LVL51:
 825              	.LBE170:
 826              	.LBE169:
 205:user/htu21d/htu21d.c ****         DelayUs(HTU21D_I2C_DELAY);
 827              		.loc 1 205 9 view .LVU339
 828 0156 974E     		ldr	r6, .L60
 829              	.LBE168:
 830              	.LBE167:
 245:user/htu21d/htu21d.c ****     AckBus();
 831              		.loc 1 245 14 view .LVU340
 832 0158 2D02     		lsls	r5, r5, #8
 833              	.LVL52:
 246:user/htu21d/htu21d.c ****     htu_data += ReadByte();
 834              		.loc 1 246 5 is_stmt 1 view .LVU341
 835              	.LBB179:
 836              	.LBI160:
 109:user/htu21d/htu21d.c **** {
 837              		.loc 1 109 13 view .LVU342
 838              	.LBB162:
 111:user/htu21d/htu21d.c ****     DelayUs(HTU21D_I2C_DELAY);
 839              		.loc 1 111 5 view .LVU343
 111:user/htu21d/htu21d.c ****     DelayUs(HTU21D_I2C_DELAY);
 840              		.loc 1 111 5 view .LVU344
 111:user/htu21d/htu21d.c ****     DelayUs(HTU21D_I2C_DELAY);
 841              		.loc 1 111 5 view .LVU345
 112:user/htu21d/htu21d.c ****     HTU21D_SCL_LOW();
 842              		.loc 1 112 5 view .LVU346
 112:user/htu21d/htu21d.c ****     HTU21D_SCL_LOW();
 843              		.loc 1 112 5 is_stmt 0 view .LVU347
 844              	.LBE162:
 845              	.LBE179:
ARM GAS  C:\Users\WENHUA~1\AppData\Local\Temp\cc11gPXD.s 			page 26


  65:user/htu21d/htu21d.c **** 
 846              		.loc 1 65 5 is_stmt 1 view .LVU348
  67:user/htu21d/htu21d.c **** }
 847              		.loc 1 67 5 view .LVU349
  67:user/htu21d/htu21d.c **** }
 848              		.loc 1 67 20 view .LVU350
  67:user/htu21d/htu21d.c **** }
 849              		.loc 1 67 11 view .LVU351
 850              	.LBB180:
 851              	.LBB163:
 113:user/htu21d/htu21d.c ****     DelayUs(HTU21D_I2C_DELAY);
 852              		.loc 1 113 5 view .LVU352
 113:user/htu21d/htu21d.c ****     DelayUs(HTU21D_I2C_DELAY);
 853              		.loc 1 113 5 view .LVU353
 113:user/htu21d/htu21d.c ****     DelayUs(HTU21D_I2C_DELAY);
 854              		.loc 1 113 5 view .LVU354
 114:user/htu21d/htu21d.c ****     HTU21D_SCL_HIGH();
 855              		.loc 1 114 5 view .LVU355
 114:user/htu21d/htu21d.c ****     HTU21D_SCL_HIGH();
 856              		.loc 1 114 5 is_stmt 0 view .LVU356
 857              	.LBE163:
 858              	.LBE180:
  65:user/htu21d/htu21d.c **** 
 859              		.loc 1 65 5 is_stmt 1 view .LVU357
  67:user/htu21d/htu21d.c **** }
 860              		.loc 1 67 5 view .LVU358
  67:user/htu21d/htu21d.c **** }
 861              		.loc 1 67 20 view .LVU359
  67:user/htu21d/htu21d.c **** }
 862              		.loc 1 67 11 view .LVU360
 863              	.LBB181:
 864              	.LBB164:
 115:user/htu21d/htu21d.c ****     DelayUs(HTU21D_I2C_DELAY);
 865              		.loc 1 115 5 view .LVU361
 115:user/htu21d/htu21d.c ****     DelayUs(HTU21D_I2C_DELAY);
 866              		.loc 1 115 5 view .LVU362
 115:user/htu21d/htu21d.c ****     DelayUs(HTU21D_I2C_DELAY);
 867              		.loc 1 115 5 view .LVU363
 116:user/htu21d/htu21d.c ****     HTU21D_SCL_LOW();
 868              		.loc 1 116 5 view .LVU364
 116:user/htu21d/htu21d.c ****     HTU21D_SCL_LOW();
 869              		.loc 1 116 5 is_stmt 0 view .LVU365
 870              	.LBE164:
 871              	.LBE181:
  65:user/htu21d/htu21d.c **** 
 872              		.loc 1 65 5 is_stmt 1 view .LVU366
  67:user/htu21d/htu21d.c **** }
 873              		.loc 1 67 5 view .LVU367
  67:user/htu21d/htu21d.c **** }
 874              		.loc 1 67 20 view .LVU368
  67:user/htu21d/htu21d.c **** }
 875              		.loc 1 67 11 view .LVU369
 876              	.LBB182:
 877              	.LBB165:
 117:user/htu21d/htu21d.c ****     DelayUs(HTU21D_I2C_DELAY);
 878              		.loc 1 117 5 view .LVU370
 117:user/htu21d/htu21d.c ****     DelayUs(HTU21D_I2C_DELAY);
ARM GAS  C:\Users\WENHUA~1\AppData\Local\Temp\cc11gPXD.s 			page 27


 879              		.loc 1 117 5 view .LVU371
 117:user/htu21d/htu21d.c ****     DelayUs(HTU21D_I2C_DELAY);
 880              		.loc 1 117 5 view .LVU372
 118:user/htu21d/htu21d.c ****     HTU21D_SDA_HIGH();
 881              		.loc 1 118 5 view .LVU373
 118:user/htu21d/htu21d.c ****     HTU21D_SDA_HIGH();
 882              		.loc 1 118 5 is_stmt 0 view .LVU374
 883              	.LBE165:
 884              	.LBE182:
  65:user/htu21d/htu21d.c **** 
 885              		.loc 1 65 5 is_stmt 1 view .LVU375
  67:user/htu21d/htu21d.c **** }
 886              		.loc 1 67 5 view .LVU376
  67:user/htu21d/htu21d.c **** }
 887              		.loc 1 67 20 view .LVU377
  67:user/htu21d/htu21d.c **** }
 888              		.loc 1 67 11 view .LVU378
 889              	.LBB183:
 890              	.LBB166:
 119:user/htu21d/htu21d.c ****     DelayUs(HTU21D_I2C_DELAY);
 891              		.loc 1 119 5 view .LVU379
 119:user/htu21d/htu21d.c ****     DelayUs(HTU21D_I2C_DELAY);
 892              		.loc 1 119 5 view .LVU380
 119:user/htu21d/htu21d.c ****     DelayUs(HTU21D_I2C_DELAY);
 893              		.loc 1 119 5 view .LVU381
 120:user/htu21d/htu21d.c **** }
 894              		.loc 1 120 5 view .LVU382
 120:user/htu21d/htu21d.c **** }
 895              		.loc 1 120 5 is_stmt 0 view .LVU383
 896              	.LBE166:
 897              	.LBE183:
  65:user/htu21d/htu21d.c **** 
 898              		.loc 1 65 5 is_stmt 1 view .LVU384
  67:user/htu21d/htu21d.c **** }
 899              		.loc 1 67 5 view .LVU385
  67:user/htu21d/htu21d.c **** }
 900              		.loc 1 67 20 view .LVU386
  67:user/htu21d/htu21d.c **** }
 901              		.loc 1 67 11 view .LVU387
 247:user/htu21d/htu21d.c ****     NoAckBus();
 902              		.loc 1 247 5 view .LVU388
 903              	.LBB184:
 904              	.LBI167:
 198:user/htu21d/htu21d.c **** {
 905              		.loc 1 198 16 view .LVU389
 906              	.LBB177:
 200:user/htu21d/htu21d.c ****     uint8_t i;
 907              		.loc 1 200 5 view .LVU390
 201:user/htu21d/htu21d.c **** 
 908              		.loc 1 201 5 view .LVU391
 203:user/htu21d/htu21d.c ****     for (i = 0; i < 8; i++) {
 909              		.loc 1 203 5 view .LVU392
 203:user/htu21d/htu21d.c ****     for (i = 0; i < 8; i++) {
 910              		.loc 1 203 5 view .LVU393
 911              	.LBB172:
 912              	.LBI169:
  70:user/htu21d/htu21d.c **** {
ARM GAS  C:\Users\WENHUA~1\AppData\Local\Temp\cc11gPXD.s 			page 28


 913              		.loc 1 70 13 view .LVU394
 914              	.LBB171:
  72:user/htu21d/htu21d.c **** 
 915              		.loc 1 72 5 view .LVU395
  74:user/htu21d/htu21d.c ****         GPIO_InitStructure.Pin = HTU21D_SDA_Pin;
 916              		.loc 1 74 5 view .LVU396
  80:user/htu21d/htu21d.c ****         GPIO_InitStructure.Mode = GPIO_MODE_INPUT;
 917              		.loc 1 80 9 view .LVU397
  81:user/htu21d/htu21d.c ****         GPIO_InitStructure.Pull = GPIO_PULLUP;
 918              		.loc 1 81 9 view .LVU398
  82:user/htu21d/htu21d.c ****         HAL_GPIO_Init(HTU21D_SDA_GPIO_Port, &GPIO_InitStructure);
 919              		.loc 1 82 9 view .LVU399
  83:user/htu21d/htu21d.c ****     }
 920              		.loc 1 83 9 view .LVU400
  83:user/htu21d/htu21d.c ****     }
 921              		.loc 1 83 9 is_stmt 0 view .LVU401
 922              	.LBE171:
 923              	.LBE172:
 203:user/htu21d/htu21d.c ****     for (i = 0; i < 8; i++) {
 924              		.loc 1 203 5 is_stmt 1 view .LVU402
 204:user/htu21d/htu21d.c ****         HTU21D_SCL_HIGH();
 925              		.loc 1 204 5 view .LVU403
 204:user/htu21d/htu21d.c ****         HTU21D_SCL_HIGH();
 926              		.loc 1 204 17 view .LVU404
 927              	.L27:
 205:user/htu21d/htu21d.c ****         DelayUs(HTU21D_I2C_DELAY);
 928              		.loc 1 205 9 view .LVU405
 205:user/htu21d/htu21d.c ****         DelayUs(HTU21D_I2C_DELAY);
 929              		.loc 1 205 9 view .LVU406
 930 015a 0122     		movs	r2, #1
 931 015c 4021     		movs	r1, #64
 932 015e 3046     		mov	r0, r6
 933 0160 FFF7FEFF 		bl	HAL_GPIO_WritePin
 934              	.LVL53:
 205:user/htu21d/htu21d.c ****         DelayUs(HTU21D_I2C_DELAY);
 935              		.loc 1 205 9 view .LVU407
 206:user/htu21d/htu21d.c ****         value <<= 1;
 936              		.loc 1 206 9 view .LVU408
 206:user/htu21d/htu21d.c ****         value <<= 1;
 937              		.loc 1 206 9 is_stmt 0 view .LVU409
 938              	.LBE177:
 939              	.LBE184:
  65:user/htu21d/htu21d.c **** 
 940              		.loc 1 65 5 is_stmt 1 view .LVU410
  67:user/htu21d/htu21d.c **** }
 941              		.loc 1 67 5 view .LVU411
  67:user/htu21d/htu21d.c **** }
 942              		.loc 1 67 20 view .LVU412
  67:user/htu21d/htu21d.c **** }
 943              		.loc 1 67 11 view .LVU413
 944              	.LBB185:
 945              	.LBB178:
 207:user/htu21d/htu21d.c ****         if (HAL_GPIO_ReadPin(HTU21D_SDA_GPIO_Port, HTU21D_SDA_Pin) == GPIO_PIN_SET) {
 946              		.loc 1 207 9 view .LVU414
 208:user/htu21d/htu21d.c ****             value += 1;
 947              		.loc 1 208 13 is_stmt 0 view .LVU415
 948 0164 8021     		movs	r1, #128
ARM GAS  C:\Users\WENHUA~1\AppData\Local\Temp\cc11gPXD.s 			page 29


 949 0166 3046     		mov	r0, r6
 950 0168 FFF7FEFF 		bl	HAL_GPIO_ReadPin
 951              	.LVL54:
 952 016c 0346     		mov	r3, r0
 207:user/htu21d/htu21d.c ****         if (HAL_GPIO_ReadPin(HTU21D_SDA_GPIO_Port, HTU21D_SDA_Pin) == GPIO_PIN_SET) {
 953              		.loc 1 207 15 view .LVU416
 954 016e 6400     		lsls	r4, r4, #1
 955              	.LVL55:
 208:user/htu21d/htu21d.c ****             value += 1;
 956              		.loc 1 208 12 view .LVU417
 957 0170 012B     		cmp	r3, #1
 207:user/htu21d/htu21d.c ****         if (HAL_GPIO_ReadPin(HTU21D_SDA_GPIO_Port, HTU21D_SDA_Pin) == GPIO_PIN_SET) {
 958              		.loc 1 207 15 view .LVU418
 959 0172 E4B2     		uxtb	r4, r4
 960              	.LVL56:
 208:user/htu21d/htu21d.c ****             value += 1;
 961              		.loc 1 208 9 is_stmt 1 view .LVU419
 209:user/htu21d/htu21d.c ****         }
 962              		.loc 1 209 13 view .LVU420
 209:user/htu21d/htu21d.c ****         }
 963              		.loc 1 209 19 is_stmt 0 view .LVU421
 964 0174 08BF     		it	eq
 965 0176 0134     		addeq	r4, r4, #1
 966              	.LVL57:
 211:user/htu21d/htu21d.c ****     }
 967              		.loc 1 211 9 view .LVU422
 968 0178 4FF00002 		mov	r2, #0
 969 017c 4FF04001 		mov	r1, #64
 970 0180 3046     		mov	r0, r6
 209:user/htu21d/htu21d.c ****         }
 971              		.loc 1 209 19 view .LVU423
 972 0182 08BF     		it	eq
 973 0184 E4B2     		uxtbeq	r4, r4
 974              	.LVL58:
 211:user/htu21d/htu21d.c ****     }
 975              		.loc 1 211 9 is_stmt 1 view .LVU424
 211:user/htu21d/htu21d.c ****     }
 976              		.loc 1 211 9 view .LVU425
 977 0186 FFF7FEFF 		bl	HAL_GPIO_WritePin
 978              	.LVL59:
 211:user/htu21d/htu21d.c ****     }
 979              		.loc 1 211 9 view .LVU426
 204:user/htu21d/htu21d.c ****         HTU21D_SCL_HIGH();
 980              		.loc 1 204 24 view .LVU427
 204:user/htu21d/htu21d.c ****         HTU21D_SCL_HIGH();
 981              		.loc 1 204 17 view .LVU428
 204:user/htu21d/htu21d.c ****         HTU21D_SCL_HIGH();
 982              		.loc 1 204 5 is_stmt 0 view .LVU429
 983 018a 7A1E     		subs	r2, r7, #1
 984 018c 12F0FF07 		ands	r7, r2, #255
 985 0190 E3D1     		bne	.L27
 213:user/htu21d/htu21d.c **** 
 986              		.loc 1 213 5 is_stmt 1 view .LVU430
 213:user/htu21d/htu21d.c **** 
 987              		.loc 1 213 5 view .LVU431
 988              	.LVL60:
 989              	.LBB173:
ARM GAS  C:\Users\WENHUA~1\AppData\Local\Temp\cc11gPXD.s 			page 30


 990              	.LBI173:
  70:user/htu21d/htu21d.c **** {
 991              		.loc 1 70 13 view .LVU432
 992              	.LBB174:
  72:user/htu21d/htu21d.c **** 
 993              		.loc 1 72 5 view .LVU433
  74:user/htu21d/htu21d.c ****         GPIO_InitStructure.Pin = HTU21D_SDA_Pin;
 994              		.loc 1 74 5 view .LVU434
 995              	.LBB175:
 996              	.LBI175:
  70:user/htu21d/htu21d.c **** {
 997              		.loc 1 70 13 view .LVU435
 998              	.LBB176:
  75:user/htu21d/htu21d.c ****         GPIO_InitStructure.Mode = GPIO_MODE_OUTPUT_OD;
 999              		.loc 1 75 9 view .LVU436
  76:user/htu21d/htu21d.c ****         GPIO_InitStructure.Speed = GPIO_SPEED_FREQ_LOW;
 1000              		.loc 1 76 9 view .LVU437
  75:user/htu21d/htu21d.c ****         GPIO_InitStructure.Mode = GPIO_MODE_OUTPUT_OD;
 1001              		.loc 1 75 32 is_stmt 0 view .LVU438
 1002 0192 8022     		movs	r2, #128
 1003 0194 1123     		movs	r3, #17
 1004 0196 CDE90023 		strd	r2, [sp]
  77:user/htu21d/htu21d.c ****         HAL_GPIO_Init(HTU21D_SDA_GPIO_Port, &GPIO_InitStructure);
 1005              		.loc 1 77 9 is_stmt 1 view .LVU439
  77:user/htu21d/htu21d.c ****         HAL_GPIO_Init(HTU21D_SDA_GPIO_Port, &GPIO_InitStructure);
 1006              		.loc 1 77 34 is_stmt 0 view .LVU440
 1007 019a 0223     		movs	r3, #2
  78:user/htu21d/htu21d.c ****     } else {
 1008              		.loc 1 78 9 view .LVU441
 1009 019c 6946     		mov	r1, sp
 1010 019e 8548     		ldr	r0, .L60
  77:user/htu21d/htu21d.c ****         HAL_GPIO_Init(HTU21D_SDA_GPIO_Port, &GPIO_InitStructure);
 1011              		.loc 1 77 34 view .LVU442
 1012 01a0 0393     		str	r3, [sp, #12]
  78:user/htu21d/htu21d.c ****     } else {
 1013              		.loc 1 78 9 is_stmt 1 view .LVU443
 1014 01a2 FFF7FEFF 		bl	HAL_GPIO_Init
 1015              	.LVL61:
  78:user/htu21d/htu21d.c ****     } else {
 1016              		.loc 1 78 9 is_stmt 0 view .LVU444
 1017              	.LBE176:
 1018              	.LBE175:
 1019              	.LBE174:
 1020              	.LBE173:
 213:user/htu21d/htu21d.c **** 
 1021              		.loc 1 213 5 is_stmt 1 view .LVU445
 215:user/htu21d/htu21d.c **** }
 1022              		.loc 1 215 5 view .LVU446
 215:user/htu21d/htu21d.c **** }
 1023              		.loc 1 215 5 is_stmt 0 view .LVU447
 1024              	.LBE178:
 1025              	.LBE185:
 1026              	.LBB186:
 1027              	.LBB187:
 125:user/htu21d/htu21d.c ****     DelayUs(HTU21D_I2C_DELAY);
 1028              		.loc 1 125 5 view .LVU448
 1029 01a6 0122     		movs	r2, #1
ARM GAS  C:\Users\WENHUA~1\AppData\Local\Temp\cc11gPXD.s 			page 31


 1030 01a8 8021     		movs	r1, #128
 1031 01aa 8248     		ldr	r0, .L60
 1032 01ac FFF7FEFF 		bl	HAL_GPIO_WritePin
 1033              	.LVL62:
 127:user/htu21d/htu21d.c ****     DelayUs(HTU21D_I2C_DELAY);
 1034              		.loc 1 127 5 view .LVU449
 1035 01b0 0122     		movs	r2, #1
 1036 01b2 4021     		movs	r1, #64
 1037 01b4 7F48     		ldr	r0, .L60
 1038 01b6 FFF7FEFF 		bl	HAL_GPIO_WritePin
 1039              	.LVL63:
 129:user/htu21d/htu21d.c **** }
 1040              		.loc 1 129 5 view .LVU450
 1041 01ba 3A46     		mov	r2, r7
 1042 01bc 4021     		movs	r1, #64
 1043 01be 7D48     		ldr	r0, .L60
 1044 01c0 FFF7FEFF 		bl	HAL_GPIO_WritePin
 1045              	.LVL64:
 1046              	.LBE187:
 1047              	.LBE186:
 1048              	.LBB191:
 1049              	.LBB192:
 101:user/htu21d/htu21d.c ****     DelayUs(HTU21D_I2C_DELAY);
 1050              		.loc 1 101 5 view .LVU451
 1051 01c4 3A46     		mov	r2, r7
 1052 01c6 8021     		movs	r1, #128
 1053 01c8 7A48     		ldr	r0, .L60
 1054 01ca FFF7FEFF 		bl	HAL_GPIO_WritePin
 1055              	.LVL65:
 1056              	.LBE192:
 1057              	.LBE191:
 247:user/htu21d/htu21d.c ****     NoAckBus();
 1058              		.loc 1 247 14 view .LVU452
 1059 01ce 2544     		add	r5, r5, r4
 1060              	.LVL66:
 1061              	.LBB197:
 1062              	.LBB193:
 103:user/htu21d/htu21d.c ****     DelayUs(HTU21D_I2C_DELAY);
 1063              		.loc 1 103 5 view .LVU453
 1064 01d0 0122     		movs	r2, #1
 1065 01d2 4021     		movs	r1, #64
 1066 01d4 7748     		ldr	r0, .L60
 1067 01d6 FFF7FEFF 		bl	HAL_GPIO_WritePin
 1068              	.LVL67:
 1069              	.LBE193:
 1070              	.LBE197:
 247:user/htu21d/htu21d.c ****     NoAckBus();
 1071              		.loc 1 247 14 view .LVU454
 1072 01da ADB2     		uxth	r5, r5
 1073              	.LVL68:
 248:user/htu21d/htu21d.c ****     StopBus();
 1074              		.loc 1 248 5 is_stmt 1 view .LVU455
 1075              	.LBB198:
 1076              	.LBI186:
 123:user/htu21d/htu21d.c **** {
 1077              		.loc 1 123 13 view .LVU456
 1078              	.LBB188:
ARM GAS  C:\Users\WENHUA~1\AppData\Local\Temp\cc11gPXD.s 			page 32


 125:user/htu21d/htu21d.c ****     DelayUs(HTU21D_I2C_DELAY);
 1079              		.loc 1 125 5 view .LVU457
 125:user/htu21d/htu21d.c ****     DelayUs(HTU21D_I2C_DELAY);
 1080              		.loc 1 125 5 view .LVU458
 125:user/htu21d/htu21d.c ****     DelayUs(HTU21D_I2C_DELAY);
 1081              		.loc 1 125 5 view .LVU459
 126:user/htu21d/htu21d.c ****     HTU21D_SCL_HIGH();
 1082              		.loc 1 126 5 view .LVU460
 126:user/htu21d/htu21d.c ****     HTU21D_SCL_HIGH();
 1083              		.loc 1 126 5 is_stmt 0 view .LVU461
 1084              	.LBE188:
 1085              	.LBE198:
  65:user/htu21d/htu21d.c **** 
 1086              		.loc 1 65 5 is_stmt 1 view .LVU462
  67:user/htu21d/htu21d.c **** }
 1087              		.loc 1 67 5 view .LVU463
  67:user/htu21d/htu21d.c **** }
 1088              		.loc 1 67 20 view .LVU464
  67:user/htu21d/htu21d.c **** }
 1089              		.loc 1 67 11 view .LVU465
 1090              	.LBB199:
 1091              	.LBB189:
 127:user/htu21d/htu21d.c ****     DelayUs(HTU21D_I2C_DELAY);
 1092              		.loc 1 127 5 view .LVU466
 127:user/htu21d/htu21d.c ****     DelayUs(HTU21D_I2C_DELAY);
 1093              		.loc 1 127 5 view .LVU467
 127:user/htu21d/htu21d.c ****     DelayUs(HTU21D_I2C_DELAY);
 1094              		.loc 1 127 5 view .LVU468
 128:user/htu21d/htu21d.c ****     HTU21D_SCL_LOW();
 1095              		.loc 1 128 5 view .LVU469
 128:user/htu21d/htu21d.c ****     HTU21D_SCL_LOW();
 1096              		.loc 1 128 5 is_stmt 0 view .LVU470
 1097              	.LBE189:
 1098              	.LBE199:
  65:user/htu21d/htu21d.c **** 
 1099              		.loc 1 65 5 is_stmt 1 view .LVU471
  67:user/htu21d/htu21d.c **** }
 1100              		.loc 1 67 5 view .LVU472
  67:user/htu21d/htu21d.c **** }
 1101              		.loc 1 67 20 view .LVU473
  67:user/htu21d/htu21d.c **** }
 1102              		.loc 1 67 11 view .LVU474
 1103              	.LBB200:
 1104              	.LBB190:
 129:user/htu21d/htu21d.c **** }
 1105              		.loc 1 129 5 view .LVU475
 129:user/htu21d/htu21d.c **** }
 1106              		.loc 1 129 5 view .LVU476
 129:user/htu21d/htu21d.c **** }
 1107              		.loc 1 129 5 view .LVU477
 1108              	.LBE190:
 1109              	.LBE200:
 249:user/htu21d/htu21d.c ****     htu = ((htu_data & 0xfffc) / 65536.0 * 125.0 - 6.0);
 1110              		.loc 1 249 5 view .LVU478
 1111              	.LBB201:
 1112              	.LBI191:
  99:user/htu21d/htu21d.c **** {
ARM GAS  C:\Users\WENHUA~1\AppData\Local\Temp\cc11gPXD.s 			page 33


 1113              		.loc 1 99 13 view .LVU479
 1114              	.LBB194:
 101:user/htu21d/htu21d.c ****     DelayUs(HTU21D_I2C_DELAY);
 1115              		.loc 1 101 5 view .LVU480
 101:user/htu21d/htu21d.c ****     DelayUs(HTU21D_I2C_DELAY);
 1116              		.loc 1 101 5 view .LVU481
 101:user/htu21d/htu21d.c ****     DelayUs(HTU21D_I2C_DELAY);
 1117              		.loc 1 101 5 view .LVU482
 102:user/htu21d/htu21d.c ****     HTU21D_SCL_HIGH();
 1118              		.loc 1 102 5 view .LVU483
 102:user/htu21d/htu21d.c ****     HTU21D_SCL_HIGH();
 1119              		.loc 1 102 5 is_stmt 0 view .LVU484
 1120              	.LBE194:
 1121              	.LBE201:
  65:user/htu21d/htu21d.c **** 
 1122              		.loc 1 65 5 is_stmt 1 view .LVU485
  67:user/htu21d/htu21d.c **** }
 1123              		.loc 1 67 5 view .LVU486
  67:user/htu21d/htu21d.c **** }
 1124              		.loc 1 67 20 view .LVU487
  67:user/htu21d/htu21d.c **** }
 1125              		.loc 1 67 11 view .LVU488
 1126              	.LBB202:
 1127              	.LBB195:
 103:user/htu21d/htu21d.c ****     DelayUs(HTU21D_I2C_DELAY);
 1128              		.loc 1 103 5 view .LVU489
 103:user/htu21d/htu21d.c ****     DelayUs(HTU21D_I2C_DELAY);
 1129              		.loc 1 103 5 view .LVU490
 103:user/htu21d/htu21d.c ****     DelayUs(HTU21D_I2C_DELAY);
 1130              		.loc 1 103 5 view .LVU491
 104:user/htu21d/htu21d.c ****     HTU21D_SDA_HIGH();
 1131              		.loc 1 104 5 view .LVU492
 104:user/htu21d/htu21d.c ****     HTU21D_SDA_HIGH();
 1132              		.loc 1 104 5 is_stmt 0 view .LVU493
 1133              	.LBE195:
 1134              	.LBE202:
  65:user/htu21d/htu21d.c **** 
 1135              		.loc 1 65 5 is_stmt 1 view .LVU494
  67:user/htu21d/htu21d.c **** }
 1136              		.loc 1 67 5 view .LVU495
  67:user/htu21d/htu21d.c **** }
 1137              		.loc 1 67 20 view .LVU496
  67:user/htu21d/htu21d.c **** }
 1138              		.loc 1 67 11 view .LVU497
 1139              	.LBB203:
 1140              	.LBB196:
 105:user/htu21d/htu21d.c ****     DelayUs(HTU21D_I2C_DELAY);
 1141              		.loc 1 105 5 view .LVU498
 105:user/htu21d/htu21d.c ****     DelayUs(HTU21D_I2C_DELAY);
 1142              		.loc 1 105 5 view .LVU499
 1143 01dc 0122     		movs	r2, #1
 1144 01de 8021     		movs	r1, #128
 1145 01e0 7448     		ldr	r0, .L60
 1146 01e2 FFF7FEFF 		bl	HAL_GPIO_WritePin
 1147              	.LVL69:
 105:user/htu21d/htu21d.c ****     DelayUs(HTU21D_I2C_DELAY);
 1148              		.loc 1 105 5 view .LVU500
ARM GAS  C:\Users\WENHUA~1\AppData\Local\Temp\cc11gPXD.s 			page 34


 106:user/htu21d/htu21d.c **** }
 1149              		.loc 1 106 5 view .LVU501
 106:user/htu21d/htu21d.c **** }
 1150              		.loc 1 106 5 is_stmt 0 view .LVU502
 1151              	.LBE196:
 1152              	.LBE203:
  65:user/htu21d/htu21d.c **** 
 1153              		.loc 1 65 5 is_stmt 1 view .LVU503
  67:user/htu21d/htu21d.c **** }
 1154              		.loc 1 67 5 view .LVU504
  67:user/htu21d/htu21d.c **** }
 1155              		.loc 1 67 20 view .LVU505
  67:user/htu21d/htu21d.c **** }
 1156              		.loc 1 67 11 view .LVU506
 250:user/htu21d/htu21d.c ****     g_thData.humidity = (uint16_t)htu * 10;
 1157              		.loc 1 250 5 view .LVU507
 251:user/htu21d/htu21d.c **** 
 1158              		.loc 1 251 5 view .LVU508
 250:user/htu21d/htu21d.c ****     g_thData.humidity = (uint16_t)htu * 10;
 1159              		.loc 1 250 22 is_stmt 0 view .LVU509
 1160 01e6 25F00300 		bic	r0, r5, #3
 250:user/htu21d/htu21d.c ****     g_thData.humidity = (uint16_t)htu * 10;
 1161              		.loc 1 250 32 view .LVU510
 1162 01ea FFF7FEFF 		bl	__aeabi_i2d
 1163              	.LVL70:
 1164 01ee 0022     		movs	r2, #0
 1165 01f0 714B     		ldr	r3, .L60+4
 1166 01f2 FFF7FEFF 		bl	__aeabi_dmul
 1167              	.LVL71:
 250:user/htu21d/htu21d.c ****     g_thData.humidity = (uint16_t)htu * 10;
 1168              		.loc 1 250 42 view .LVU511
 1169 01f6 0022     		movs	r2, #0
 1170 01f8 704B     		ldr	r3, .L60+8
 1171 01fa FFF7FEFF 		bl	__aeabi_dmul
 1172              	.LVL72:
 250:user/htu21d/htu21d.c ****     g_thData.humidity = (uint16_t)htu * 10;
 1173              		.loc 1 250 50 view .LVU512
 1174 01fe 0022     		movs	r2, #0
 1175 0200 6F4B     		ldr	r3, .L60+12
 1176 0202 FFF7FEFF 		bl	__aeabi_dsub
 1177              	.LVL73:
 250:user/htu21d/htu21d.c ****     g_thData.humidity = (uint16_t)htu * 10;
 1178              		.loc 1 250 9 view .LVU513
 1179 0206 FFF7FEFF 		bl	__aeabi_d2f
 1180              	.LVL74:
 251:user/htu21d/htu21d.c **** 
 1181              		.loc 1 251 25 view .LVU514
 1182 020a FFF7FEFF 		bl	__aeabi_f2uiz
 1183              	.LVL75:
 1184 020e 0346     		mov	r3, r0
 251:user/htu21d/htu21d.c **** 
 1185              		.loc 1 251 23 view .LVU515
 1186 0210 6C4E     		ldr	r6, .L60+16
 1187 0212 03EB8303 		add	r3, r3, r3, lsl #2
 1188 0216 5B00     		lsls	r3, r3, #1
 253:user/htu21d/htu21d.c **** 
 1189              		.loc 1 253 5 view .LVU516
ARM GAS  C:\Users\WENHUA~1\AppData\Local\Temp\cc11gPXD.s 			page 35


 1190 0218 0A20     		movs	r0, #10
 251:user/htu21d/htu21d.c **** 
 1191              		.loc 1 251 23 view .LVU517
 1192 021a 7380     		strh	r3, [r6, #2]	@ movhi
 253:user/htu21d/htu21d.c **** 
 1193              		.loc 1 253 5 is_stmt 1 view .LVU518
 1194 021c FFF7FEFF 		bl	HAL_Delay
 1195              	.LVL76:
 255:user/htu21d/htu21d.c ****     err = WriteByte(SlaveAddr | Write);
 1196              		.loc 1 255 5 view .LVU519
 1197              	.LBB204:
 1198              	.LBI204:
  87:user/htu21d/htu21d.c **** {
 1199              		.loc 1 87 13 view .LVU520
 1200              	.LBB205:
  89:user/htu21d/htu21d.c ****     DelayUs(HTU21D_I2C_DELAY);
 1201              		.loc 1 89 5 view .LVU521
  89:user/htu21d/htu21d.c ****     DelayUs(HTU21D_I2C_DELAY);
 1202              		.loc 1 89 5 view .LVU522
 1203 0220 0122     		movs	r2, #1
 1204 0222 8021     		movs	r1, #128
 1205 0224 6348     		ldr	r0, .L60
 1206 0226 FFF7FEFF 		bl	HAL_GPIO_WritePin
 1207              	.LVL77:
  89:user/htu21d/htu21d.c ****     DelayUs(HTU21D_I2C_DELAY);
 1208              		.loc 1 89 5 view .LVU523
  90:user/htu21d/htu21d.c ****     HTU21D_SCL_HIGH();
 1209              		.loc 1 90 5 view .LVU524
  90:user/htu21d/htu21d.c ****     HTU21D_SCL_HIGH();
 1210              		.loc 1 90 5 is_stmt 0 view .LVU525
 1211              	.LBE205:
 1212              	.LBE204:
  65:user/htu21d/htu21d.c **** 
 1213              		.loc 1 65 5 is_stmt 1 view .LVU526
  67:user/htu21d/htu21d.c **** }
 1214              		.loc 1 67 5 view .LVU527
  67:user/htu21d/htu21d.c **** }
 1215              		.loc 1 67 20 view .LVU528
  67:user/htu21d/htu21d.c **** }
 1216              		.loc 1 67 11 view .LVU529
 1217              	.LBB209:
 1218              	.LBB206:
  91:user/htu21d/htu21d.c ****     DelayUs(HTU21D_I2C_DELAY);
 1219              		.loc 1 91 5 view .LVU530
  91:user/htu21d/htu21d.c ****     DelayUs(HTU21D_I2C_DELAY);
 1220              		.loc 1 91 5 view .LVU531
 1221 022a 4021     		movs	r1, #64
 1222 022c 0122     		movs	r2, #1
 1223 022e 6148     		ldr	r0, .L60
 1224 0230 FFF7FEFF 		bl	HAL_GPIO_WritePin
 1225              	.LVL78:
  91:user/htu21d/htu21d.c ****     DelayUs(HTU21D_I2C_DELAY);
 1226              		.loc 1 91 5 view .LVU532
  92:user/htu21d/htu21d.c ****     HTU21D_SDA_LOW();
 1227              		.loc 1 92 5 view .LVU533
  92:user/htu21d/htu21d.c ****     HTU21D_SDA_LOW();
 1228              		.loc 1 92 5 is_stmt 0 view .LVU534
ARM GAS  C:\Users\WENHUA~1\AppData\Local\Temp\cc11gPXD.s 			page 36


 1229              	.LBE206:
 1230              	.LBE209:
  65:user/htu21d/htu21d.c **** 
 1231              		.loc 1 65 5 is_stmt 1 view .LVU535
  67:user/htu21d/htu21d.c **** }
 1232              		.loc 1 67 5 view .LVU536
  67:user/htu21d/htu21d.c **** }
 1233              		.loc 1 67 20 view .LVU537
  67:user/htu21d/htu21d.c **** }
 1234              		.loc 1 67 11 view .LVU538
 1235              	.LBB210:
 1236              	.LBB207:
  93:user/htu21d/htu21d.c ****     DelayUs(HTU21D_I2C_DELAY);
 1237              		.loc 1 93 5 view .LVU539
  93:user/htu21d/htu21d.c ****     DelayUs(HTU21D_I2C_DELAY);
 1238              		.loc 1 93 5 view .LVU540
 1239 0234 3A46     		mov	r2, r7
 1240 0236 8021     		movs	r1, #128
 1241 0238 5E48     		ldr	r0, .L60
 1242 023a FFF7FEFF 		bl	HAL_GPIO_WritePin
 1243              	.LVL79:
  93:user/htu21d/htu21d.c ****     DelayUs(HTU21D_I2C_DELAY);
 1244              		.loc 1 93 5 view .LVU541
  94:user/htu21d/htu21d.c ****     HTU21D_SCL_LOW();
 1245              		.loc 1 94 5 view .LVU542
  94:user/htu21d/htu21d.c ****     HTU21D_SCL_LOW();
 1246              		.loc 1 94 5 is_stmt 0 view .LVU543
 1247              	.LBE207:
 1248              	.LBE210:
  65:user/htu21d/htu21d.c **** 
 1249              		.loc 1 65 5 is_stmt 1 view .LVU544
  67:user/htu21d/htu21d.c **** }
 1250              		.loc 1 67 5 view .LVU545
  67:user/htu21d/htu21d.c **** }
 1251              		.loc 1 67 20 view .LVU546
  67:user/htu21d/htu21d.c **** }
 1252              		.loc 1 67 11 view .LVU547
 1253              	.LBB211:
 1254              	.LBB208:
  95:user/htu21d/htu21d.c ****     DelayUs(HTU21D_I2C_DELAY);
 1255              		.loc 1 95 5 view .LVU548
  95:user/htu21d/htu21d.c ****     DelayUs(HTU21D_I2C_DELAY);
 1256              		.loc 1 95 5 view .LVU549
 1257 023e 5D48     		ldr	r0, .L60
 1258 0240 3A46     		mov	r2, r7
 1259 0242 4021     		movs	r1, #64
 1260 0244 FFF7FEFF 		bl	HAL_GPIO_WritePin
 1261              	.LVL80:
  95:user/htu21d/htu21d.c ****     DelayUs(HTU21D_I2C_DELAY);
 1262              		.loc 1 95 5 view .LVU550
  96:user/htu21d/htu21d.c **** }
 1263              		.loc 1 96 5 view .LVU551
  96:user/htu21d/htu21d.c **** }
 1264              		.loc 1 96 5 is_stmt 0 view .LVU552
 1265              	.LBE208:
 1266              	.LBE211:
  65:user/htu21d/htu21d.c **** 
ARM GAS  C:\Users\WENHUA~1\AppData\Local\Temp\cc11gPXD.s 			page 37


 1267              		.loc 1 65 5 is_stmt 1 view .LVU553
  67:user/htu21d/htu21d.c **** }
 1268              		.loc 1 67 5 view .LVU554
  67:user/htu21d/htu21d.c **** }
 1269              		.loc 1 67 20 view .LVU555
  67:user/htu21d/htu21d.c **** }
 1270              		.loc 1 67 11 view .LVU556
 256:user/htu21d/htu21d.c ****     if (err == 0) {
 1271              		.loc 1 256 5 view .LVU557
 256:user/htu21d/htu21d.c ****     if (err == 0) {
 1272              		.loc 1 256 11 is_stmt 0 view .LVU558
 1273 0248 8020     		movs	r0, #128
 1274 024a FFF7FEFF 		bl	WriteByte
 1275              	.LVL81:
 257:user/htu21d/htu21d.c ****         goto i2c_fail;
 1276              		.loc 1 257 5 is_stmt 1 view .LVU559
 257:user/htu21d/htu21d.c ****         goto i2c_fail;
 1277              		.loc 1 257 8 is_stmt 0 view .LVU560
 1278 024e 0028     		cmp	r0, #0
 1279 0250 3FF4F2AE 		beq	.L23
 261:user/htu21d/htu21d.c ****     if (err == 0) {
 1280              		.loc 1 261 5 is_stmt 1 view .LVU561
 261:user/htu21d/htu21d.c ****     if (err == 0) {
 1281              		.loc 1 261 11 is_stmt 0 view .LVU562
 1282 0254 E320     		movs	r0, #227
 1283              	.LVL82:
 261:user/htu21d/htu21d.c ****     if (err == 0) {
 1284              		.loc 1 261 11 view .LVU563
 1285 0256 FFF7FEFF 		bl	WriteByte
 1286              	.LVL83:
 262:user/htu21d/htu21d.c ****         goto i2c_fail;
 1287              		.loc 1 262 5 is_stmt 1 view .LVU564
 262:user/htu21d/htu21d.c ****         goto i2c_fail;
 1288              		.loc 1 262 8 is_stmt 0 view .LVU565
 1289 025a 0028     		cmp	r0, #0
 1290 025c 3FF4ECAE 		beq	.L23
 266:user/htu21d/htu21d.c ****     err = WriteByte(SlaveAddr | Read);
 1291              		.loc 1 266 5 is_stmt 1 view .LVU566
 1292              	.LBB212:
 1293              	.LBI212:
  87:user/htu21d/htu21d.c **** {
 1294              		.loc 1 87 13 view .LVU567
 1295              	.LBB213:
  89:user/htu21d/htu21d.c ****     DelayUs(HTU21D_I2C_DELAY);
 1296              		.loc 1 89 5 view .LVU568
  89:user/htu21d/htu21d.c ****     DelayUs(HTU21D_I2C_DELAY);
 1297              		.loc 1 89 5 view .LVU569
 1298 0260 0122     		movs	r2, #1
 1299 0262 8021     		movs	r1, #128
 1300 0264 5348     		ldr	r0, .L60
 1301              	.LVL84:
  89:user/htu21d/htu21d.c ****     DelayUs(HTU21D_I2C_DELAY);
 1302              		.loc 1 89 5 is_stmt 0 view .LVU570
 1303 0266 FFF7FEFF 		bl	HAL_GPIO_WritePin
 1304              	.LVL85:
  89:user/htu21d/htu21d.c ****     DelayUs(HTU21D_I2C_DELAY);
 1305              		.loc 1 89 5 is_stmt 1 view .LVU571
ARM GAS  C:\Users\WENHUA~1\AppData\Local\Temp\cc11gPXD.s 			page 38


  90:user/htu21d/htu21d.c ****     HTU21D_SCL_HIGH();
 1306              		.loc 1 90 5 view .LVU572
  90:user/htu21d/htu21d.c ****     HTU21D_SCL_HIGH();
 1307              		.loc 1 90 5 is_stmt 0 view .LVU573
 1308              	.LBE213:
 1309              	.LBE212:
  65:user/htu21d/htu21d.c **** 
 1310              		.loc 1 65 5 is_stmt 1 view .LVU574
  67:user/htu21d/htu21d.c **** }
 1311              		.loc 1 67 5 view .LVU575
  67:user/htu21d/htu21d.c **** }
 1312              		.loc 1 67 20 view .LVU576
  67:user/htu21d/htu21d.c **** }
 1313              		.loc 1 67 11 view .LVU577
 1314              	.LBB217:
 1315              	.LBB214:
  91:user/htu21d/htu21d.c ****     DelayUs(HTU21D_I2C_DELAY);
 1316              		.loc 1 91 5 view .LVU578
  91:user/htu21d/htu21d.c ****     DelayUs(HTU21D_I2C_DELAY);
 1317              		.loc 1 91 5 view .LVU579
 1318 026a 4021     		movs	r1, #64
 1319 026c 0122     		movs	r2, #1
 1320 026e 5148     		ldr	r0, .L60
 1321 0270 FFF7FEFF 		bl	HAL_GPIO_WritePin
 1322              	.LVL86:
  91:user/htu21d/htu21d.c ****     DelayUs(HTU21D_I2C_DELAY);
 1323              		.loc 1 91 5 view .LVU580
  92:user/htu21d/htu21d.c ****     HTU21D_SDA_LOW();
 1324              		.loc 1 92 5 view .LVU581
  92:user/htu21d/htu21d.c ****     HTU21D_SDA_LOW();
 1325              		.loc 1 92 5 is_stmt 0 view .LVU582
 1326              	.LBE214:
 1327              	.LBE217:
  65:user/htu21d/htu21d.c **** 
 1328              		.loc 1 65 5 is_stmt 1 view .LVU583
  67:user/htu21d/htu21d.c **** }
 1329              		.loc 1 67 5 view .LVU584
  67:user/htu21d/htu21d.c **** }
 1330              		.loc 1 67 20 view .LVU585
  67:user/htu21d/htu21d.c **** }
 1331              		.loc 1 67 11 view .LVU586
 1332              	.LBB218:
 1333              	.LBB215:
  93:user/htu21d/htu21d.c ****     DelayUs(HTU21D_I2C_DELAY);
 1334              		.loc 1 93 5 view .LVU587
  93:user/htu21d/htu21d.c ****     DelayUs(HTU21D_I2C_DELAY);
 1335              		.loc 1 93 5 view .LVU588
 1336 0274 3A46     		mov	r2, r7
 1337 0276 8021     		movs	r1, #128
 1338 0278 4E48     		ldr	r0, .L60
 1339 027a FFF7FEFF 		bl	HAL_GPIO_WritePin
 1340              	.LVL87:
  93:user/htu21d/htu21d.c ****     DelayUs(HTU21D_I2C_DELAY);
 1341              		.loc 1 93 5 view .LVU589
  94:user/htu21d/htu21d.c ****     HTU21D_SCL_LOW();
 1342              		.loc 1 94 5 view .LVU590
  94:user/htu21d/htu21d.c ****     HTU21D_SCL_LOW();
ARM GAS  C:\Users\WENHUA~1\AppData\Local\Temp\cc11gPXD.s 			page 39


 1343              		.loc 1 94 5 is_stmt 0 view .LVU591
 1344              	.LBE215:
 1345              	.LBE218:
  65:user/htu21d/htu21d.c **** 
 1346              		.loc 1 65 5 is_stmt 1 view .LVU592
  67:user/htu21d/htu21d.c **** }
 1347              		.loc 1 67 5 view .LVU593
  67:user/htu21d/htu21d.c **** }
 1348              		.loc 1 67 20 view .LVU594
  67:user/htu21d/htu21d.c **** }
 1349              		.loc 1 67 11 view .LVU595
 1350              	.LBB219:
 1351              	.LBB216:
  95:user/htu21d/htu21d.c ****     DelayUs(HTU21D_I2C_DELAY);
 1352              		.loc 1 95 5 view .LVU596
  95:user/htu21d/htu21d.c ****     DelayUs(HTU21D_I2C_DELAY);
 1353              		.loc 1 95 5 view .LVU597
 1354 027e 4D48     		ldr	r0, .L60
 1355 0280 3A46     		mov	r2, r7
 1356 0282 4021     		movs	r1, #64
 1357 0284 FFF7FEFF 		bl	HAL_GPIO_WritePin
 1358              	.LVL88:
  95:user/htu21d/htu21d.c ****     DelayUs(HTU21D_I2C_DELAY);
 1359              		.loc 1 95 5 view .LVU598
  96:user/htu21d/htu21d.c **** }
 1360              		.loc 1 96 5 view .LVU599
  96:user/htu21d/htu21d.c **** }
 1361              		.loc 1 96 5 is_stmt 0 view .LVU600
 1362              	.LBE216:
 1363              	.LBE219:
  65:user/htu21d/htu21d.c **** 
 1364              		.loc 1 65 5 is_stmt 1 view .LVU601
  67:user/htu21d/htu21d.c **** }
 1365              		.loc 1 67 5 view .LVU602
  67:user/htu21d/htu21d.c **** }
 1366              		.loc 1 67 20 view .LVU603
  67:user/htu21d/htu21d.c **** }
 1367              		.loc 1 67 11 view .LVU604
 267:user/htu21d/htu21d.c ****     if (err == 0) {
 1368              		.loc 1 267 5 view .LVU605
 267:user/htu21d/htu21d.c ****     if (err == 0) {
 1369              		.loc 1 267 11 is_stmt 0 view .LVU606
 1370 0288 8120     		movs	r0, #129
 1371 028a FFF7FEFF 		bl	WriteByte
 1372              	.LVL89:
 268:user/htu21d/htu21d.c ****         goto i2c_fail;
 1373              		.loc 1 268 5 is_stmt 1 view .LVU607
 268:user/htu21d/htu21d.c ****         goto i2c_fail;
 1374              		.loc 1 268 8 is_stmt 0 view .LVU608
 1375 028e 0028     		cmp	r0, #0
 1376 0290 3FF4D2AE 		beq	.L23
 272:user/htu21d/htu21d.c ****     temp_data = ReadByte();
 1377              		.loc 1 272 5 is_stmt 1 view .LVU609
 1378 0294 3C20     		movs	r0, #60
 1379              	.LVL90:
 272:user/htu21d/htu21d.c ****     temp_data = ReadByte();
 1380              		.loc 1 272 5 is_stmt 0 view .LVU610
ARM GAS  C:\Users\WENHUA~1\AppData\Local\Temp\cc11gPXD.s 			page 40


 1381 0296 FFF7FEFF 		bl	HAL_Delay
 1382              	.LVL91:
 273:user/htu21d/htu21d.c ****     temp_data = temp_data << 8;
 1383              		.loc 1 273 5 is_stmt 1 view .LVU611
 1384              	.LBB220:
 1385              	.LBI220:
 198:user/htu21d/htu21d.c **** {
 1386              		.loc 1 198 16 view .LVU612
 1387              	.LBB221:
 200:user/htu21d/htu21d.c ****     uint8_t i;
 1388              		.loc 1 200 5 view .LVU613
 201:user/htu21d/htu21d.c **** 
 1389              		.loc 1 201 5 view .LVU614
 203:user/htu21d/htu21d.c ****     for (i = 0; i < 8; i++) {
 1390              		.loc 1 203 5 view .LVU615
 203:user/htu21d/htu21d.c ****     for (i = 0; i < 8; i++) {
 1391              		.loc 1 203 5 view .LVU616
 1392              	.LBB222:
 1393              	.LBI222:
  70:user/htu21d/htu21d.c **** {
 1394              		.loc 1 70 13 view .LVU617
 1395              	.LBB223:
  72:user/htu21d/htu21d.c **** 
 1396              		.loc 1 72 5 view .LVU618
  74:user/htu21d/htu21d.c ****         GPIO_InitStructure.Pin = HTU21D_SDA_Pin;
 1397              		.loc 1 74 5 view .LVU619
  80:user/htu21d/htu21d.c ****         GPIO_InitStructure.Mode = GPIO_MODE_INPUT;
 1398              		.loc 1 80 9 view .LVU620
  81:user/htu21d/htu21d.c ****         GPIO_InitStructure.Pull = GPIO_PULLUP;
 1399              		.loc 1 81 9 view .LVU621
  82:user/htu21d/htu21d.c ****         HAL_GPIO_Init(HTU21D_SDA_GPIO_Port, &GPIO_InitStructure);
 1400              		.loc 1 82 33 is_stmt 0 view .LVU622
 1401 029a 0121     		movs	r1, #1
  80:user/htu21d/htu21d.c ****         GPIO_InitStructure.Mode = GPIO_MODE_INPUT;
 1402              		.loc 1 80 32 view .LVU623
 1403 029c 8022     		movs	r2, #128
 1404 029e 0023     		movs	r3, #0
  82:user/htu21d/htu21d.c ****         HAL_GPIO_Init(HTU21D_SDA_GPIO_Port, &GPIO_InitStructure);
 1405              		.loc 1 82 33 view .LVU624
 1406 02a0 0291     		str	r1, [sp, #8]
  83:user/htu21d/htu21d.c ****     }
 1407              		.loc 1 83 9 view .LVU625
 1408 02a2 4448     		ldr	r0, .L60
 1409 02a4 6946     		mov	r1, sp
  80:user/htu21d/htu21d.c ****         GPIO_InitStructure.Mode = GPIO_MODE_INPUT;
 1410              		.loc 1 80 32 view .LVU626
 1411 02a6 CDE90023 		strd	r2, [sp]
  82:user/htu21d/htu21d.c ****         HAL_GPIO_Init(HTU21D_SDA_GPIO_Port, &GPIO_InitStructure);
 1412              		.loc 1 82 9 is_stmt 1 view .LVU627
  83:user/htu21d/htu21d.c ****     }
 1413              		.loc 1 83 9 view .LVU628
 1414 02aa 0824     		movs	r4, #8
 1415 02ac FFF7FEFF 		bl	HAL_GPIO_Init
 1416              	.LVL92:
  83:user/htu21d/htu21d.c ****     }
 1417              		.loc 1 83 9 is_stmt 0 view .LVU629
 1418              	.LBE223:
ARM GAS  C:\Users\WENHUA~1\AppData\Local\Temp\cc11gPXD.s 			page 41


 1419              	.LBE222:
 203:user/htu21d/htu21d.c ****     for (i = 0; i < 8; i++) {
 1420              		.loc 1 203 5 is_stmt 1 view .LVU630
 204:user/htu21d/htu21d.c ****         HTU21D_SCL_HIGH();
 1421              		.loc 1 204 5 view .LVU631
 204:user/htu21d/htu21d.c ****         HTU21D_SCL_HIGH();
 1422              		.loc 1 204 17 view .LVU632
 205:user/htu21d/htu21d.c ****         DelayUs(HTU21D_I2C_DELAY);
 1423              		.loc 1 205 9 is_stmt 0 view .LVU633
 1424 02b0 404D     		ldr	r5, .L60
 1425              	.LVL93:
 1426              	.L29:
 205:user/htu21d/htu21d.c ****         DelayUs(HTU21D_I2C_DELAY);
 1427              		.loc 1 205 9 is_stmt 1 view .LVU634
 205:user/htu21d/htu21d.c ****         DelayUs(HTU21D_I2C_DELAY);
 1428              		.loc 1 205 9 view .LVU635
 1429 02b2 0122     		movs	r2, #1
 1430 02b4 4021     		movs	r1, #64
 1431 02b6 2846     		mov	r0, r5
 1432 02b8 FFF7FEFF 		bl	HAL_GPIO_WritePin
 1433              	.LVL94:
 205:user/htu21d/htu21d.c ****         DelayUs(HTU21D_I2C_DELAY);
 1434              		.loc 1 205 9 view .LVU636
 206:user/htu21d/htu21d.c ****         value <<= 1;
 1435              		.loc 1 206 9 view .LVU637
 206:user/htu21d/htu21d.c ****         value <<= 1;
 1436              		.loc 1 206 9 is_stmt 0 view .LVU638
 1437              	.LBE221:
 1438              	.LBE220:
  65:user/htu21d/htu21d.c **** 
 1439              		.loc 1 65 5 is_stmt 1 view .LVU639
  67:user/htu21d/htu21d.c **** }
 1440              		.loc 1 67 5 view .LVU640
  67:user/htu21d/htu21d.c **** }
 1441              		.loc 1 67 20 view .LVU641
  67:user/htu21d/htu21d.c **** }
 1442              		.loc 1 67 11 view .LVU642
 1443              	.LBB234:
 1444              	.LBB232:
 207:user/htu21d/htu21d.c ****         if (HAL_GPIO_ReadPin(HTU21D_SDA_GPIO_Port, HTU21D_SDA_Pin) == GPIO_PIN_SET) {
 1445              		.loc 1 207 9 view .LVU643
 207:user/htu21d/htu21d.c ****         if (HAL_GPIO_ReadPin(HTU21D_SDA_GPIO_Port, HTU21D_SDA_Pin) == GPIO_PIN_SET) {
 1446              		.loc 1 207 15 is_stmt 0 view .LVU644
 1447 02bc 7A00     		lsls	r2, r7, #1
 208:user/htu21d/htu21d.c ****             value += 1;
 1448              		.loc 1 208 13 view .LVU645
 1449 02be 8021     		movs	r1, #128
 1450 02c0 2846     		mov	r0, r5
 207:user/htu21d/htu21d.c ****         if (HAL_GPIO_ReadPin(HTU21D_SDA_GPIO_Port, HTU21D_SDA_Pin) == GPIO_PIN_SET) {
 1451              		.loc 1 207 15 view .LVU646
 1452 02c2 D7B2     		uxtb	r7, r2
 1453              	.LVL95:
 208:user/htu21d/htu21d.c ****             value += 1;
 1454              		.loc 1 208 9 is_stmt 1 view .LVU647
 208:user/htu21d/htu21d.c ****             value += 1;
 1455              		.loc 1 208 13 is_stmt 0 view .LVU648
 1456 02c4 FFF7FEFF 		bl	HAL_GPIO_ReadPin
ARM GAS  C:\Users\WENHUA~1\AppData\Local\Temp\cc11gPXD.s 			page 42


 1457              	.LVL96:
 1458 02c8 0346     		mov	r3, r0
 208:user/htu21d/htu21d.c ****             value += 1;
 1459              		.loc 1 208 12 view .LVU649
 1460 02ca 012B     		cmp	r3, #1
 209:user/htu21d/htu21d.c ****         }
 1461              		.loc 1 209 13 is_stmt 1 view .LVU650
 209:user/htu21d/htu21d.c ****         }
 1462              		.loc 1 209 19 is_stmt 0 view .LVU651
 1463 02cc 08BF     		it	eq
 1464 02ce 0137     		addeq	r7, r7, #1
 1465              	.LVL97:
 211:user/htu21d/htu21d.c ****     }
 1466              		.loc 1 211 9 view .LVU652
 1467 02d0 4FF00002 		mov	r2, #0
 1468 02d4 4FF04001 		mov	r1, #64
 1469 02d8 2846     		mov	r0, r5
 204:user/htu21d/htu21d.c ****         HTU21D_SCL_HIGH();
 1470              		.loc 1 204 5 view .LVU653
 1471 02da 04F1FF34 		add	r4, r4, #-1
 209:user/htu21d/htu21d.c ****         }
 1472              		.loc 1 209 19 view .LVU654
 1473 02de 08BF     		it	eq
 1474 02e0 FFB2     		uxtbeq	r7, r7
 1475              	.LVL98:
 211:user/htu21d/htu21d.c ****     }
 1476              		.loc 1 211 9 is_stmt 1 view .LVU655
 211:user/htu21d/htu21d.c ****     }
 1477              		.loc 1 211 9 view .LVU656
 1478 02e2 FFF7FEFF 		bl	HAL_GPIO_WritePin
 1479              	.LVL99:
 211:user/htu21d/htu21d.c ****     }
 1480              		.loc 1 211 9 view .LVU657
 204:user/htu21d/htu21d.c ****         HTU21D_SCL_HIGH();
 1481              		.loc 1 204 24 view .LVU658
 204:user/htu21d/htu21d.c ****         HTU21D_SCL_HIGH();
 1482              		.loc 1 204 17 view .LVU659
 204:user/htu21d/htu21d.c ****         HTU21D_SCL_HIGH();
 1483              		.loc 1 204 5 is_stmt 0 view .LVU660
 1484 02e6 14F0FF04 		ands	r4, r4, #255
 1485 02ea E2D1     		bne	.L29
 213:user/htu21d/htu21d.c **** 
 1486              		.loc 1 213 5 is_stmt 1 view .LVU661
 213:user/htu21d/htu21d.c **** 
 1487              		.loc 1 213 5 view .LVU662
 1488              	.LVL100:
 1489              	.LBB224:
 1490              	.LBI224:
  70:user/htu21d/htu21d.c **** {
 1491              		.loc 1 70 13 view .LVU663
 1492              	.LBB225:
  72:user/htu21d/htu21d.c **** 
 1493              		.loc 1 72 5 view .LVU664
  74:user/htu21d/htu21d.c ****         GPIO_InitStructure.Pin = HTU21D_SDA_Pin;
 1494              		.loc 1 74 5 view .LVU665
 1495              	.LBB226:
 1496              	.LBI226:
ARM GAS  C:\Users\WENHUA~1\AppData\Local\Temp\cc11gPXD.s 			page 43


  70:user/htu21d/htu21d.c **** {
 1497              		.loc 1 70 13 view .LVU666
 1498              	.LBB227:
  75:user/htu21d/htu21d.c ****         GPIO_InitStructure.Mode = GPIO_MODE_OUTPUT_OD;
 1499              		.loc 1 75 9 view .LVU667
  76:user/htu21d/htu21d.c ****         GPIO_InitStructure.Speed = GPIO_SPEED_FREQ_LOW;
 1500              		.loc 1 76 9 view .LVU668
  75:user/htu21d/htu21d.c ****         GPIO_InitStructure.Mode = GPIO_MODE_OUTPUT_OD;
 1501              		.loc 1 75 32 is_stmt 0 view .LVU669
 1502 02ec 8022     		movs	r2, #128
 1503 02ee 1123     		movs	r3, #17
  78:user/htu21d/htu21d.c ****     } else {
 1504              		.loc 1 78 9 view .LVU670
 1505 02f0 3048     		ldr	r0, .L60
  75:user/htu21d/htu21d.c ****         GPIO_InitStructure.Mode = GPIO_MODE_OUTPUT_OD;
 1506              		.loc 1 75 32 view .LVU671
 1507 02f2 CDE90023 		strd	r2, [sp]
  77:user/htu21d/htu21d.c ****         HAL_GPIO_Init(HTU21D_SDA_GPIO_Port, &GPIO_InitStructure);
 1508              		.loc 1 77 9 is_stmt 1 view .LVU672
 1509              	.LBE227:
 1510              	.LBE226:
 1511              	.LBE225:
 1512              	.LBE224:
 1513              	.LBE232:
 1514              	.LBE234:
 1515              	.LBB235:
 1516              	.LBB236:
 205:user/htu21d/htu21d.c ****         DelayUs(HTU21D_I2C_DELAY);
 1517              		.loc 1 205 9 is_stmt 0 view .LVU673
 1518 02f6 0546     		mov	r5, r0
 1519              	.LBE236:
 1520              	.LBE235:
 1521              	.LBB248:
 1522              	.LBB233:
 1523              	.LBB231:
 1524              	.LBB230:
 1525              	.LBB229:
 1526              	.LBB228:
  77:user/htu21d/htu21d.c ****         HAL_GPIO_Init(HTU21D_SDA_GPIO_Port, &GPIO_InitStructure);
 1527              		.loc 1 77 34 view .LVU674
 1528 02f8 0223     		movs	r3, #2
  78:user/htu21d/htu21d.c ****     } else {
 1529              		.loc 1 78 9 view .LVU675
 1530 02fa 6946     		mov	r1, sp
  77:user/htu21d/htu21d.c ****         HAL_GPIO_Init(HTU21D_SDA_GPIO_Port, &GPIO_InitStructure);
 1531              		.loc 1 77 34 view .LVU676
 1532 02fc 0393     		str	r3, [sp, #12]
  78:user/htu21d/htu21d.c ****     } else {
 1533              		.loc 1 78 9 is_stmt 1 view .LVU677
 1534 02fe FFF7FEFF 		bl	HAL_GPIO_Init
 1535              	.LVL101:
  78:user/htu21d/htu21d.c ****     } else {
 1536              		.loc 1 78 9 is_stmt 0 view .LVU678
 1537              	.LBE228:
 1538              	.LBE229:
 1539              	.LBE230:
 1540              	.LBE231:
ARM GAS  C:\Users\WENHUA~1\AppData\Local\Temp\cc11gPXD.s 			page 44


 213:user/htu21d/htu21d.c **** 
 1541              		.loc 1 213 5 is_stmt 1 view .LVU679
 215:user/htu21d/htu21d.c **** }
 1542              		.loc 1 215 5 view .LVU680
 215:user/htu21d/htu21d.c **** }
 1543              		.loc 1 215 5 is_stmt 0 view .LVU681
 1544              	.LBE233:
 1545              	.LBE248:
 274:user/htu21d/htu21d.c ****     AckBus();
 1546              		.loc 1 274 5 is_stmt 1 view .LVU682
 1547              	.LBB249:
 1548              	.LBB250:
 111:user/htu21d/htu21d.c ****     DelayUs(HTU21D_I2C_DELAY);
 1549              		.loc 1 111 5 is_stmt 0 view .LVU683
 1550 0302 8021     		movs	r1, #128
 1551 0304 2846     		mov	r0, r5
 1552 0306 2246     		mov	r2, r4
 1553 0308 FFF7FEFF 		bl	HAL_GPIO_WritePin
 1554              	.LVL102:
 113:user/htu21d/htu21d.c ****     DelayUs(HTU21D_I2C_DELAY);
 1555              		.loc 1 113 5 view .LVU684
 1556 030c 2246     		mov	r2, r4
 1557 030e 4021     		movs	r1, #64
 1558 0310 2846     		mov	r0, r5
 1559 0312 FFF7FEFF 		bl	HAL_GPIO_WritePin
 1560              	.LVL103:
 115:user/htu21d/htu21d.c ****     DelayUs(HTU21D_I2C_DELAY);
 1561              		.loc 1 115 5 view .LVU685
 1562 0316 4021     		movs	r1, #64
 1563 0318 2846     		mov	r0, r5
 1564 031a 0122     		movs	r2, #1
 1565 031c FFF7FEFF 		bl	HAL_GPIO_WritePin
 1566              	.LVL104:
 117:user/htu21d/htu21d.c ****     DelayUs(HTU21D_I2C_DELAY);
 1567              		.loc 1 117 5 view .LVU686
 1568 0320 2246     		mov	r2, r4
 1569 0322 4021     		movs	r1, #64
 1570 0324 2846     		mov	r0, r5
 1571 0326 FFF7FEFF 		bl	HAL_GPIO_WritePin
 1572              	.LVL105:
 119:user/htu21d/htu21d.c ****     DelayUs(HTU21D_I2C_DELAY);
 1573              		.loc 1 119 5 view .LVU687
 1574 032a 0122     		movs	r2, #1
 1575 032c 8021     		movs	r1, #128
 1576 032e 2846     		mov	r0, r5
 1577 0330 FFF7FEFF 		bl	HAL_GPIO_WritePin
 1578              	.LVL106:
 1579              	.LBE250:
 1580              	.LBE249:
 1581              	.LBB256:
 1582              	.LBB245:
 1583              	.LBB237:
 1584              	.LBB238:
  82:user/htu21d/htu21d.c ****         HAL_GPIO_Init(HTU21D_SDA_GPIO_Port, &GPIO_InitStructure);
 1585              		.loc 1 82 33 view .LVU688
 1586 0334 0123     		movs	r3, #1
  80:user/htu21d/htu21d.c ****         GPIO_InitStructure.Mode = GPIO_MODE_INPUT;
ARM GAS  C:\Users\WENHUA~1\AppData\Local\Temp\cc11gPXD.s 			page 45


 1587              		.loc 1 80 32 view .LVU689
 1588 0336 8022     		movs	r2, #128
  82:user/htu21d/htu21d.c ****         HAL_GPIO_Init(HTU21D_SDA_GPIO_Port, &GPIO_InitStructure);
 1589              		.loc 1 82 33 view .LVU690
 1590 0338 0293     		str	r3, [sp, #8]
  80:user/htu21d/htu21d.c ****         GPIO_InitStructure.Mode = GPIO_MODE_INPUT;
 1591              		.loc 1 80 32 view .LVU691
 1592 033a 0023     		movs	r3, #0
  83:user/htu21d/htu21d.c ****     }
 1593              		.loc 1 83 9 view .LVU692
 1594 033c 6946     		mov	r1, sp
 1595 033e 2846     		mov	r0, r5
 1596              	.LBE238:
 1597              	.LBE237:
 1598              	.LBE245:
 1599              	.LBE256:
 274:user/htu21d/htu21d.c ****     AckBus();
 1600              		.loc 1 274 15 view .LVU693
 1601 0340 4FEA0728 		lsl	r8, r7, #8
 1602              	.LVL107:
 275:user/htu21d/htu21d.c ****     temp_data += ReadByte();
 1603              		.loc 1 275 5 is_stmt 1 view .LVU694
 1604              	.LBB257:
 1605              	.LBI249:
 109:user/htu21d/htu21d.c **** {
 1606              		.loc 1 109 13 view .LVU695
 1607              	.LBB251:
 111:user/htu21d/htu21d.c ****     DelayUs(HTU21D_I2C_DELAY);
 1608              		.loc 1 111 5 view .LVU696
 111:user/htu21d/htu21d.c ****     DelayUs(HTU21D_I2C_DELAY);
 1609              		.loc 1 111 5 view .LVU697
 111:user/htu21d/htu21d.c ****     DelayUs(HTU21D_I2C_DELAY);
 1610              		.loc 1 111 5 view .LVU698
 112:user/htu21d/htu21d.c ****     HTU21D_SCL_LOW();
 1611              		.loc 1 112 5 view .LVU699
 112:user/htu21d/htu21d.c ****     HTU21D_SCL_LOW();
 1612              		.loc 1 112 5 is_stmt 0 view .LVU700
 1613              	.LBE251:
 1614              	.LBE257:
  65:user/htu21d/htu21d.c **** 
 1615              		.loc 1 65 5 is_stmt 1 view .LVU701
  67:user/htu21d/htu21d.c **** }
 1616              		.loc 1 67 5 view .LVU702
  67:user/htu21d/htu21d.c **** }
 1617              		.loc 1 67 20 view .LVU703
  67:user/htu21d/htu21d.c **** }
 1618              		.loc 1 67 11 view .LVU704
 1619              	.LBB258:
 1620              	.LBB252:
 113:user/htu21d/htu21d.c ****     DelayUs(HTU21D_I2C_DELAY);
 1621              		.loc 1 113 5 view .LVU705
 113:user/htu21d/htu21d.c ****     DelayUs(HTU21D_I2C_DELAY);
 1622              		.loc 1 113 5 view .LVU706
 113:user/htu21d/htu21d.c ****     DelayUs(HTU21D_I2C_DELAY);
 1623              		.loc 1 113 5 view .LVU707
 114:user/htu21d/htu21d.c ****     HTU21D_SCL_HIGH();
 1624              		.loc 1 114 5 view .LVU708
ARM GAS  C:\Users\WENHUA~1\AppData\Local\Temp\cc11gPXD.s 			page 46


 114:user/htu21d/htu21d.c ****     HTU21D_SCL_HIGH();
 1625              		.loc 1 114 5 is_stmt 0 view .LVU709
 1626              	.LBE252:
 1627              	.LBE258:
  65:user/htu21d/htu21d.c **** 
 1628              		.loc 1 65 5 is_stmt 1 view .LVU710
  67:user/htu21d/htu21d.c **** }
 1629              		.loc 1 67 5 view .LVU711
  67:user/htu21d/htu21d.c **** }
 1630              		.loc 1 67 20 view .LVU712
  67:user/htu21d/htu21d.c **** }
 1631              		.loc 1 67 11 view .LVU713
 1632              	.LBB259:
 1633              	.LBB253:
 115:user/htu21d/htu21d.c ****     DelayUs(HTU21D_I2C_DELAY);
 1634              		.loc 1 115 5 view .LVU714
 115:user/htu21d/htu21d.c ****     DelayUs(HTU21D_I2C_DELAY);
 1635              		.loc 1 115 5 view .LVU715
 115:user/htu21d/htu21d.c ****     DelayUs(HTU21D_I2C_DELAY);
 1636              		.loc 1 115 5 view .LVU716
 116:user/htu21d/htu21d.c ****     HTU21D_SCL_LOW();
 1637              		.loc 1 116 5 view .LVU717
 116:user/htu21d/htu21d.c ****     HTU21D_SCL_LOW();
 1638              		.loc 1 116 5 is_stmt 0 view .LVU718
 1639              	.LBE253:
 1640              	.LBE259:
  65:user/htu21d/htu21d.c **** 
 1641              		.loc 1 65 5 is_stmt 1 view .LVU719
  67:user/htu21d/htu21d.c **** }
 1642              		.loc 1 67 5 view .LVU720
  67:user/htu21d/htu21d.c **** }
 1643              		.loc 1 67 20 view .LVU721
  67:user/htu21d/htu21d.c **** }
 1644              		.loc 1 67 11 view .LVU722
 1645              	.LBB260:
 1646              	.LBB254:
 117:user/htu21d/htu21d.c ****     DelayUs(HTU21D_I2C_DELAY);
 1647              		.loc 1 117 5 view .LVU723
 117:user/htu21d/htu21d.c ****     DelayUs(HTU21D_I2C_DELAY);
 1648              		.loc 1 117 5 view .LVU724
 117:user/htu21d/htu21d.c ****     DelayUs(HTU21D_I2C_DELAY);
 1649              		.loc 1 117 5 view .LVU725
 118:user/htu21d/htu21d.c ****     HTU21D_SDA_HIGH();
 1650              		.loc 1 118 5 view .LVU726
 118:user/htu21d/htu21d.c ****     HTU21D_SDA_HIGH();
 1651              		.loc 1 118 5 is_stmt 0 view .LVU727
 1652              	.LBE254:
 1653              	.LBE260:
  65:user/htu21d/htu21d.c **** 
 1654              		.loc 1 65 5 is_stmt 1 view .LVU728
  67:user/htu21d/htu21d.c **** }
 1655              		.loc 1 67 5 view .LVU729
  67:user/htu21d/htu21d.c **** }
 1656              		.loc 1 67 20 view .LVU730
  67:user/htu21d/htu21d.c **** }
 1657              		.loc 1 67 11 view .LVU731
 1658              	.LBB261:
ARM GAS  C:\Users\WENHUA~1\AppData\Local\Temp\cc11gPXD.s 			page 47


 1659              	.LBB255:
 119:user/htu21d/htu21d.c ****     DelayUs(HTU21D_I2C_DELAY);
 1660              		.loc 1 119 5 view .LVU732
 119:user/htu21d/htu21d.c ****     DelayUs(HTU21D_I2C_DELAY);
 1661              		.loc 1 119 5 view .LVU733
 119:user/htu21d/htu21d.c ****     DelayUs(HTU21D_I2C_DELAY);
 1662              		.loc 1 119 5 view .LVU734
 120:user/htu21d/htu21d.c **** }
 1663              		.loc 1 120 5 view .LVU735
 120:user/htu21d/htu21d.c **** }
 1664              		.loc 1 120 5 is_stmt 0 view .LVU736
 1665              	.LBE255:
 1666              	.LBE261:
  65:user/htu21d/htu21d.c **** 
 1667              		.loc 1 65 5 is_stmt 1 view .LVU737
  67:user/htu21d/htu21d.c **** }
 1668              		.loc 1 67 5 view .LVU738
  67:user/htu21d/htu21d.c **** }
 1669              		.loc 1 67 20 view .LVU739
  67:user/htu21d/htu21d.c **** }
 1670              		.loc 1 67 11 view .LVU740
 276:user/htu21d/htu21d.c ****     NoAckBus();
 1671              		.loc 1 276 5 view .LVU741
 1672              	.LBB262:
 1673              	.LBI235:
 198:user/htu21d/htu21d.c **** {
 1674              		.loc 1 198 16 view .LVU742
 1675              	.LBB246:
 200:user/htu21d/htu21d.c ****     uint8_t i;
 1676              		.loc 1 200 5 view .LVU743
 201:user/htu21d/htu21d.c **** 
 1677              		.loc 1 201 5 view .LVU744
 203:user/htu21d/htu21d.c ****     for (i = 0; i < 8; i++) {
 1678              		.loc 1 203 5 view .LVU745
 203:user/htu21d/htu21d.c ****     for (i = 0; i < 8; i++) {
 1679              		.loc 1 203 5 view .LVU746
 1680              	.LBB240:
 1681              	.LBI237:
  70:user/htu21d/htu21d.c **** {
 1682              		.loc 1 70 13 view .LVU747
 1683              	.LBB239:
  72:user/htu21d/htu21d.c **** 
 1684              		.loc 1 72 5 view .LVU748
  74:user/htu21d/htu21d.c ****         GPIO_InitStructure.Pin = HTU21D_SDA_Pin;
 1685              		.loc 1 74 5 view .LVU749
  80:user/htu21d/htu21d.c ****         GPIO_InitStructure.Mode = GPIO_MODE_INPUT;
 1686              		.loc 1 80 9 view .LVU750
  81:user/htu21d/htu21d.c ****         GPIO_InitStructure.Pull = GPIO_PULLUP;
 1687              		.loc 1 81 9 view .LVU751
  80:user/htu21d/htu21d.c ****         GPIO_InitStructure.Mode = GPIO_MODE_INPUT;
 1688              		.loc 1 80 32 is_stmt 0 view .LVU752
 1689 0344 CDE90023 		strd	r2, [sp]
  82:user/htu21d/htu21d.c ****         HAL_GPIO_Init(HTU21D_SDA_GPIO_Port, &GPIO_InitStructure);
 1690              		.loc 1 82 9 is_stmt 1 view .LVU753
  83:user/htu21d/htu21d.c ****     }
 1691              		.loc 1 83 9 view .LVU754
 1692 0348 0827     		movs	r7, #8
ARM GAS  C:\Users\WENHUA~1\AppData\Local\Temp\cc11gPXD.s 			page 48


 1693 034a FFF7FEFF 		bl	HAL_GPIO_Init
 1694              	.LVL108:
  83:user/htu21d/htu21d.c ****     }
 1695              		.loc 1 83 9 is_stmt 0 view .LVU755
 1696              	.LBE239:
 1697              	.LBE240:
 203:user/htu21d/htu21d.c ****     for (i = 0; i < 8; i++) {
 1698              		.loc 1 203 5 is_stmt 1 view .LVU756
 204:user/htu21d/htu21d.c ****         HTU21D_SCL_HIGH();
 1699              		.loc 1 204 5 view .LVU757
 204:user/htu21d/htu21d.c ****         HTU21D_SCL_HIGH();
 1700              		.loc 1 204 17 view .LVU758
 1701              	.L31:
 205:user/htu21d/htu21d.c ****         DelayUs(HTU21D_I2C_DELAY);
 1702              		.loc 1 205 9 view .LVU759
 205:user/htu21d/htu21d.c ****         DelayUs(HTU21D_I2C_DELAY);
 1703              		.loc 1 205 9 view .LVU760
 1704 034e 0122     		movs	r2, #1
 1705 0350 4021     		movs	r1, #64
 1706 0352 2846     		mov	r0, r5
 1707 0354 FFF7FEFF 		bl	HAL_GPIO_WritePin
 1708              	.LVL109:
 205:user/htu21d/htu21d.c ****         DelayUs(HTU21D_I2C_DELAY);
 1709              		.loc 1 205 9 view .LVU761
 206:user/htu21d/htu21d.c ****         value <<= 1;
 1710              		.loc 1 206 9 view .LVU762
 206:user/htu21d/htu21d.c ****         value <<= 1;
 1711              		.loc 1 206 9 is_stmt 0 view .LVU763
 1712              	.LBE246:
 1713              	.LBE262:
  65:user/htu21d/htu21d.c **** 
 1714              		.loc 1 65 5 is_stmt 1 view .LVU764
  67:user/htu21d/htu21d.c **** }
 1715              		.loc 1 67 5 view .LVU765
  67:user/htu21d/htu21d.c **** }
 1716              		.loc 1 67 20 view .LVU766
  67:user/htu21d/htu21d.c **** }
 1717              		.loc 1 67 11 view .LVU767
 1718              	.LBB263:
 1719              	.LBB247:
 207:user/htu21d/htu21d.c ****         if (HAL_GPIO_ReadPin(HTU21D_SDA_GPIO_Port, HTU21D_SDA_Pin) == GPIO_PIN_SET) {
 1720              		.loc 1 207 9 view .LVU768
 208:user/htu21d/htu21d.c ****             value += 1;
 1721              		.loc 1 208 13 is_stmt 0 view .LVU769
 1722 0358 8021     		movs	r1, #128
 1723 035a 2846     		mov	r0, r5
 1724 035c FFF7FEFF 		bl	HAL_GPIO_ReadPin
 1725              	.LVL110:
 1726 0360 0346     		mov	r3, r0
 207:user/htu21d/htu21d.c ****         if (HAL_GPIO_ReadPin(HTU21D_SDA_GPIO_Port, HTU21D_SDA_Pin) == GPIO_PIN_SET) {
 1727              		.loc 1 207 15 view .LVU770
 1728 0362 6400     		lsls	r4, r4, #1
 1729              	.LVL111:
 208:user/htu21d/htu21d.c ****             value += 1;
 1730              		.loc 1 208 12 view .LVU771
 1731 0364 012B     		cmp	r3, #1
 207:user/htu21d/htu21d.c ****         if (HAL_GPIO_ReadPin(HTU21D_SDA_GPIO_Port, HTU21D_SDA_Pin) == GPIO_PIN_SET) {
ARM GAS  C:\Users\WENHUA~1\AppData\Local\Temp\cc11gPXD.s 			page 49


 1732              		.loc 1 207 15 view .LVU772
 1733 0366 E4B2     		uxtb	r4, r4
 1734              	.LVL112:
 208:user/htu21d/htu21d.c ****             value += 1;
 1735              		.loc 1 208 9 is_stmt 1 view .LVU773
 209:user/htu21d/htu21d.c ****         }
 1736              		.loc 1 209 13 view .LVU774
 209:user/htu21d/htu21d.c ****         }
 1737              		.loc 1 209 19 is_stmt 0 view .LVU775
 1738 0368 08BF     		it	eq
 1739 036a 0134     		addeq	r4, r4, #1
 1740              	.LVL113:
 211:user/htu21d/htu21d.c ****     }
 1741              		.loc 1 211 9 view .LVU776
 1742 036c 4FF00002 		mov	r2, #0
 1743 0370 4FF04001 		mov	r1, #64
 1744 0374 2846     		mov	r0, r5
 209:user/htu21d/htu21d.c ****         }
 1745              		.loc 1 209 19 view .LVU777
 1746 0376 08BF     		it	eq
 1747 0378 E4B2     		uxtbeq	r4, r4
 1748              	.LVL114:
 211:user/htu21d/htu21d.c ****     }
 1749              		.loc 1 211 9 is_stmt 1 view .LVU778
 211:user/htu21d/htu21d.c ****     }
 1750              		.loc 1 211 9 view .LVU779
 1751 037a FFF7FEFF 		bl	HAL_GPIO_WritePin
 1752              	.LVL115:
 211:user/htu21d/htu21d.c ****     }
 1753              		.loc 1 211 9 view .LVU780
 204:user/htu21d/htu21d.c ****         HTU21D_SCL_HIGH();
 1754              		.loc 1 204 24 view .LVU781
 204:user/htu21d/htu21d.c ****         HTU21D_SCL_HIGH();
 1755              		.loc 1 204 17 view .LVU782
 204:user/htu21d/htu21d.c ****         HTU21D_SCL_HIGH();
 1756              		.loc 1 204 5 is_stmt 0 view .LVU783
 1757 037e 7A1E     		subs	r2, r7, #1
 1758 0380 12F0FF07 		ands	r7, r2, #255
 1759 0384 E3D1     		bne	.L31
 213:user/htu21d/htu21d.c **** 
 1760              		.loc 1 213 5 is_stmt 1 view .LVU784
 213:user/htu21d/htu21d.c **** 
 1761              		.loc 1 213 5 view .LVU785
 1762              	.LVL116:
 1763              	.LBB241:
 1764              	.LBI241:
  70:user/htu21d/htu21d.c **** {
 1765              		.loc 1 70 13 view .LVU786
 1766              	.LBB242:
  72:user/htu21d/htu21d.c **** 
 1767              		.loc 1 72 5 view .LVU787
  74:user/htu21d/htu21d.c ****         GPIO_InitStructure.Pin = HTU21D_SDA_Pin;
 1768              		.loc 1 74 5 view .LVU788
 1769              	.LBB243:
 1770              	.LBI243:
  70:user/htu21d/htu21d.c **** {
 1771              		.loc 1 70 13 view .LVU789
ARM GAS  C:\Users\WENHUA~1\AppData\Local\Temp\cc11gPXD.s 			page 50


 1772              	.LBB244:
  75:user/htu21d/htu21d.c ****         GPIO_InitStructure.Mode = GPIO_MODE_OUTPUT_OD;
 1773              		.loc 1 75 9 view .LVU790
  76:user/htu21d/htu21d.c ****         GPIO_InitStructure.Speed = GPIO_SPEED_FREQ_LOW;
 1774              		.loc 1 76 9 view .LVU791
  77:user/htu21d/htu21d.c ****         HAL_GPIO_Init(HTU21D_SDA_GPIO_Port, &GPIO_InitStructure);
 1775              		.loc 1 77 34 is_stmt 0 view .LVU792
 1776 0386 0223     		movs	r3, #2
  75:user/htu21d/htu21d.c ****         GPIO_InitStructure.Mode = GPIO_MODE_OUTPUT_OD;
 1777              		.loc 1 75 32 view .LVU793
 1778 0388 8022     		movs	r2, #128
  77:user/htu21d/htu21d.c ****         HAL_GPIO_Init(HTU21D_SDA_GPIO_Port, &GPIO_InitStructure);
 1779              		.loc 1 77 34 view .LVU794
 1780 038a 0393     		str	r3, [sp, #12]
  75:user/htu21d/htu21d.c ****         GPIO_InitStructure.Mode = GPIO_MODE_OUTPUT_OD;
 1781              		.loc 1 75 32 view .LVU795
 1782 038c 1123     		movs	r3, #17
  78:user/htu21d/htu21d.c ****     } else {
 1783              		.loc 1 78 9 view .LVU796
 1784 038e 6946     		mov	r1, sp
 1785 0390 0848     		ldr	r0, .L60
  75:user/htu21d/htu21d.c ****         GPIO_InitStructure.Mode = GPIO_MODE_OUTPUT_OD;
 1786              		.loc 1 75 32 view .LVU797
 1787 0392 CDE90023 		strd	r2, [sp]
  77:user/htu21d/htu21d.c ****         HAL_GPIO_Init(HTU21D_SDA_GPIO_Port, &GPIO_InitStructure);
 1788              		.loc 1 77 9 is_stmt 1 view .LVU798
  78:user/htu21d/htu21d.c ****     } else {
 1789              		.loc 1 78 9 view .LVU799
 1790 0396 FFF7FEFF 		bl	HAL_GPIO_Init
 1791              	.LVL117:
  78:user/htu21d/htu21d.c ****     } else {
 1792              		.loc 1 78 9 is_stmt 0 view .LVU800
 1793              	.LBE244:
 1794              	.LBE243:
 1795              	.LBE242:
 1796              	.LBE241:
 213:user/htu21d/htu21d.c **** 
 1797              		.loc 1 213 5 is_stmt 1 view .LVU801
 215:user/htu21d/htu21d.c **** }
 1798              		.loc 1 215 5 view .LVU802
 215:user/htu21d/htu21d.c **** }
 1799              		.loc 1 215 5 is_stmt 0 view .LVU803
 1800              	.LBE247:
 1801              	.LBE263:
 1802              	.LBB264:
 1803              	.LBB265:
 125:user/htu21d/htu21d.c ****     DelayUs(HTU21D_I2C_DELAY);
 1804              		.loc 1 125 5 view .LVU804
 1805 039a 0122     		movs	r2, #1
 1806 039c 8021     		movs	r1, #128
 1807 039e 0548     		ldr	r0, .L60
 1808 03a0 FFF7FEFF 		bl	HAL_GPIO_WritePin
 1809              	.LVL118:
 127:user/htu21d/htu21d.c ****     DelayUs(HTU21D_I2C_DELAY);
 1810              		.loc 1 127 5 view .LVU805
 1811 03a4 4021     		movs	r1, #64
 1812 03a6 0122     		movs	r2, #1
ARM GAS  C:\Users\WENHUA~1\AppData\Local\Temp\cc11gPXD.s 			page 51


 1813 03a8 0248     		ldr	r0, .L60
 1814 03aa FFF7FEFF 		bl	HAL_GPIO_WritePin
 1815              	.LVL119:
 129:user/htu21d/htu21d.c **** }
 1816              		.loc 1 129 5 view .LVU806
 1817 03ae 3A46     		mov	r2, r7
 1818 03b0 0AE0     		b	.L61
 1819              	.L62:
 1820 03b2 00BF     		.align	2
 1821              	.L60:
 1822 03b4 000C0140 		.word	1073810432
 1823 03b8 0000F03E 		.word	1055916032
 1824 03bc 00405F40 		.word	1079984128
 1825 03c0 00001840 		.word	1075314688
 1826 03c4 00000000 		.word	.LANCHOR0
 1827              	.L61:
 1828 03c8 4021     		movs	r1, #64
 1829 03ca 2348     		ldr	r0, .L63+16
 1830 03cc FFF7FEFF 		bl	HAL_GPIO_WritePin
 1831              	.LVL120:
 1832              	.LBE265:
 1833              	.LBE264:
 1834              	.LBB269:
 1835              	.LBB270:
 101:user/htu21d/htu21d.c ****     DelayUs(HTU21D_I2C_DELAY);
 1836              		.loc 1 101 5 view .LVU807
 1837 03d0 3A46     		mov	r2, r7
 1838 03d2 8021     		movs	r1, #128
 1839 03d4 2048     		ldr	r0, .L63+16
 1840 03d6 FFF7FEFF 		bl	HAL_GPIO_WritePin
 1841              	.LVL121:
 1842              	.LBE270:
 1843              	.LBE269:
 276:user/htu21d/htu21d.c ****     NoAckBus();
 1844              		.loc 1 276 15 view .LVU808
 1845 03da 4444     		add	r4, r4, r8
 1846              	.LBB275:
 1847              	.LBB271:
 103:user/htu21d/htu21d.c ****     DelayUs(HTU21D_I2C_DELAY);
 1848              		.loc 1 103 5 view .LVU809
 1849 03dc 0122     		movs	r2, #1
 1850 03de 4021     		movs	r1, #64
 1851 03e0 1D48     		ldr	r0, .L63+16
 1852 03e2 FFF7FEFF 		bl	HAL_GPIO_WritePin
 1853              	.LVL122:
 1854              	.LBE271:
 1855              	.LBE275:
 276:user/htu21d/htu21d.c ****     NoAckBus();
 1856              		.loc 1 276 15 view .LVU810
 1857 03e6 A4B2     		uxth	r4, r4
 1858              	.LVL123:
 277:user/htu21d/htu21d.c ****     StopBus();
 1859              		.loc 1 277 5 is_stmt 1 view .LVU811
 1860              	.LBB276:
 1861              	.LBI264:
 123:user/htu21d/htu21d.c **** {
 1862              		.loc 1 123 13 view .LVU812
ARM GAS  C:\Users\WENHUA~1\AppData\Local\Temp\cc11gPXD.s 			page 52


 1863              	.LBB266:
 125:user/htu21d/htu21d.c ****     DelayUs(HTU21D_I2C_DELAY);
 1864              		.loc 1 125 5 view .LVU813
 125:user/htu21d/htu21d.c ****     DelayUs(HTU21D_I2C_DELAY);
 1865              		.loc 1 125 5 view .LVU814
 125:user/htu21d/htu21d.c ****     DelayUs(HTU21D_I2C_DELAY);
 1866              		.loc 1 125 5 view .LVU815
 126:user/htu21d/htu21d.c ****     HTU21D_SCL_HIGH();
 1867              		.loc 1 126 5 view .LVU816
 126:user/htu21d/htu21d.c ****     HTU21D_SCL_HIGH();
 1868              		.loc 1 126 5 is_stmt 0 view .LVU817
 1869              	.LBE266:
 1870              	.LBE276:
  65:user/htu21d/htu21d.c **** 
 1871              		.loc 1 65 5 is_stmt 1 view .LVU818
  67:user/htu21d/htu21d.c **** }
 1872              		.loc 1 67 5 view .LVU819
  67:user/htu21d/htu21d.c **** }
 1873              		.loc 1 67 20 view .LVU820
  67:user/htu21d/htu21d.c **** }
 1874              		.loc 1 67 11 view .LVU821
 1875              	.LBB277:
 1876              	.LBB267:
 127:user/htu21d/htu21d.c ****     DelayUs(HTU21D_I2C_DELAY);
 1877              		.loc 1 127 5 view .LVU822
 127:user/htu21d/htu21d.c ****     DelayUs(HTU21D_I2C_DELAY);
 1878              		.loc 1 127 5 view .LVU823
 127:user/htu21d/htu21d.c ****     DelayUs(HTU21D_I2C_DELAY);
 1879              		.loc 1 127 5 view .LVU824
 128:user/htu21d/htu21d.c ****     HTU21D_SCL_LOW();
 1880              		.loc 1 128 5 view .LVU825
 128:user/htu21d/htu21d.c ****     HTU21D_SCL_LOW();
 1881              		.loc 1 128 5 is_stmt 0 view .LVU826
 1882              	.LBE267:
 1883              	.LBE277:
  65:user/htu21d/htu21d.c **** 
 1884              		.loc 1 65 5 is_stmt 1 view .LVU827
  67:user/htu21d/htu21d.c **** }
 1885              		.loc 1 67 5 view .LVU828
  67:user/htu21d/htu21d.c **** }
 1886              		.loc 1 67 20 view .LVU829
  67:user/htu21d/htu21d.c **** }
 1887              		.loc 1 67 11 view .LVU830
 1888              	.LBB278:
 1889              	.LBB268:
 129:user/htu21d/htu21d.c **** }
 1890              		.loc 1 129 5 view .LVU831
 129:user/htu21d/htu21d.c **** }
 1891              		.loc 1 129 5 view .LVU832
 129:user/htu21d/htu21d.c **** }
 1892              		.loc 1 129 5 view .LVU833
 1893              	.LBE268:
 1894              	.LBE278:
 278:user/htu21d/htu21d.c ****     temp = ((temp_data & 0xfffc) / 65536.0 * 175.72 - 46.85) * 10;
 1895              		.loc 1 278 5 view .LVU834
 1896              	.LBB279:
 1897              	.LBI269:
ARM GAS  C:\Users\WENHUA~1\AppData\Local\Temp\cc11gPXD.s 			page 53


  99:user/htu21d/htu21d.c **** {
 1898              		.loc 1 99 13 view .LVU835
 1899              	.LBB272:
 101:user/htu21d/htu21d.c ****     DelayUs(HTU21D_I2C_DELAY);
 1900              		.loc 1 101 5 view .LVU836
 101:user/htu21d/htu21d.c ****     DelayUs(HTU21D_I2C_DELAY);
 1901              		.loc 1 101 5 view .LVU837
 101:user/htu21d/htu21d.c ****     DelayUs(HTU21D_I2C_DELAY);
 1902              		.loc 1 101 5 view .LVU838
 102:user/htu21d/htu21d.c ****     HTU21D_SCL_HIGH();
 1903              		.loc 1 102 5 view .LVU839
 102:user/htu21d/htu21d.c ****     HTU21D_SCL_HIGH();
 1904              		.loc 1 102 5 is_stmt 0 view .LVU840
 1905              	.LBE272:
 1906              	.LBE279:
  65:user/htu21d/htu21d.c **** 
 1907              		.loc 1 65 5 is_stmt 1 view .LVU841
  67:user/htu21d/htu21d.c **** }
 1908              		.loc 1 67 5 view .LVU842
  67:user/htu21d/htu21d.c **** }
 1909              		.loc 1 67 20 view .LVU843
  67:user/htu21d/htu21d.c **** }
 1910              		.loc 1 67 11 view .LVU844
 1911              	.LBB280:
 1912              	.LBB273:
 103:user/htu21d/htu21d.c ****     DelayUs(HTU21D_I2C_DELAY);
 1913              		.loc 1 103 5 view .LVU845
 103:user/htu21d/htu21d.c ****     DelayUs(HTU21D_I2C_DELAY);
 1914              		.loc 1 103 5 view .LVU846
 103:user/htu21d/htu21d.c ****     DelayUs(HTU21D_I2C_DELAY);
 1915              		.loc 1 103 5 view .LVU847
 104:user/htu21d/htu21d.c ****     HTU21D_SDA_HIGH();
 1916              		.loc 1 104 5 view .LVU848
 104:user/htu21d/htu21d.c ****     HTU21D_SDA_HIGH();
 1917              		.loc 1 104 5 is_stmt 0 view .LVU849
 1918              	.LBE273:
 1919              	.LBE280:
  65:user/htu21d/htu21d.c **** 
 1920              		.loc 1 65 5 is_stmt 1 view .LVU850
  67:user/htu21d/htu21d.c **** }
 1921              		.loc 1 67 5 view .LVU851
  67:user/htu21d/htu21d.c **** }
 1922              		.loc 1 67 20 view .LVU852
  67:user/htu21d/htu21d.c **** }
 1923              		.loc 1 67 11 view .LVU853
 1924              	.LBB281:
 1925              	.LBB274:
 105:user/htu21d/htu21d.c ****     DelayUs(HTU21D_I2C_DELAY);
 1926              		.loc 1 105 5 view .LVU854
 105:user/htu21d/htu21d.c ****     DelayUs(HTU21D_I2C_DELAY);
 1927              		.loc 1 105 5 view .LVU855
 1928 03e8 0122     		movs	r2, #1
 1929 03ea 8021     		movs	r1, #128
 1930 03ec 1A48     		ldr	r0, .L63+16
 1931 03ee FFF7FEFF 		bl	HAL_GPIO_WritePin
 1932              	.LVL124:
 105:user/htu21d/htu21d.c ****     DelayUs(HTU21D_I2C_DELAY);
ARM GAS  C:\Users\WENHUA~1\AppData\Local\Temp\cc11gPXD.s 			page 54


 1933              		.loc 1 105 5 view .LVU856
 106:user/htu21d/htu21d.c **** }
 1934              		.loc 1 106 5 view .LVU857
 106:user/htu21d/htu21d.c **** }
 1935              		.loc 1 106 5 is_stmt 0 view .LVU858
 1936              	.LBE274:
 1937              	.LBE281:
  65:user/htu21d/htu21d.c **** 
 1938              		.loc 1 65 5 is_stmt 1 view .LVU859
  67:user/htu21d/htu21d.c **** }
 1939              		.loc 1 67 5 view .LVU860
  67:user/htu21d/htu21d.c **** }
 1940              		.loc 1 67 20 view .LVU861
  67:user/htu21d/htu21d.c **** }
 1941              		.loc 1 67 11 view .LVU862
 279:user/htu21d/htu21d.c ****     g_thData.temperature = (int16_t)temp;
 1942              		.loc 1 279 5 view .LVU863
 280:user/htu21d/htu21d.c **** 
 1943              		.loc 1 280 5 view .LVU864
 279:user/htu21d/htu21d.c ****     g_thData.temperature = (int16_t)temp;
 1944              		.loc 1 279 24 is_stmt 0 view .LVU865
 1945 03f2 24F00300 		bic	r0, r4, #3
 279:user/htu21d/htu21d.c ****     g_thData.temperature = (int16_t)temp;
 1946              		.loc 1 279 34 view .LVU866
 1947 03f6 FFF7FEFF 		bl	__aeabi_i2d
 1948              	.LVL125:
 1949 03fa 0022     		movs	r2, #0
 1950 03fc 174B     		ldr	r3, .L63+20
 1951 03fe FFF7FEFF 		bl	__aeabi_dmul
 1952              	.LVL126:
 279:user/htu21d/htu21d.c ****     g_thData.temperature = (int16_t)temp;
 1953              		.loc 1 279 44 view .LVU867
 1954 0402 11A3     		adr	r3, .L63
 1955 0404 D3E90023 		ldrd	r2, [r3]
 1956 0408 FFF7FEFF 		bl	__aeabi_dmul
 1957              	.LVL127:
 279:user/htu21d/htu21d.c ****     g_thData.temperature = (int16_t)temp;
 1958              		.loc 1 279 53 view .LVU868
 1959 040c 10A3     		adr	r3, .L63+8
 1960 040e D3E90023 		ldrd	r2, [r3]
 1961 0412 FFF7FEFF 		bl	__aeabi_dsub
 1962              	.LVL128:
 279:user/htu21d/htu21d.c ****     g_thData.temperature = (int16_t)temp;
 1963              		.loc 1 279 62 view .LVU869
 1964 0416 0022     		movs	r2, #0
 1965 0418 114B     		ldr	r3, .L63+24
 1966 041a FFF7FEFF 		bl	__aeabi_dmul
 1967              	.LVL129:
 279:user/htu21d/htu21d.c ****     g_thData.temperature = (int16_t)temp;
 1968              		.loc 1 279 10 view .LVU870
 1969 041e FFF7FEFF 		bl	__aeabi_d2f
 1970              	.LVL130:
 280:user/htu21d/htu21d.c **** 
 1971              		.loc 1 280 28 view .LVU871
 1972 0422 FFF7FEFF 		bl	__aeabi_f2iz
 1973              	.LVL131:
 1974 0426 0346     		mov	r3, r0
ARM GAS  C:\Users\WENHUA~1\AppData\Local\Temp\cc11gPXD.s 			page 55


 282:user/htu21d/htu21d.c ****     printf("Temp: %d \r\n", g_thData.temperature);
 1975              		.loc 1 282 5 view .LVU872
 1976 0428 7188     		ldrh	r1, [r6, #2]
 1977 042a 0E48     		ldr	r0, .L63+28
 280:user/htu21d/htu21d.c **** 
 1978              		.loc 1 280 28 view .LVU873
 1979 042c 3380     		strh	r3, [r6]	@ movhi
 282:user/htu21d/htu21d.c ****     printf("Temp: %d \r\n", g_thData.temperature);
 1980              		.loc 1 282 5 is_stmt 1 view .LVU874
 1981 042e FFF7FEFF 		bl	printf
 1982              	.LVL132:
 283:user/htu21d/htu21d.c ****     g_i2cFial = 0;
 1983              		.loc 1 283 5 view .LVU875
 1984 0432 B6F90010 		ldrsh	r1, [r6]
 1985 0436 0C48     		ldr	r0, .L63+32
 1986 0438 FFF7FEFF 		bl	printf
 1987              	.LVL133:
 284:user/htu21d/htu21d.c **** 
 1988              		.loc 1 284 5 view .LVU876
 284:user/htu21d/htu21d.c **** 
 1989              		.loc 1 284 15 is_stmt 0 view .LVU877
 1990 043c 0B4B     		ldr	r3, .L63+36
 1991 043e 1F70     		strb	r7, [r3]
 286:user/htu21d/htu21d.c **** 
 1992              		.loc 1 286 5 is_stmt 1 view .LVU878
 286:user/htu21d/htu21d.c **** 
 1993              		.loc 1 286 12 is_stmt 0 view .LVU879
 1994 0440 02E6     		b	.L22
 1995              	.L64:
 1996 0442 00BFAFF3 		.align	3
 1996      0080
 1997              	.L63:
 1998 0448 D7A3703D 		.word	1030792151
 1999 044c 0AF76540 		.word	1080424202
 2000 0450 CDCCCCCC 		.word	-858993459
 2001 0454 CC6C4740 		.word	1078422732
 2002 0458 000C0140 		.word	1073810432
 2003 045c 0000F03E 		.word	1055916032
 2004 0460 00002440 		.word	1076101120
 2005 0464 00000000 		.word	.LC0
 2006 0468 10000000 		.word	.LC1
 2007 046c 00000000 		.word	.LANCHOR1
 2008              		.cfi_endproc
 2009              	.LFE86:
 2011              		.section	.text.HTU21D_GetTemperature,"ax",%progbits
 2012              		.align	1
 2013              		.p2align 2,,3
 2014              		.global	HTU21D_GetTemperature
 2015              		.syntax unified
 2016              		.thumb
 2017              		.thumb_func
 2019              	HTU21D_GetTemperature:
 2020              	.LFB80:
 295:user/htu21d/htu21d.c **** 
 296:user/htu21d/htu21d.c **** static uint8_t HTU21D_FuncInit(void)
 297:user/htu21d/htu21d.c **** {
 298:user/htu21d/htu21d.c ****     uint8_t usr_reg;
ARM GAS  C:\Users\WENHUA~1\AppData\Local\Temp\cc11gPXD.s 			page 56


 299:user/htu21d/htu21d.c ****     uint8_t err;
 300:user/htu21d/htu21d.c **** 
 301:user/htu21d/htu21d.c ****     StartBus();
 302:user/htu21d/htu21d.c ****     err = WriteByte(SlaveAddr | Write);
 303:user/htu21d/htu21d.c ****     if (err == 0) {
 304:user/htu21d/htu21d.c ****         goto i2c_fail;
 305:user/htu21d/htu21d.c ****     }
 306:user/htu21d/htu21d.c **** 
 307:user/htu21d/htu21d.c ****     err = WriteByte(RDSR);
 308:user/htu21d/htu21d.c ****     if (err == 0) {
 309:user/htu21d/htu21d.c ****         goto i2c_fail;
 310:user/htu21d/htu21d.c ****     }
 311:user/htu21d/htu21d.c **** 
 312:user/htu21d/htu21d.c ****     StartBus();
 313:user/htu21d/htu21d.c ****     err = WriteByte(SlaveAddr | Read);
 314:user/htu21d/htu21d.c ****     if (err == 0) {
 315:user/htu21d/htu21d.c ****         goto i2c_fail;
 316:user/htu21d/htu21d.c ****     }
 317:user/htu21d/htu21d.c **** 
 318:user/htu21d/htu21d.c ****     usr_reg = ReadByte();
 319:user/htu21d/htu21d.c ****     NoAckBus();
 320:user/htu21d/htu21d.c **** 
 321:user/htu21d/htu21d.c ****     StartBus();
 322:user/htu21d/htu21d.c ****     err = WriteByte(SlaveAddr | Write);
 323:user/htu21d/htu21d.c ****     if (err == 0) {
 324:user/htu21d/htu21d.c ****         goto i2c_fail;
 325:user/htu21d/htu21d.c ****     }
 326:user/htu21d/htu21d.c **** 
 327:user/htu21d/htu21d.c ****     err = WriteByte(WRSR);
 328:user/htu21d/htu21d.c ****     if (err == 0) {
 329:user/htu21d/htu21d.c ****         goto i2c_fail;
 330:user/htu21d/htu21d.c ****     }
 331:user/htu21d/htu21d.c **** 
 332:user/htu21d/htu21d.c ****     err = WriteByte((usr_reg & 0x38) | 0x02 | resolution);
 333:user/htu21d/htu21d.c ****     if (err == 0) {
 334:user/htu21d/htu21d.c ****         goto i2c_fail;
 335:user/htu21d/htu21d.c ****     }
 336:user/htu21d/htu21d.c **** 
 337:user/htu21d/htu21d.c ****     StopBus();
 338:user/htu21d/htu21d.c **** 
 339:user/htu21d/htu21d.c ****     g_i2cFial = 0;
 340:user/htu21d/htu21d.c ****     return true;
 341:user/htu21d/htu21d.c **** 
 342:user/htu21d/htu21d.c **** i2c_fail:
 343:user/htu21d/htu21d.c ****     g_i2cFial = 1;
 344:user/htu21d/htu21d.c ****     return false;
 345:user/htu21d/htu21d.c **** }
 346:user/htu21d/htu21d.c **** 
 347:user/htu21d/htu21d.c **** static uint8_t HTU21D_Reset(void)
 348:user/htu21d/htu21d.c **** {
 349:user/htu21d/htu21d.c ****     uint8_t status;
 350:user/htu21d/htu21d.c **** 
 351:user/htu21d/htu21d.c ****     StartBus();
 352:user/htu21d/htu21d.c ****     status = WriteByte(SlaveAddr | Write);
 353:user/htu21d/htu21d.c ****     if (status == 0)
 354:user/htu21d/htu21d.c ****         goto error;
 355:user/htu21d/htu21d.c ****     status = WriteByte(HT_RST);
ARM GAS  C:\Users\WENHUA~1\AppData\Local\Temp\cc11gPXD.s 			page 57


 356:user/htu21d/htu21d.c ****     if (status == 0)
 357:user/htu21d/htu21d.c ****         goto error;
 358:user/htu21d/htu21d.c ****     StopBus();
 359:user/htu21d/htu21d.c ****     HAL_Delay(15);
 360:user/htu21d/htu21d.c **** 
 361:user/htu21d/htu21d.c ****     g_i2cFial = 0;
 362:user/htu21d/htu21d.c ****     printf("\r\nHTU21D Reset OK\r\n");
 363:user/htu21d/htu21d.c ****     return true;
 364:user/htu21d/htu21d.c **** 
 365:user/htu21d/htu21d.c **** error:
 366:user/htu21d/htu21d.c ****     printf("\r\nHTU21D Reset NG\r\n");
 367:user/htu21d/htu21d.c ****     g_i2cFial = 1;
 368:user/htu21d/htu21d.c ****     return false;
 369:user/htu21d/htu21d.c **** }
 370:user/htu21d/htu21d.c **** 
 371:user/htu21d/htu21d.c **** int16_t HTU21D_GetTemperature(void)
 372:user/htu21d/htu21d.c **** {
 2021              		.loc 1 372 1 is_stmt 1 view -0
 2022              		.cfi_startproc
 2023              		@ args = 0, pretend = 0, frame = 0
 2024              		@ frame_needed = 0, uses_anonymous_args = 0
 2025              		@ link register save eliminated.
 373:user/htu21d/htu21d.c ****     return g_thData.temperature;
 2026              		.loc 1 373 5 view .LVU881
 2027              		.loc 1 373 20 is_stmt 0 view .LVU882
 2028 0000 014B     		ldr	r3, .L66
 374:user/htu21d/htu21d.c **** }
 2029              		.loc 1 374 1 view .LVU883
 2030 0002 B3F90000 		ldrsh	r0, [r3]
 2031 0006 7047     		bx	lr
 2032              	.L67:
 2033              		.align	2
 2034              	.L66:
 2035 0008 00000000 		.word	.LANCHOR0
 2036              		.cfi_endproc
 2037              	.LFE80:
 2039              		.section	.text.HTU21D_GetHumidity,"ax",%progbits
 2040              		.align	1
 2041              		.p2align 2,,3
 2042              		.global	HTU21D_GetHumidity
 2043              		.syntax unified
 2044              		.thumb
 2045              		.thumb_func
 2047              	HTU21D_GetHumidity:
 2048              	.LFB81:
 375:user/htu21d/htu21d.c **** 
 376:user/htu21d/htu21d.c **** uint16_t HTU21D_GetHumidity(void)
 377:user/htu21d/htu21d.c **** {
 2049              		.loc 1 377 1 is_stmt 1 view -0
 2050              		.cfi_startproc
 2051              		@ args = 0, pretend = 0, frame = 0
 2052              		@ frame_needed = 0, uses_anonymous_args = 0
 2053              		@ link register save eliminated.
 378:user/htu21d/htu21d.c ****     return g_thData.humidity;
 2054              		.loc 1 378 5 view .LVU885
 2055              		.loc 1 378 20 is_stmt 0 view .LVU886
 2056 0000 014B     		ldr	r3, .L69
ARM GAS  C:\Users\WENHUA~1\AppData\Local\Temp\cc11gPXD.s 			page 58


 379:user/htu21d/htu21d.c **** }
 2057              		.loc 1 379 1 view .LVU887
 2058 0002 5888     		ldrh	r0, [r3, #2]
 2059 0004 7047     		bx	lr
 2060              	.L70:
 2061 0006 00BF     		.align	2
 2062              	.L69:
 2063 0008 00000000 		.word	.LANCHOR0
 2064              		.cfi_endproc
 2065              	.LFE81:
 2067              		.section	.rodata.HTU21D_Init.str1.4,"aMS",%progbits,1
 2068              		.align	2
 2069              	.LC3:
 2070 0000 0D0A4854 		.ascii	"\015\012HTU21D Init NG\015\000"
 2070      55323144 
 2070      20496E69 
 2070      74204E47 
 2070      0D00
 2071 0012 0000     		.align	2
 2072              	.LC4:
 2073 0014 0D0A4854 		.ascii	"\015\012HTU21D Reset OK\015\000"
 2073      55323144 
 2073      20526573 
 2073      6574204F 
 2073      4B0D00
 2074 0027 00       		.align	2
 2075              	.LC5:
 2076 0028 0D0A4854 		.ascii	"\015\012HTU21D Reset NG\015\000"
 2076      55323144 
 2076      20526573 
 2076      6574204E 
 2076      470D00
 2077              		.section	.text.HTU21D_Init,"ax",%progbits
 2078              		.align	1
 2079              		.p2align 2,,3
 2080              		.global	HTU21D_Init
 2081              		.syntax unified
 2082              		.thumb
 2083              		.thumb_func
 2085              	HTU21D_Init:
 2086              	.LFB83:
 380:user/htu21d/htu21d.c **** 
 381:user/htu21d/htu21d.c **** void HTU21D_Sampling(void)
 382:user/htu21d/htu21d.c **** {
 383:user/htu21d/htu21d.c ****     static uint8_t count;
 384:user/htu21d/htu21d.c **** 
 385:user/htu21d/htu21d.c ****     if (g_i2cFial) {
 386:user/htu21d/htu21d.c ****         g_i2cFial = 0;
 387:user/htu21d/htu21d.c ****         count = 0x00;
 388:user/htu21d/htu21d.c ****         HTU21D_Init();
 389:user/htu21d/htu21d.c ****     }
 390:user/htu21d/htu21d.c ****     count++;
 391:user/htu21d/htu21d.c ****     if (count > 9) {
 392:user/htu21d/htu21d.c ****         count = 0;
 393:user/htu21d/htu21d.c ****         HTU21D_GetData();
 394:user/htu21d/htu21d.c ****     }
 395:user/htu21d/htu21d.c **** }
ARM GAS  C:\Users\WENHUA~1\AppData\Local\Temp\cc11gPXD.s 			page 59


 396:user/htu21d/htu21d.c **** 
 397:user/htu21d/htu21d.c **** void HTU21D_Init(void)
 398:user/htu21d/htu21d.c **** {
 2087              		.loc 1 398 1 is_stmt 1 view -0
 2088              		.cfi_startproc
 2089              		@ args = 0, pretend = 0, frame = 16
 2090              		@ frame_needed = 0, uses_anonymous_args = 0
 399:user/htu21d/htu21d.c ****     HTU21D_I2cInit();
 2091              		.loc 1 399 5 view .LVU889
 2092              	.LBB312:
 2093              	.LBI312:
 132:user/htu21d/htu21d.c **** {
 2094              		.loc 1 132 13 view .LVU890
 2095              	.LBB313:
 134:user/htu21d/htu21d.c **** 
 2096              		.loc 1 134 5 view .LVU891
 136:user/htu21d/htu21d.c ****     GPIO_InitStructure.Mode = GPIO_MODE_OUTPUT_OD;
 2097              		.loc 1 136 5 view .LVU892
 137:user/htu21d/htu21d.c ****     GPIO_InitStructure.Speed = GPIO_SPEED_FREQ_LOW;
 2098              		.loc 1 137 5 view .LVU893
 2099              	.LBE313:
 2100              	.LBE312:
 398:user/htu21d/htu21d.c ****     HTU21D_I2cInit();
 2101              		.loc 1 398 1 is_stmt 0 view .LVU894
 2102 0000 2DE97043 		push	{r4, r5, r6, r8, r9, lr}
 2103              	.LCFI8:
 2104              		.cfi_def_cfa_offset 24
 2105              		.cfi_offset 4, -24
 2106              		.cfi_offset 5, -20
 2107              		.cfi_offset 6, -16
 2108              		.cfi_offset 8, -12
 2109              		.cfi_offset 9, -8
 2110              		.cfi_offset 14, -4
 2111              	.LBB316:
 2112              	.LBB314:
 136:user/htu21d/htu21d.c ****     GPIO_InitStructure.Mode = GPIO_MODE_OUTPUT_OD;
 2113              		.loc 1 136 28 view .LVU895
 2114 0004 8022     		movs	r2, #128
 2115 0006 1123     		movs	r3, #17
 138:user/htu21d/htu21d.c ****     HAL_GPIO_Init(HTU21D_SDA_GPIO_Port, &GPIO_InitStructure);
 2116              		.loc 1 138 30 view .LVU896
 2117 0008 0224     		movs	r4, #2
 2118              	.LBE314:
 2119              	.LBE316:
 398:user/htu21d/htu21d.c ****     HTU21D_I2cInit();
 2120              		.loc 1 398 1 view .LVU897
 2121 000a 84B0     		sub	sp, sp, #16
 2122              	.LCFI9:
 2123              		.cfi_def_cfa_offset 40
 2124              	.LBB317:
 2125              	.LBB315:
 139:user/htu21d/htu21d.c **** 
 2126              		.loc 1 139 5 view .LVU898
 2127 000c 6946     		mov	r1, sp
 2128 000e 8D48     		ldr	r0, .L106
 136:user/htu21d/htu21d.c ****     GPIO_InitStructure.Mode = GPIO_MODE_OUTPUT_OD;
 2129              		.loc 1 136 28 view .LVU899
ARM GAS  C:\Users\WENHUA~1\AppData\Local\Temp\cc11gPXD.s 			page 60


 2130 0010 CDE90023 		strd	r2, [sp]
 138:user/htu21d/htu21d.c ****     HAL_GPIO_Init(HTU21D_SDA_GPIO_Port, &GPIO_InitStructure);
 2131              		.loc 1 138 5 is_stmt 1 view .LVU900
 139:user/htu21d/htu21d.c **** 
 2132              		.loc 1 139 5 view .LVU901
 138:user/htu21d/htu21d.c ****     HAL_GPIO_Init(HTU21D_SDA_GPIO_Port, &GPIO_InitStructure);
 2133              		.loc 1 138 30 is_stmt 0 view .LVU902
 2134 0014 0394     		str	r4, [sp, #12]
 139:user/htu21d/htu21d.c **** 
 2135              		.loc 1 139 5 view .LVU903
 2136 0016 FFF7FEFF 		bl	HAL_GPIO_Init
 2137              	.LVL134:
 141:user/htu21d/htu21d.c ****     GPIO_InitStructure.Mode = GPIO_MODE_OUTPUT_OD;
 2138              		.loc 1 141 5 is_stmt 1 view .LVU904
 142:user/htu21d/htu21d.c ****     GPIO_InitStructure.Speed = GPIO_SPEED_FREQ_LOW;
 2139              		.loc 1 142 5 view .LVU905
 141:user/htu21d/htu21d.c ****     GPIO_InitStructure.Mode = GPIO_MODE_OUTPUT_OD;
 2140              		.loc 1 141 28 is_stmt 0 view .LVU906
 2141 001a 1123     		movs	r3, #17
 2142 001c 4022     		movs	r2, #64
 144:user/htu21d/htu21d.c **** 
 2143              		.loc 1 144 5 view .LVU907
 2144 001e 6946     		mov	r1, sp
 2145 0020 8848     		ldr	r0, .L106
 141:user/htu21d/htu21d.c ****     GPIO_InitStructure.Mode = GPIO_MODE_OUTPUT_OD;
 2146              		.loc 1 141 28 view .LVU908
 2147 0022 CDE90023 		strd	r2, [sp]
 143:user/htu21d/htu21d.c ****     HAL_GPIO_Init(HTU21D_SCL_GPIO_Port, &GPIO_InitStructure);
 2148              		.loc 1 143 5 is_stmt 1 view .LVU909
 144:user/htu21d/htu21d.c **** 
 2149              		.loc 1 144 5 view .LVU910
 143:user/htu21d/htu21d.c ****     HAL_GPIO_Init(HTU21D_SCL_GPIO_Port, &GPIO_InitStructure);
 2150              		.loc 1 143 30 is_stmt 0 view .LVU911
 2151 0026 0394     		str	r4, [sp, #12]
 144:user/htu21d/htu21d.c **** 
 2152              		.loc 1 144 5 view .LVU912
 2153 0028 FFF7FEFF 		bl	HAL_GPIO_Init
 2154              	.LVL135:
 146:user/htu21d/htu21d.c ****     HAL_GPIO_WritePin(HTU21D_SDA_GPIO_Port, HTU21D_SDA_Pin, GPIO_PIN_SET);
 2155              		.loc 1 146 5 is_stmt 1 view .LVU913
 2156 002c 0122     		movs	r2, #1
 2157 002e 4021     		movs	r1, #64
 2158 0030 8448     		ldr	r0, .L106
 2159 0032 FFF7FEFF 		bl	HAL_GPIO_WritePin
 2160              	.LVL136:
 147:user/htu21d/htu21d.c **** }
 2161              		.loc 1 147 5 view .LVU914
 2162 0036 0122     		movs	r2, #1
 2163 0038 8021     		movs	r1, #128
 2164 003a 8248     		ldr	r0, .L106
 2165 003c FFF7FEFF 		bl	HAL_GPIO_WritePin
 2166              	.LVL137:
 2167              	.LBE315:
 2168              	.LBE317:
 400:user/htu21d/htu21d.c ****     if (HTU21D_FuncInit() == false) {
 2169              		.loc 1 400 5 view .LVU915
 2170              	.LBB318:
ARM GAS  C:\Users\WENHUA~1\AppData\Local\Temp\cc11gPXD.s 			page 61


 2171              	.LBI318:
 296:user/htu21d/htu21d.c **** {
 2172              		.loc 1 296 16 view .LVU916
 2173              	.LBB319:
 298:user/htu21d/htu21d.c ****     uint8_t err;
 2174              		.loc 1 298 5 view .LVU917
 299:user/htu21d/htu21d.c **** 
 2175              		.loc 1 299 5 view .LVU918
 301:user/htu21d/htu21d.c ****     err = WriteByte(SlaveAddr | Write);
 2176              		.loc 1 301 5 view .LVU919
 2177              	.LBB320:
 2178              	.LBI320:
  87:user/htu21d/htu21d.c **** {
 2179              		.loc 1 87 13 view .LVU920
 2180              	.LBB321:
  89:user/htu21d/htu21d.c ****     DelayUs(HTU21D_I2C_DELAY);
 2181              		.loc 1 89 5 view .LVU921
  89:user/htu21d/htu21d.c ****     DelayUs(HTU21D_I2C_DELAY);
 2182              		.loc 1 89 5 view .LVU922
 2183 0040 0122     		movs	r2, #1
 2184 0042 8021     		movs	r1, #128
 2185 0044 7F48     		ldr	r0, .L106
 2186 0046 FFF7FEFF 		bl	HAL_GPIO_WritePin
 2187              	.LVL138:
  89:user/htu21d/htu21d.c ****     DelayUs(HTU21D_I2C_DELAY);
 2188              		.loc 1 89 5 view .LVU923
  90:user/htu21d/htu21d.c ****     HTU21D_SCL_HIGH();
 2189              		.loc 1 90 5 view .LVU924
  90:user/htu21d/htu21d.c ****     HTU21D_SCL_HIGH();
 2190              		.loc 1 90 5 is_stmt 0 view .LVU925
 2191              	.LBE321:
 2192              	.LBE320:
 2193              	.LBE319:
 2194              	.LBE318:
  65:user/htu21d/htu21d.c **** 
 2195              		.loc 1 65 5 is_stmt 1 view .LVU926
  67:user/htu21d/htu21d.c **** }
 2196              		.loc 1 67 5 view .LVU927
  67:user/htu21d/htu21d.c **** }
 2197              		.loc 1 67 20 view .LVU928
  67:user/htu21d/htu21d.c **** }
 2198              		.loc 1 67 11 view .LVU929
 2199              	.LBB391:
 2200              	.LBB370:
 2201              	.LBB325:
 2202              	.LBB322:
  91:user/htu21d/htu21d.c ****     DelayUs(HTU21D_I2C_DELAY);
 2203              		.loc 1 91 5 view .LVU930
  91:user/htu21d/htu21d.c ****     DelayUs(HTU21D_I2C_DELAY);
 2204              		.loc 1 91 5 view .LVU931
 2205 004a 0122     		movs	r2, #1
 2206 004c 4021     		movs	r1, #64
 2207 004e 7D48     		ldr	r0, .L106
 2208 0050 FFF7FEFF 		bl	HAL_GPIO_WritePin
 2209              	.LVL139:
  91:user/htu21d/htu21d.c ****     DelayUs(HTU21D_I2C_DELAY);
 2210              		.loc 1 91 5 view .LVU932
ARM GAS  C:\Users\WENHUA~1\AppData\Local\Temp\cc11gPXD.s 			page 62


  92:user/htu21d/htu21d.c ****     HTU21D_SDA_LOW();
 2211              		.loc 1 92 5 view .LVU933
  92:user/htu21d/htu21d.c ****     HTU21D_SDA_LOW();
 2212              		.loc 1 92 5 is_stmt 0 view .LVU934
 2213              	.LBE322:
 2214              	.LBE325:
 2215              	.LBE370:
 2216              	.LBE391:
  65:user/htu21d/htu21d.c **** 
 2217              		.loc 1 65 5 is_stmt 1 view .LVU935
  67:user/htu21d/htu21d.c **** }
 2218              		.loc 1 67 5 view .LVU936
  67:user/htu21d/htu21d.c **** }
 2219              		.loc 1 67 20 view .LVU937
  67:user/htu21d/htu21d.c **** }
 2220              		.loc 1 67 11 view .LVU938
 2221              	.LBB392:
 2222              	.LBB371:
 2223              	.LBB326:
 2224              	.LBB323:
  93:user/htu21d/htu21d.c ****     DelayUs(HTU21D_I2C_DELAY);
 2225              		.loc 1 93 5 view .LVU939
  93:user/htu21d/htu21d.c ****     DelayUs(HTU21D_I2C_DELAY);
 2226              		.loc 1 93 5 view .LVU940
 2227 0054 0022     		movs	r2, #0
 2228 0056 8021     		movs	r1, #128
 2229 0058 7A48     		ldr	r0, .L106
 2230 005a FFF7FEFF 		bl	HAL_GPIO_WritePin
 2231              	.LVL140:
  93:user/htu21d/htu21d.c ****     DelayUs(HTU21D_I2C_DELAY);
 2232              		.loc 1 93 5 view .LVU941
  94:user/htu21d/htu21d.c ****     HTU21D_SCL_LOW();
 2233              		.loc 1 94 5 view .LVU942
  94:user/htu21d/htu21d.c ****     HTU21D_SCL_LOW();
 2234              		.loc 1 94 5 is_stmt 0 view .LVU943
 2235              	.LBE323:
 2236              	.LBE326:
 2237              	.LBE371:
 2238              	.LBE392:
  65:user/htu21d/htu21d.c **** 
 2239              		.loc 1 65 5 is_stmt 1 view .LVU944
  67:user/htu21d/htu21d.c **** }
 2240              		.loc 1 67 5 view .LVU945
  67:user/htu21d/htu21d.c **** }
 2241              		.loc 1 67 20 view .LVU946
  67:user/htu21d/htu21d.c **** }
 2242              		.loc 1 67 11 view .LVU947
 2243              	.LBB393:
 2244              	.LBB372:
 2245              	.LBB327:
 2246              	.LBB324:
  95:user/htu21d/htu21d.c ****     DelayUs(HTU21D_I2C_DELAY);
 2247              		.loc 1 95 5 view .LVU948
  95:user/htu21d/htu21d.c ****     DelayUs(HTU21D_I2C_DELAY);
 2248              		.loc 1 95 5 view .LVU949
 2249 005e 7948     		ldr	r0, .L106
 2250 0060 0022     		movs	r2, #0
ARM GAS  C:\Users\WENHUA~1\AppData\Local\Temp\cc11gPXD.s 			page 63


 2251 0062 4021     		movs	r1, #64
 2252 0064 FFF7FEFF 		bl	HAL_GPIO_WritePin
 2253              	.LVL141:
  95:user/htu21d/htu21d.c ****     DelayUs(HTU21D_I2C_DELAY);
 2254              		.loc 1 95 5 view .LVU950
  96:user/htu21d/htu21d.c **** }
 2255              		.loc 1 96 5 view .LVU951
  96:user/htu21d/htu21d.c **** }
 2256              		.loc 1 96 5 is_stmt 0 view .LVU952
 2257              	.LBE324:
 2258              	.LBE327:
 2259              	.LBE372:
 2260              	.LBE393:
  65:user/htu21d/htu21d.c **** 
 2261              		.loc 1 65 5 is_stmt 1 view .LVU953
  67:user/htu21d/htu21d.c **** }
 2262              		.loc 1 67 5 view .LVU954
  67:user/htu21d/htu21d.c **** }
 2263              		.loc 1 67 20 view .LVU955
  67:user/htu21d/htu21d.c **** }
 2264              		.loc 1 67 11 view .LVU956
 2265              	.LBB394:
 2266              	.LBB373:
 302:user/htu21d/htu21d.c ****     if (err == 0) {
 2267              		.loc 1 302 5 view .LVU957
 302:user/htu21d/htu21d.c ****     if (err == 0) {
 2268              		.loc 1 302 11 is_stmt 0 view .LVU958
 2269 0068 8020     		movs	r0, #128
 2270 006a FFF7FEFF 		bl	WriteByte
 2271              	.LVL142:
 303:user/htu21d/htu21d.c ****         goto i2c_fail;
 2272              		.loc 1 303 5 is_stmt 1 view .LVU959
 303:user/htu21d/htu21d.c ****         goto i2c_fail;
 2273              		.loc 1 303 8 is_stmt 0 view .LVU960
 2274 006e 40B9     		cbnz	r0, .L105
 2275              	.L72:
 2276              	.LDL2:
 343:user/htu21d/htu21d.c ****     return false;
 2277              		.loc 1 343 5 is_stmt 1 view .LVU961
 343:user/htu21d/htu21d.c ****     return false;
 2278              		.loc 1 343 15 is_stmt 0 view .LVU962
 2279 0070 0122     		movs	r2, #1
 2280 0072 754B     		ldr	r3, .L106+4
 2281              	.LBE373:
 2282              	.LBE394:
 401:user/htu21d/htu21d.c ****         printf("\r\nHTU21D Init NG\r\n");
 2283              		.loc 1 401 9 view .LVU963
 2284 0074 7548     		ldr	r0, .L106+8
 2285              	.LVL143:
 2286              	.LBB395:
 2287              	.LBB374:
 343:user/htu21d/htu21d.c ****     return false;
 2288              		.loc 1 343 15 view .LVU964
 2289 0076 1A70     		strb	r2, [r3]
 344:user/htu21d/htu21d.c **** }
 2290              		.loc 1 344 5 is_stmt 1 view .LVU965
 344:user/htu21d/htu21d.c **** }
ARM GAS  C:\Users\WENHUA~1\AppData\Local\Temp\cc11gPXD.s 			page 64


 2291              		.loc 1 344 5 is_stmt 0 view .LVU966
 2292              	.LBE374:
 2293              	.LBE395:
 2294              		.loc 1 401 9 is_stmt 1 view .LVU967
 402:user/htu21d/htu21d.c ****         return;
 403:user/htu21d/htu21d.c ****     }
 404:user/htu21d/htu21d.c ****     HAL_Delay(10);
 405:user/htu21d/htu21d.c ****     HTU21D_Reset();
 406:user/htu21d/htu21d.c ****     HAL_Delay(100);
 407:user/htu21d/htu21d.c ****     HTU21D_GetData();
 408:user/htu21d/htu21d.c **** }
 2295              		.loc 1 408 1 is_stmt 0 view .LVU968
 2296 0078 04B0     		add	sp, sp, #16
 2297              	.LCFI10:
 2298              		.cfi_remember_state
 2299              		.cfi_def_cfa_offset 24
 2300              		@ sp needed
 2301 007a BDE87043 		pop	{r4, r5, r6, r8, r9, lr}
 2302              	.LCFI11:
 2303              		.cfi_restore 14
 2304              		.cfi_restore 9
 2305              		.cfi_restore 8
 2306              		.cfi_restore 6
 2307              		.cfi_restore 5
 2308              		.cfi_restore 4
 2309              		.cfi_def_cfa_offset 0
 401:user/htu21d/htu21d.c ****         return;
 2310              		.loc 1 401 9 view .LVU969
 2311 007e FFF7FEBF 		b	puts
 2312              	.LVL144:
 2313              	.L105:
 2314              	.LCFI12:
 2315              		.cfi_restore_state
 2316              	.LBB396:
 2317              	.LBB375:
 307:user/htu21d/htu21d.c ****     if (err == 0) {
 2318              		.loc 1 307 5 is_stmt 1 view .LVU970
 307:user/htu21d/htu21d.c ****     if (err == 0) {
 2319              		.loc 1 307 11 is_stmt 0 view .LVU971
 2320 0082 E720     		movs	r0, #231
 2321              	.LVL145:
 307:user/htu21d/htu21d.c ****     if (err == 0) {
 2322              		.loc 1 307 11 view .LVU972
 2323 0084 FFF7FEFF 		bl	WriteByte
 2324              	.LVL146:
 308:user/htu21d/htu21d.c ****         goto i2c_fail;
 2325              		.loc 1 308 5 is_stmt 1 view .LVU973
 308:user/htu21d/htu21d.c ****         goto i2c_fail;
 2326              		.loc 1 308 8 is_stmt 0 view .LVU974
 2327 0088 0028     		cmp	r0, #0
 2328 008a F1D0     		beq	.L72
 312:user/htu21d/htu21d.c ****     err = WriteByte(SlaveAddr | Read);
 2329              		.loc 1 312 5 is_stmt 1 view .LVU975
 2330              	.LBB328:
 2331              	.LBI328:
  87:user/htu21d/htu21d.c **** {
 2332              		.loc 1 87 13 view .LVU976
ARM GAS  C:\Users\WENHUA~1\AppData\Local\Temp\cc11gPXD.s 			page 65


 2333              	.LBB329:
  89:user/htu21d/htu21d.c ****     DelayUs(HTU21D_I2C_DELAY);
 2334              		.loc 1 89 5 view .LVU977
  89:user/htu21d/htu21d.c ****     DelayUs(HTU21D_I2C_DELAY);
 2335              		.loc 1 89 5 view .LVU978
 2336 008c 0122     		movs	r2, #1
 2337 008e 8021     		movs	r1, #128
 2338 0090 6C48     		ldr	r0, .L106
 2339              	.LVL147:
  89:user/htu21d/htu21d.c ****     DelayUs(HTU21D_I2C_DELAY);
 2340              		.loc 1 89 5 is_stmt 0 view .LVU979
 2341 0092 FFF7FEFF 		bl	HAL_GPIO_WritePin
 2342              	.LVL148:
  89:user/htu21d/htu21d.c ****     DelayUs(HTU21D_I2C_DELAY);
 2343              		.loc 1 89 5 is_stmt 1 view .LVU980
  90:user/htu21d/htu21d.c ****     HTU21D_SCL_HIGH();
 2344              		.loc 1 90 5 view .LVU981
  90:user/htu21d/htu21d.c ****     HTU21D_SCL_HIGH();
 2345              		.loc 1 90 5 is_stmt 0 view .LVU982
 2346              	.LBE329:
 2347              	.LBE328:
 2348              	.LBE375:
 2349              	.LBE396:
  65:user/htu21d/htu21d.c **** 
 2350              		.loc 1 65 5 is_stmt 1 view .LVU983
  67:user/htu21d/htu21d.c **** }
 2351              		.loc 1 67 5 view .LVU984
  67:user/htu21d/htu21d.c **** }
 2352              		.loc 1 67 20 view .LVU985
  67:user/htu21d/htu21d.c **** }
 2353              		.loc 1 67 11 view .LVU986
 2354              	.LBB397:
 2355              	.LBB376:
 2356              	.LBB333:
 2357              	.LBB330:
  91:user/htu21d/htu21d.c ****     DelayUs(HTU21D_I2C_DELAY);
 2358              		.loc 1 91 5 view .LVU987
  91:user/htu21d/htu21d.c ****     DelayUs(HTU21D_I2C_DELAY);
 2359              		.loc 1 91 5 view .LVU988
 2360 0096 0122     		movs	r2, #1
 2361 0098 4021     		movs	r1, #64
 2362 009a 6A48     		ldr	r0, .L106
 2363 009c FFF7FEFF 		bl	HAL_GPIO_WritePin
 2364              	.LVL149:
  91:user/htu21d/htu21d.c ****     DelayUs(HTU21D_I2C_DELAY);
 2365              		.loc 1 91 5 view .LVU989
  92:user/htu21d/htu21d.c ****     HTU21D_SDA_LOW();
 2366              		.loc 1 92 5 view .LVU990
  92:user/htu21d/htu21d.c ****     HTU21D_SDA_LOW();
 2367              		.loc 1 92 5 is_stmt 0 view .LVU991
 2368              	.LBE330:
 2369              	.LBE333:
 2370              	.LBE376:
 2371              	.LBE397:
  65:user/htu21d/htu21d.c **** 
 2372              		.loc 1 65 5 is_stmt 1 view .LVU992
  67:user/htu21d/htu21d.c **** }
ARM GAS  C:\Users\WENHUA~1\AppData\Local\Temp\cc11gPXD.s 			page 66


 2373              		.loc 1 67 5 view .LVU993
  67:user/htu21d/htu21d.c **** }
 2374              		.loc 1 67 20 view .LVU994
  67:user/htu21d/htu21d.c **** }
 2375              		.loc 1 67 11 view .LVU995
 2376              	.LBB398:
 2377              	.LBB377:
 2378              	.LBB334:
 2379              	.LBB331:
  93:user/htu21d/htu21d.c ****     DelayUs(HTU21D_I2C_DELAY);
 2380              		.loc 1 93 5 view .LVU996
  93:user/htu21d/htu21d.c ****     DelayUs(HTU21D_I2C_DELAY);
 2381              		.loc 1 93 5 view .LVU997
 2382 00a0 0022     		movs	r2, #0
 2383 00a2 8021     		movs	r1, #128
 2384 00a4 6748     		ldr	r0, .L106
 2385 00a6 FFF7FEFF 		bl	HAL_GPIO_WritePin
 2386              	.LVL150:
  93:user/htu21d/htu21d.c ****     DelayUs(HTU21D_I2C_DELAY);
 2387              		.loc 1 93 5 view .LVU998
  94:user/htu21d/htu21d.c ****     HTU21D_SCL_LOW();
 2388              		.loc 1 94 5 view .LVU999
  94:user/htu21d/htu21d.c ****     HTU21D_SCL_LOW();
 2389              		.loc 1 94 5 is_stmt 0 view .LVU1000
 2390              	.LBE331:
 2391              	.LBE334:
 2392              	.LBE377:
 2393              	.LBE398:
  65:user/htu21d/htu21d.c **** 
 2394              		.loc 1 65 5 is_stmt 1 view .LVU1001
  67:user/htu21d/htu21d.c **** }
 2395              		.loc 1 67 5 view .LVU1002
  67:user/htu21d/htu21d.c **** }
 2396              		.loc 1 67 20 view .LVU1003
  67:user/htu21d/htu21d.c **** }
 2397              		.loc 1 67 11 view .LVU1004
 2398              	.LBB399:
 2399              	.LBB378:
 2400              	.LBB335:
 2401              	.LBB332:
  95:user/htu21d/htu21d.c ****     DelayUs(HTU21D_I2C_DELAY);
 2402              		.loc 1 95 5 view .LVU1005
  95:user/htu21d/htu21d.c ****     DelayUs(HTU21D_I2C_DELAY);
 2403              		.loc 1 95 5 view .LVU1006
 2404 00aa 6648     		ldr	r0, .L106
 2405 00ac 0022     		movs	r2, #0
 2406 00ae 4021     		movs	r1, #64
 2407 00b0 FFF7FEFF 		bl	HAL_GPIO_WritePin
 2408              	.LVL151:
  95:user/htu21d/htu21d.c ****     DelayUs(HTU21D_I2C_DELAY);
 2409              		.loc 1 95 5 view .LVU1007
  96:user/htu21d/htu21d.c **** }
 2410              		.loc 1 96 5 view .LVU1008
  96:user/htu21d/htu21d.c **** }
 2411              		.loc 1 96 5 is_stmt 0 view .LVU1009
 2412              	.LBE332:
 2413              	.LBE335:
ARM GAS  C:\Users\WENHUA~1\AppData\Local\Temp\cc11gPXD.s 			page 67


 2414              	.LBE378:
 2415              	.LBE399:
  65:user/htu21d/htu21d.c **** 
 2416              		.loc 1 65 5 is_stmt 1 view .LVU1010
  67:user/htu21d/htu21d.c **** }
 2417              		.loc 1 67 5 view .LVU1011
  67:user/htu21d/htu21d.c **** }
 2418              		.loc 1 67 20 view .LVU1012
  67:user/htu21d/htu21d.c **** }
 2419              		.loc 1 67 11 view .LVU1013
 2420              	.LBB400:
 2421              	.LBB379:
 313:user/htu21d/htu21d.c ****     if (err == 0) {
 2422              		.loc 1 313 5 view .LVU1014
 313:user/htu21d/htu21d.c ****     if (err == 0) {
 2423              		.loc 1 313 11 is_stmt 0 view .LVU1015
 2424 00b4 8120     		movs	r0, #129
 2425 00b6 FFF7FEFF 		bl	WriteByte
 2426              	.LVL152:
 314:user/htu21d/htu21d.c ****         goto i2c_fail;
 2427              		.loc 1 314 5 is_stmt 1 view .LVU1016
 314:user/htu21d/htu21d.c ****         goto i2c_fail;
 2428              		.loc 1 314 8 is_stmt 0 view .LVU1017
 2429 00ba 0028     		cmp	r0, #0
 2430 00bc D8D0     		beq	.L72
 318:user/htu21d/htu21d.c ****     NoAckBus();
 2431              		.loc 1 318 5 is_stmt 1 view .LVU1018
 2432              	.LBB336:
 2433              	.LBI336:
 198:user/htu21d/htu21d.c **** {
 2434              		.loc 1 198 16 view .LVU1019
 2435              	.LBB337:
 200:user/htu21d/htu21d.c ****     uint8_t i;
 2436              		.loc 1 200 5 view .LVU1020
 2437              	.LVL153:
 201:user/htu21d/htu21d.c **** 
 2438              		.loc 1 201 5 view .LVU1021
 203:user/htu21d/htu21d.c ****     for (i = 0; i < 8; i++) {
 2439              		.loc 1 203 5 view .LVU1022
 203:user/htu21d/htu21d.c ****     for (i = 0; i < 8; i++) {
 2440              		.loc 1 203 5 view .LVU1023
 2441              	.LBB338:
 2442              	.LBI338:
  70:user/htu21d/htu21d.c **** {
 2443              		.loc 1 70 13 view .LVU1024
 2444              	.LBB339:
  72:user/htu21d/htu21d.c **** 
 2445              		.loc 1 72 5 view .LVU1025
  74:user/htu21d/htu21d.c ****         GPIO_InitStructure.Pin = HTU21D_SDA_Pin;
 2446              		.loc 1 74 5 view .LVU1026
  80:user/htu21d/htu21d.c ****         GPIO_InitStructure.Mode = GPIO_MODE_INPUT;
 2447              		.loc 1 80 9 view .LVU1027
  81:user/htu21d/htu21d.c ****         GPIO_InitStructure.Pull = GPIO_PULLUP;
 2448              		.loc 1 81 9 view .LVU1028
  80:user/htu21d/htu21d.c ****         GPIO_InitStructure.Mode = GPIO_MODE_INPUT;
 2449              		.loc 1 80 32 is_stmt 0 view .LVU1029
 2450 00be 4FF08008 		mov	r8, #128
ARM GAS  C:\Users\WENHUA~1\AppData\Local\Temp\cc11gPXD.s 			page 68


 2451 00c2 4FF00009 		mov	r9, #0
  82:user/htu21d/htu21d.c ****         HAL_GPIO_Init(HTU21D_SDA_GPIO_Port, &GPIO_InitStructure);
 2452              		.loc 1 82 33 view .LVU1030
 2453 00c6 0123     		movs	r3, #1
  83:user/htu21d/htu21d.c ****     }
 2454              		.loc 1 83 9 view .LVU1031
 2455 00c8 5E48     		ldr	r0, .L106
 2456              	.LVL154:
  83:user/htu21d/htu21d.c ****     }
 2457              		.loc 1 83 9 view .LVU1032
 2458 00ca 6946     		mov	r1, sp
 2459 00cc 0824     		movs	r4, #8
 2460              	.LBE339:
 2461              	.LBE338:
 200:user/htu21d/htu21d.c ****     uint8_t i;
 2462              		.loc 1 200 13 view .LVU1033
 2463 00ce 0025     		movs	r5, #0
 205:user/htu21d/htu21d.c ****         DelayUs(HTU21D_I2C_DELAY);
 2464              		.loc 1 205 9 view .LVU1034
 2465 00d0 0646     		mov	r6, r0
 2466              	.LBB341:
 2467              	.LBB340:
  80:user/htu21d/htu21d.c ****         GPIO_InitStructure.Mode = GPIO_MODE_INPUT;
 2468              		.loc 1 80 32 view .LVU1035
 2469 00d2 CDE90089 		strd	r8, [sp]
  82:user/htu21d/htu21d.c ****         HAL_GPIO_Init(HTU21D_SDA_GPIO_Port, &GPIO_InitStructure);
 2470              		.loc 1 82 9 is_stmt 1 view .LVU1036
  82:user/htu21d/htu21d.c ****         HAL_GPIO_Init(HTU21D_SDA_GPIO_Port, &GPIO_InitStructure);
 2471              		.loc 1 82 33 is_stmt 0 view .LVU1037
 2472 00d6 0293     		str	r3, [sp, #8]
  83:user/htu21d/htu21d.c ****     }
 2473              		.loc 1 83 9 is_stmt 1 view .LVU1038
 2474 00d8 FFF7FEFF 		bl	HAL_GPIO_Init
 2475              	.LVL155:
  83:user/htu21d/htu21d.c ****     }
 2476              		.loc 1 83 9 is_stmt 0 view .LVU1039
 2477              	.LBE340:
 2478              	.LBE341:
 203:user/htu21d/htu21d.c ****     for (i = 0; i < 8; i++) {
 2479              		.loc 1 203 5 is_stmt 1 view .LVU1040
 204:user/htu21d/htu21d.c ****         HTU21D_SCL_HIGH();
 2480              		.loc 1 204 5 view .LVU1041
 204:user/htu21d/htu21d.c ****         HTU21D_SCL_HIGH();
 2481              		.loc 1 204 17 view .LVU1042
 2482              	.L74:
 205:user/htu21d/htu21d.c ****         DelayUs(HTU21D_I2C_DELAY);
 2483              		.loc 1 205 9 view .LVU1043
 205:user/htu21d/htu21d.c ****         DelayUs(HTU21D_I2C_DELAY);
 2484              		.loc 1 205 9 view .LVU1044
 2485 00dc 0122     		movs	r2, #1
 2486 00de 4021     		movs	r1, #64
 2487 00e0 3046     		mov	r0, r6
 2488 00e2 FFF7FEFF 		bl	HAL_GPIO_WritePin
 2489              	.LVL156:
 205:user/htu21d/htu21d.c ****         DelayUs(HTU21D_I2C_DELAY);
 2490              		.loc 1 205 9 view .LVU1045
 206:user/htu21d/htu21d.c ****         value <<= 1;
ARM GAS  C:\Users\WENHUA~1\AppData\Local\Temp\cc11gPXD.s 			page 69


 2491              		.loc 1 206 9 view .LVU1046
 206:user/htu21d/htu21d.c ****         value <<= 1;
 2492              		.loc 1 206 9 is_stmt 0 view .LVU1047
 2493              	.LBE337:
 2494              	.LBE336:
 2495              	.LBE379:
 2496              	.LBE400:
  65:user/htu21d/htu21d.c **** 
 2497              		.loc 1 65 5 is_stmt 1 view .LVU1048
  67:user/htu21d/htu21d.c **** }
 2498              		.loc 1 67 5 view .LVU1049
  67:user/htu21d/htu21d.c **** }
 2499              		.loc 1 67 20 view .LVU1050
  67:user/htu21d/htu21d.c **** }
 2500              		.loc 1 67 11 view .LVU1051
 2501              	.LBB401:
 2502              	.LBB380:
 2503              	.LBB347:
 2504              	.LBB346:
 207:user/htu21d/htu21d.c ****         if (HAL_GPIO_ReadPin(HTU21D_SDA_GPIO_Port, HTU21D_SDA_Pin) == GPIO_PIN_SET) {
 2505              		.loc 1 207 9 view .LVU1052
 208:user/htu21d/htu21d.c ****             value += 1;
 2506              		.loc 1 208 13 is_stmt 0 view .LVU1053
 2507 00e6 8021     		movs	r1, #128
 2508 00e8 3046     		mov	r0, r6
 2509 00ea FFF7FEFF 		bl	HAL_GPIO_ReadPin
 2510              	.LVL157:
 2511 00ee 0346     		mov	r3, r0
 207:user/htu21d/htu21d.c ****         if (HAL_GPIO_ReadPin(HTU21D_SDA_GPIO_Port, HTU21D_SDA_Pin) == GPIO_PIN_SET) {
 2512              		.loc 1 207 15 view .LVU1054
 2513 00f0 6D00     		lsls	r5, r5, #1
 2514              	.LVL158:
 208:user/htu21d/htu21d.c ****             value += 1;
 2515              		.loc 1 208 12 view .LVU1055
 2516 00f2 012B     		cmp	r3, #1
 207:user/htu21d/htu21d.c ****         if (HAL_GPIO_ReadPin(HTU21D_SDA_GPIO_Port, HTU21D_SDA_Pin) == GPIO_PIN_SET) {
 2517              		.loc 1 207 15 view .LVU1056
 2518 00f4 EDB2     		uxtb	r5, r5
 2519              	.LVL159:
 208:user/htu21d/htu21d.c ****             value += 1;
 2520              		.loc 1 208 9 is_stmt 1 view .LVU1057
 209:user/htu21d/htu21d.c ****         }
 2521              		.loc 1 209 13 view .LVU1058
 209:user/htu21d/htu21d.c ****         }
 2522              		.loc 1 209 19 is_stmt 0 view .LVU1059
 2523 00f6 08BF     		it	eq
 2524 00f8 0135     		addeq	r5, r5, #1
 2525              	.LVL160:
 211:user/htu21d/htu21d.c ****     }
 2526              		.loc 1 211 9 view .LVU1060
 2527 00fa 4FF00002 		mov	r2, #0
 2528 00fe 4FF04001 		mov	r1, #64
 2529 0102 3046     		mov	r0, r6
 204:user/htu21d/htu21d.c ****         HTU21D_SCL_HIGH();
 2530              		.loc 1 204 5 view .LVU1061
 2531 0104 04F1FF34 		add	r4, r4, #-1
 209:user/htu21d/htu21d.c ****         }
ARM GAS  C:\Users\WENHUA~1\AppData\Local\Temp\cc11gPXD.s 			page 70


 2532              		.loc 1 209 19 view .LVU1062
 2533 0108 08BF     		it	eq
 2534 010a EDB2     		uxtbeq	r5, r5
 2535              	.LVL161:
 211:user/htu21d/htu21d.c ****     }
 2536              		.loc 1 211 9 is_stmt 1 view .LVU1063
 211:user/htu21d/htu21d.c ****     }
 2537              		.loc 1 211 9 view .LVU1064
 2538 010c FFF7FEFF 		bl	HAL_GPIO_WritePin
 2539              	.LVL162:
 211:user/htu21d/htu21d.c ****     }
 2540              		.loc 1 211 9 view .LVU1065
 204:user/htu21d/htu21d.c ****         HTU21D_SCL_HIGH();
 2541              		.loc 1 204 24 view .LVU1066
 204:user/htu21d/htu21d.c ****         HTU21D_SCL_HIGH();
 2542              		.loc 1 204 17 view .LVU1067
 204:user/htu21d/htu21d.c ****         HTU21D_SCL_HIGH();
 2543              		.loc 1 204 5 is_stmt 0 view .LVU1068
 2544 0110 14F0FF04 		ands	r4, r4, #255
 2545 0114 E2D1     		bne	.L74
 213:user/htu21d/htu21d.c **** 
 2546              		.loc 1 213 5 is_stmt 1 view .LVU1069
 213:user/htu21d/htu21d.c **** 
 2547              		.loc 1 213 5 view .LVU1070
 2548              	.LVL163:
 2549              	.LBB342:
 2550              	.LBI342:
  70:user/htu21d/htu21d.c **** {
 2551              		.loc 1 70 13 view .LVU1071
 2552              	.LBB343:
  72:user/htu21d/htu21d.c **** 
 2553              		.loc 1 72 5 view .LVU1072
  74:user/htu21d/htu21d.c ****         GPIO_InitStructure.Pin = HTU21D_SDA_Pin;
 2554              		.loc 1 74 5 view .LVU1073
 2555              	.LBB344:
 2556              	.LBI344:
  70:user/htu21d/htu21d.c **** {
 2557              		.loc 1 70 13 view .LVU1074
 2558              	.LBB345:
  75:user/htu21d/htu21d.c ****         GPIO_InitStructure.Mode = GPIO_MODE_OUTPUT_OD;
 2559              		.loc 1 75 9 view .LVU1075
  76:user/htu21d/htu21d.c ****         GPIO_InitStructure.Speed = GPIO_SPEED_FREQ_LOW;
 2560              		.loc 1 76 9 view .LVU1076
  77:user/htu21d/htu21d.c ****         HAL_GPIO_Init(HTU21D_SDA_GPIO_Port, &GPIO_InitStructure);
 2561              		.loc 1 77 34 is_stmt 0 view .LVU1077
 2562 0116 0220     		movs	r0, #2
  75:user/htu21d/htu21d.c ****         GPIO_InitStructure.Mode = GPIO_MODE_OUTPUT_OD;
 2563              		.loc 1 75 32 view .LVU1078
 2564 0118 1123     		movs	r3, #17
 2565 011a 8022     		movs	r2, #128
  78:user/htu21d/htu21d.c ****     } else {
 2566              		.loc 1 78 9 view .LVU1079
 2567 011c 6946     		mov	r1, sp
  77:user/htu21d/htu21d.c ****         HAL_GPIO_Init(HTU21D_SDA_GPIO_Port, &GPIO_InitStructure);
 2568              		.loc 1 77 34 view .LVU1080
 2569 011e 0390     		str	r0, [sp, #12]
  78:user/htu21d/htu21d.c ****     } else {
ARM GAS  C:\Users\WENHUA~1\AppData\Local\Temp\cc11gPXD.s 			page 71


 2570              		.loc 1 78 9 view .LVU1081
 2571 0120 4848     		ldr	r0, .L106
  75:user/htu21d/htu21d.c ****         GPIO_InitStructure.Mode = GPIO_MODE_OUTPUT_OD;
 2572              		.loc 1 75 32 view .LVU1082
 2573 0122 CDE90023 		strd	r2, [sp]
  77:user/htu21d/htu21d.c ****         HAL_GPIO_Init(HTU21D_SDA_GPIO_Port, &GPIO_InitStructure);
 2574              		.loc 1 77 9 is_stmt 1 view .LVU1083
  78:user/htu21d/htu21d.c ****     } else {
 2575              		.loc 1 78 9 view .LVU1084
 2576 0126 FFF7FEFF 		bl	HAL_GPIO_Init
 2577              	.LVL164:
  78:user/htu21d/htu21d.c ****     } else {
 2578              		.loc 1 78 9 is_stmt 0 view .LVU1085
 2579              	.LBE345:
 2580              	.LBE344:
 2581              	.LBE343:
 2582              	.LBE342:
 213:user/htu21d/htu21d.c **** 
 2583              		.loc 1 213 5 is_stmt 1 view .LVU1086
 215:user/htu21d/htu21d.c **** }
 2584              		.loc 1 215 5 view .LVU1087
 215:user/htu21d/htu21d.c **** }
 2585              		.loc 1 215 5 is_stmt 0 view .LVU1088
 2586              	.LBE346:
 2587              	.LBE347:
 319:user/htu21d/htu21d.c **** 
 2588              		.loc 1 319 5 is_stmt 1 view .LVU1089
 2589              	.LBB348:
 2590              	.LBI348:
 123:user/htu21d/htu21d.c **** {
 2591              		.loc 1 123 13 view .LVU1090
 2592              	.LBB349:
 125:user/htu21d/htu21d.c ****     DelayUs(HTU21D_I2C_DELAY);
 2593              		.loc 1 125 5 view .LVU1091
 125:user/htu21d/htu21d.c ****     DelayUs(HTU21D_I2C_DELAY);
 2594              		.loc 1 125 5 view .LVU1092
 2595 012a 0122     		movs	r2, #1
 2596 012c 8021     		movs	r1, #128
 2597 012e 4548     		ldr	r0, .L106
 2598 0130 FFF7FEFF 		bl	HAL_GPIO_WritePin
 2599              	.LVL165:
 125:user/htu21d/htu21d.c ****     DelayUs(HTU21D_I2C_DELAY);
 2600              		.loc 1 125 5 view .LVU1093
 126:user/htu21d/htu21d.c ****     HTU21D_SCL_HIGH();
 2601              		.loc 1 126 5 view .LVU1094
 126:user/htu21d/htu21d.c ****     HTU21D_SCL_HIGH();
 2602              		.loc 1 126 5 is_stmt 0 view .LVU1095
 2603              	.LBE349:
 2604              	.LBE348:
 2605              	.LBE380:
 2606              	.LBE401:
  65:user/htu21d/htu21d.c **** 
 2607              		.loc 1 65 5 is_stmt 1 view .LVU1096
  67:user/htu21d/htu21d.c **** }
 2608              		.loc 1 67 5 view .LVU1097
  67:user/htu21d/htu21d.c **** }
 2609              		.loc 1 67 20 view .LVU1098
ARM GAS  C:\Users\WENHUA~1\AppData\Local\Temp\cc11gPXD.s 			page 72


  67:user/htu21d/htu21d.c **** }
 2610              		.loc 1 67 11 view .LVU1099
 2611              	.LBB402:
 2612              	.LBB381:
 2613              	.LBB352:
 2614              	.LBB350:
 127:user/htu21d/htu21d.c ****     DelayUs(HTU21D_I2C_DELAY);
 2615              		.loc 1 127 5 view .LVU1100
 127:user/htu21d/htu21d.c ****     DelayUs(HTU21D_I2C_DELAY);
 2616              		.loc 1 127 5 view .LVU1101
 2617 0134 4021     		movs	r1, #64
 2618 0136 0122     		movs	r2, #1
 2619 0138 4248     		ldr	r0, .L106
 2620 013a FFF7FEFF 		bl	HAL_GPIO_WritePin
 2621              	.LVL166:
 127:user/htu21d/htu21d.c ****     DelayUs(HTU21D_I2C_DELAY);
 2622              		.loc 1 127 5 view .LVU1102
 128:user/htu21d/htu21d.c ****     HTU21D_SCL_LOW();
 2623              		.loc 1 128 5 view .LVU1103
 128:user/htu21d/htu21d.c ****     HTU21D_SCL_LOW();
 2624              		.loc 1 128 5 is_stmt 0 view .LVU1104
 2625              	.LBE350:
 2626              	.LBE352:
 2627              	.LBE381:
 2628              	.LBE402:
  65:user/htu21d/htu21d.c **** 
 2629              		.loc 1 65 5 is_stmt 1 view .LVU1105
  67:user/htu21d/htu21d.c **** }
 2630              		.loc 1 67 5 view .LVU1106
  67:user/htu21d/htu21d.c **** }
 2631              		.loc 1 67 20 view .LVU1107
  67:user/htu21d/htu21d.c **** }
 2632              		.loc 1 67 11 view .LVU1108
 2633              	.LBB403:
 2634              	.LBB382:
 2635              	.LBB353:
 2636              	.LBB351:
 129:user/htu21d/htu21d.c **** }
 2637              		.loc 1 129 5 view .LVU1109
 129:user/htu21d/htu21d.c **** }
 2638              		.loc 1 129 5 view .LVU1110
 2639 013e 2246     		mov	r2, r4
 2640 0140 4021     		movs	r1, #64
 2641 0142 4048     		ldr	r0, .L106
 2642 0144 FFF7FEFF 		bl	HAL_GPIO_WritePin
 2643              	.LVL167:
 129:user/htu21d/htu21d.c **** }
 2644              		.loc 1 129 5 view .LVU1111
 2645              	.LBE351:
 2646              	.LBE353:
 321:user/htu21d/htu21d.c ****     err = WriteByte(SlaveAddr | Write);
 2647              		.loc 1 321 5 view .LVU1112
 2648              	.LBB354:
 2649              	.LBI354:
  87:user/htu21d/htu21d.c **** {
 2650              		.loc 1 87 13 view .LVU1113
 2651              	.LBB355:
ARM GAS  C:\Users\WENHUA~1\AppData\Local\Temp\cc11gPXD.s 			page 73


  89:user/htu21d/htu21d.c ****     DelayUs(HTU21D_I2C_DELAY);
 2652              		.loc 1 89 5 view .LVU1114
  89:user/htu21d/htu21d.c ****     DelayUs(HTU21D_I2C_DELAY);
 2653              		.loc 1 89 5 view .LVU1115
 2654 0148 0122     		movs	r2, #1
 2655 014a 8021     		movs	r1, #128
 2656 014c 3D48     		ldr	r0, .L106
 2657 014e FFF7FEFF 		bl	HAL_GPIO_WritePin
 2658              	.LVL168:
  89:user/htu21d/htu21d.c ****     DelayUs(HTU21D_I2C_DELAY);
 2659              		.loc 1 89 5 view .LVU1116
  90:user/htu21d/htu21d.c ****     HTU21D_SCL_HIGH();
 2660              		.loc 1 90 5 view .LVU1117
  90:user/htu21d/htu21d.c ****     HTU21D_SCL_HIGH();
 2661              		.loc 1 90 5 is_stmt 0 view .LVU1118
 2662              	.LBE355:
 2663              	.LBE354:
 2664              	.LBE382:
 2665              	.LBE403:
  65:user/htu21d/htu21d.c **** 
 2666              		.loc 1 65 5 is_stmt 1 view .LVU1119
  67:user/htu21d/htu21d.c **** }
 2667              		.loc 1 67 5 view .LVU1120
  67:user/htu21d/htu21d.c **** }
 2668              		.loc 1 67 20 view .LVU1121
  67:user/htu21d/htu21d.c **** }
 2669              		.loc 1 67 11 view .LVU1122
 2670              	.LBB404:
 2671              	.LBB383:
 2672              	.LBB359:
 2673              	.LBB356:
  91:user/htu21d/htu21d.c ****     DelayUs(HTU21D_I2C_DELAY);
 2674              		.loc 1 91 5 view .LVU1123
  91:user/htu21d/htu21d.c ****     DelayUs(HTU21D_I2C_DELAY);
 2675              		.loc 1 91 5 view .LVU1124
 2676 0152 4021     		movs	r1, #64
 2677 0154 0122     		movs	r2, #1
 2678 0156 3B48     		ldr	r0, .L106
 2679 0158 FFF7FEFF 		bl	HAL_GPIO_WritePin
 2680              	.LVL169:
  91:user/htu21d/htu21d.c ****     DelayUs(HTU21D_I2C_DELAY);
 2681              		.loc 1 91 5 view .LVU1125
  92:user/htu21d/htu21d.c ****     HTU21D_SDA_LOW();
 2682              		.loc 1 92 5 view .LVU1126
  92:user/htu21d/htu21d.c ****     HTU21D_SDA_LOW();
 2683              		.loc 1 92 5 is_stmt 0 view .LVU1127
 2684              	.LBE356:
 2685              	.LBE359:
 2686              	.LBE383:
 2687              	.LBE404:
  65:user/htu21d/htu21d.c **** 
 2688              		.loc 1 65 5 is_stmt 1 view .LVU1128
  67:user/htu21d/htu21d.c **** }
 2689              		.loc 1 67 5 view .LVU1129
  67:user/htu21d/htu21d.c **** }
 2690              		.loc 1 67 20 view .LVU1130
  67:user/htu21d/htu21d.c **** }
ARM GAS  C:\Users\WENHUA~1\AppData\Local\Temp\cc11gPXD.s 			page 74


 2691              		.loc 1 67 11 view .LVU1131
 2692              	.LBB405:
 2693              	.LBB384:
 2694              	.LBB360:
 2695              	.LBB357:
  93:user/htu21d/htu21d.c ****     DelayUs(HTU21D_I2C_DELAY);
 2696              		.loc 1 93 5 view .LVU1132
  93:user/htu21d/htu21d.c ****     DelayUs(HTU21D_I2C_DELAY);
 2697              		.loc 1 93 5 view .LVU1133
 2698 015c 2246     		mov	r2, r4
 2699 015e 8021     		movs	r1, #128
 2700 0160 3848     		ldr	r0, .L106
 2701 0162 FFF7FEFF 		bl	HAL_GPIO_WritePin
 2702              	.LVL170:
  93:user/htu21d/htu21d.c ****     DelayUs(HTU21D_I2C_DELAY);
 2703              		.loc 1 93 5 view .LVU1134
  94:user/htu21d/htu21d.c ****     HTU21D_SCL_LOW();
 2704              		.loc 1 94 5 view .LVU1135
  94:user/htu21d/htu21d.c ****     HTU21D_SCL_LOW();
 2705              		.loc 1 94 5 is_stmt 0 view .LVU1136
 2706              	.LBE357:
 2707              	.LBE360:
 2708              	.LBE384:
 2709              	.LBE405:
  65:user/htu21d/htu21d.c **** 
 2710              		.loc 1 65 5 is_stmt 1 view .LVU1137
  67:user/htu21d/htu21d.c **** }
 2711              		.loc 1 67 5 view .LVU1138
  67:user/htu21d/htu21d.c **** }
 2712              		.loc 1 67 20 view .LVU1139
  67:user/htu21d/htu21d.c **** }
 2713              		.loc 1 67 11 view .LVU1140
 2714              	.LBB406:
 2715              	.LBB385:
 2716              	.LBB361:
 2717              	.LBB358:
  95:user/htu21d/htu21d.c ****     DelayUs(HTU21D_I2C_DELAY);
 2718              		.loc 1 95 5 view .LVU1141
  95:user/htu21d/htu21d.c ****     DelayUs(HTU21D_I2C_DELAY);
 2719              		.loc 1 95 5 view .LVU1142
 2720 0166 3748     		ldr	r0, .L106
 2721 0168 2246     		mov	r2, r4
 2722 016a 4021     		movs	r1, #64
 2723 016c FFF7FEFF 		bl	HAL_GPIO_WritePin
 2724              	.LVL171:
  95:user/htu21d/htu21d.c ****     DelayUs(HTU21D_I2C_DELAY);
 2725              		.loc 1 95 5 view .LVU1143
  96:user/htu21d/htu21d.c **** }
 2726              		.loc 1 96 5 view .LVU1144
  96:user/htu21d/htu21d.c **** }
 2727              		.loc 1 96 5 is_stmt 0 view .LVU1145
 2728              	.LBE358:
 2729              	.LBE361:
 2730              	.LBE385:
 2731              	.LBE406:
  65:user/htu21d/htu21d.c **** 
 2732              		.loc 1 65 5 is_stmt 1 view .LVU1146
ARM GAS  C:\Users\WENHUA~1\AppData\Local\Temp\cc11gPXD.s 			page 75


  67:user/htu21d/htu21d.c **** }
 2733              		.loc 1 67 5 view .LVU1147
  67:user/htu21d/htu21d.c **** }
 2734              		.loc 1 67 20 view .LVU1148
  67:user/htu21d/htu21d.c **** }
 2735              		.loc 1 67 11 view .LVU1149
 2736              	.LBB407:
 2737              	.LBB386:
 322:user/htu21d/htu21d.c ****     if (err == 0) {
 2738              		.loc 1 322 5 view .LVU1150
 322:user/htu21d/htu21d.c ****     if (err == 0) {
 2739              		.loc 1 322 11 is_stmt 0 view .LVU1151
 2740 0170 8020     		movs	r0, #128
 2741 0172 FFF7FEFF 		bl	WriteByte
 2742              	.LVL172:
 323:user/htu21d/htu21d.c ****         goto i2c_fail;
 2743              		.loc 1 323 5 is_stmt 1 view .LVU1152
 323:user/htu21d/htu21d.c ****         goto i2c_fail;
 2744              		.loc 1 323 8 is_stmt 0 view .LVU1153
 2745 0176 0028     		cmp	r0, #0
 2746 0178 3FF47AAF 		beq	.L72
 327:user/htu21d/htu21d.c ****     if (err == 0) {
 2747              		.loc 1 327 5 is_stmt 1 view .LVU1154
 327:user/htu21d/htu21d.c ****     if (err == 0) {
 2748              		.loc 1 327 11 is_stmt 0 view .LVU1155
 2749 017c E620     		movs	r0, #230
 2750              	.LVL173:
 327:user/htu21d/htu21d.c ****     if (err == 0) {
 2751              		.loc 1 327 11 view .LVU1156
 2752 017e FFF7FEFF 		bl	WriteByte
 2753              	.LVL174:
 328:user/htu21d/htu21d.c ****         goto i2c_fail;
 2754              		.loc 1 328 5 is_stmt 1 view .LVU1157
 328:user/htu21d/htu21d.c ****         goto i2c_fail;
 2755              		.loc 1 328 8 is_stmt 0 view .LVU1158
 2756 0182 0028     		cmp	r0, #0
 2757 0184 3FF474AF 		beq	.L72
 332:user/htu21d/htu21d.c ****     if (err == 0) {
 2758              		.loc 1 332 5 is_stmt 1 view .LVU1159
 332:user/htu21d/htu21d.c ****     if (err == 0) {
 2759              		.loc 1 332 30 is_stmt 0 view .LVU1160
 2760 0188 05F03800 		and	r0, r5, #56
 2761              	.LVL175:
 332:user/htu21d/htu21d.c ****     if (err == 0) {
 2762              		.loc 1 332 11 view .LVU1161
 2763 018c 40F00200 		orr	r0, r0, #2
 2764 0190 FFF7FEFF 		bl	WriteByte
 2765              	.LVL176:
 333:user/htu21d/htu21d.c ****         goto i2c_fail;
 2766              		.loc 1 333 5 is_stmt 1 view .LVU1162
 333:user/htu21d/htu21d.c ****         goto i2c_fail;
 2767              		.loc 1 333 8 is_stmt 0 view .LVU1163
 2768 0194 0028     		cmp	r0, #0
 2769 0196 3FF46BAF 		beq	.L72
 337:user/htu21d/htu21d.c **** 
 2770              		.loc 1 337 5 is_stmt 1 view .LVU1164
 2771              	.LBB362:
ARM GAS  C:\Users\WENHUA~1\AppData\Local\Temp\cc11gPXD.s 			page 76


 2772              	.LBI362:
  99:user/htu21d/htu21d.c **** {
 2773              		.loc 1 99 13 view .LVU1165
 2774              	.LBB363:
 101:user/htu21d/htu21d.c ****     DelayUs(HTU21D_I2C_DELAY);
 2775              		.loc 1 101 5 view .LVU1166
 101:user/htu21d/htu21d.c ****     DelayUs(HTU21D_I2C_DELAY);
 2776              		.loc 1 101 5 view .LVU1167
 2777 019a 2246     		mov	r2, r4
 2778 019c 8021     		movs	r1, #128
 2779 019e 2948     		ldr	r0, .L106
 2780              	.LVL177:
 101:user/htu21d/htu21d.c ****     DelayUs(HTU21D_I2C_DELAY);
 2781              		.loc 1 101 5 is_stmt 0 view .LVU1168
 2782 01a0 FFF7FEFF 		bl	HAL_GPIO_WritePin
 2783              	.LVL178:
 101:user/htu21d/htu21d.c ****     DelayUs(HTU21D_I2C_DELAY);
 2784              		.loc 1 101 5 is_stmt 1 view .LVU1169
 102:user/htu21d/htu21d.c ****     HTU21D_SCL_HIGH();
 2785              		.loc 1 102 5 view .LVU1170
 102:user/htu21d/htu21d.c ****     HTU21D_SCL_HIGH();
 2786              		.loc 1 102 5 is_stmt 0 view .LVU1171
 2787              	.LBE363:
 2788              	.LBE362:
 2789              	.LBE386:
 2790              	.LBE407:
  65:user/htu21d/htu21d.c **** 
 2791              		.loc 1 65 5 is_stmt 1 view .LVU1172
  67:user/htu21d/htu21d.c **** }
 2792              		.loc 1 67 5 view .LVU1173
  67:user/htu21d/htu21d.c **** }
 2793              		.loc 1 67 20 view .LVU1174
  67:user/htu21d/htu21d.c **** }
 2794              		.loc 1 67 11 view .LVU1175
 2795              	.LBB408:
 2796              	.LBB387:
 2797              	.LBB367:
 2798              	.LBB364:
 103:user/htu21d/htu21d.c ****     DelayUs(HTU21D_I2C_DELAY);
 2799              		.loc 1 103 5 view .LVU1176
 103:user/htu21d/htu21d.c ****     DelayUs(HTU21D_I2C_DELAY);
 2800              		.loc 1 103 5 view .LVU1177
 2801 01a4 0122     		movs	r2, #1
 2802 01a6 4021     		movs	r1, #64
 2803 01a8 2648     		ldr	r0, .L106
 2804 01aa FFF7FEFF 		bl	HAL_GPIO_WritePin
 2805              	.LVL179:
 103:user/htu21d/htu21d.c ****     DelayUs(HTU21D_I2C_DELAY);
 2806              		.loc 1 103 5 view .LVU1178
 104:user/htu21d/htu21d.c ****     HTU21D_SDA_HIGH();
 2807              		.loc 1 104 5 view .LVU1179
 104:user/htu21d/htu21d.c ****     HTU21D_SDA_HIGH();
 2808              		.loc 1 104 5 is_stmt 0 view .LVU1180
 2809              	.LBE364:
 2810              	.LBE367:
 2811              	.LBE387:
 2812              	.LBE408:
ARM GAS  C:\Users\WENHUA~1\AppData\Local\Temp\cc11gPXD.s 			page 77


  65:user/htu21d/htu21d.c **** 
 2813              		.loc 1 65 5 is_stmt 1 view .LVU1181
  67:user/htu21d/htu21d.c **** }
 2814              		.loc 1 67 5 view .LVU1182
  67:user/htu21d/htu21d.c **** }
 2815              		.loc 1 67 20 view .LVU1183
  67:user/htu21d/htu21d.c **** }
 2816              		.loc 1 67 11 view .LVU1184
 2817              	.LBB409:
 2818              	.LBB388:
 2819              	.LBB368:
 2820              	.LBB365:
 105:user/htu21d/htu21d.c ****     DelayUs(HTU21D_I2C_DELAY);
 2821              		.loc 1 105 5 view .LVU1185
 105:user/htu21d/htu21d.c ****     DelayUs(HTU21D_I2C_DELAY);
 2822              		.loc 1 105 5 view .LVU1186
 2823              	.LBE365:
 2824              	.LBE368:
 339:user/htu21d/htu21d.c ****     return true;
 2825              		.loc 1 339 15 is_stmt 0 view .LVU1187
 2826 01ae 264D     		ldr	r5, .L106+4
 2827              	.LVL180:
 2828              	.LBB369:
 2829              	.LBB366:
 105:user/htu21d/htu21d.c ****     DelayUs(HTU21D_I2C_DELAY);
 2830              		.loc 1 105 5 view .LVU1188
 2831 01b0 0122     		movs	r2, #1
 2832 01b2 8021     		movs	r1, #128
 2833 01b4 2348     		ldr	r0, .L106
 2834 01b6 FFF7FEFF 		bl	HAL_GPIO_WritePin
 2835              	.LVL181:
 105:user/htu21d/htu21d.c ****     DelayUs(HTU21D_I2C_DELAY);
 2836              		.loc 1 105 5 is_stmt 1 view .LVU1189
 106:user/htu21d/htu21d.c **** }
 2837              		.loc 1 106 5 view .LVU1190
 106:user/htu21d/htu21d.c **** }
 2838              		.loc 1 106 5 is_stmt 0 view .LVU1191
 2839              	.LBE366:
 2840              	.LBE369:
 2841              	.LBE388:
 2842              	.LBE409:
  65:user/htu21d/htu21d.c **** 
 2843              		.loc 1 65 5 is_stmt 1 view .LVU1192
  67:user/htu21d/htu21d.c **** }
 2844              		.loc 1 67 5 view .LVU1193
  67:user/htu21d/htu21d.c **** }
 2845              		.loc 1 67 20 view .LVU1194
  67:user/htu21d/htu21d.c **** }
 2846              		.loc 1 67 11 view .LVU1195
 2847              	.LBB410:
 2848              	.LBB389:
 339:user/htu21d/htu21d.c ****     return true;
 2849              		.loc 1 339 5 view .LVU1196
 2850              	.LBE389:
 2851              	.LBE410:
 2852              	.LBB411:
 2853              	.LBB412:
ARM GAS  C:\Users\WENHUA~1\AppData\Local\Temp\cc11gPXD.s 			page 78


 404:user/htu21d/htu21d.c ****     HTU21D_Reset();
 2854              		.loc 1 404 5 is_stmt 0 view .LVU1197
 2855 01ba 0A20     		movs	r0, #10
 2856              	.LBE412:
 2857              	.LBE411:
 2858              	.LBB454:
 2859              	.LBB390:
 339:user/htu21d/htu21d.c ****     return true;
 2860              		.loc 1 339 15 view .LVU1198
 2861 01bc 2C70     		strb	r4, [r5]
 340:user/htu21d/htu21d.c **** 
 2862              		.loc 1 340 5 is_stmt 1 view .LVU1199
 340:user/htu21d/htu21d.c **** 
 2863              		.loc 1 340 5 is_stmt 0 view .LVU1200
 2864              	.LBE390:
 2865              	.LBE454:
 2866              	.LBB455:
 2867              	.LBI411:
 397:user/htu21d/htu21d.c **** {
 2868              		.loc 1 397 6 is_stmt 1 view .LVU1201
 2869              	.LBB445:
 404:user/htu21d/htu21d.c ****     HTU21D_Reset();
 2870              		.loc 1 404 5 view .LVU1202
 2871 01be FFF7FEFF 		bl	HAL_Delay
 2872              	.LVL182:
 405:user/htu21d/htu21d.c ****     HAL_Delay(100);
 2873              		.loc 1 405 5 view .LVU1203
 2874              	.LBB413:
 2875              	.LBI413:
 347:user/htu21d/htu21d.c **** {
 2876              		.loc 1 347 16 view .LVU1204
 2877              	.LBB414:
 349:user/htu21d/htu21d.c **** 
 2878              		.loc 1 349 5 view .LVU1205
 351:user/htu21d/htu21d.c ****     status = WriteByte(SlaveAddr | Write);
 2879              		.loc 1 351 5 view .LVU1206
 2880              	.LBB415:
 2881              	.LBI415:
  87:user/htu21d/htu21d.c **** {
 2882              		.loc 1 87 13 view .LVU1207
 2883              	.LBB416:
  89:user/htu21d/htu21d.c ****     DelayUs(HTU21D_I2C_DELAY);
 2884              		.loc 1 89 5 view .LVU1208
  89:user/htu21d/htu21d.c ****     DelayUs(HTU21D_I2C_DELAY);
 2885              		.loc 1 89 5 view .LVU1209
 2886 01c2 0122     		movs	r2, #1
 2887 01c4 8021     		movs	r1, #128
 2888 01c6 1F48     		ldr	r0, .L106
 2889 01c8 FFF7FEFF 		bl	HAL_GPIO_WritePin
 2890              	.LVL183:
  89:user/htu21d/htu21d.c ****     DelayUs(HTU21D_I2C_DELAY);
 2891              		.loc 1 89 5 view .LVU1210
  90:user/htu21d/htu21d.c ****     HTU21D_SCL_HIGH();
 2892              		.loc 1 90 5 view .LVU1211
  90:user/htu21d/htu21d.c ****     HTU21D_SCL_HIGH();
 2893              		.loc 1 90 5 is_stmt 0 view .LVU1212
 2894              	.LBE416:
ARM GAS  C:\Users\WENHUA~1\AppData\Local\Temp\cc11gPXD.s 			page 79


 2895              	.LBE415:
 2896              	.LBE414:
 2897              	.LBE413:
 2898              	.LBE445:
 2899              	.LBE455:
  65:user/htu21d/htu21d.c **** 
 2900              		.loc 1 65 5 is_stmt 1 view .LVU1213
  67:user/htu21d/htu21d.c **** }
 2901              		.loc 1 67 5 view .LVU1214
  67:user/htu21d/htu21d.c **** }
 2902              		.loc 1 67 20 view .LVU1215
  67:user/htu21d/htu21d.c **** }
 2903              		.loc 1 67 11 view .LVU1216
 2904              	.LBB456:
 2905              	.LBB446:
 2906              	.LBB437:
 2907              	.LBB429:
 2908              	.LBB420:
 2909              	.LBB417:
  91:user/htu21d/htu21d.c ****     DelayUs(HTU21D_I2C_DELAY);
 2910              		.loc 1 91 5 view .LVU1217
  91:user/htu21d/htu21d.c ****     DelayUs(HTU21D_I2C_DELAY);
 2911              		.loc 1 91 5 view .LVU1218
 2912 01cc 4021     		movs	r1, #64
 2913 01ce 0122     		movs	r2, #1
 2914 01d0 1C48     		ldr	r0, .L106
 2915 01d2 FFF7FEFF 		bl	HAL_GPIO_WritePin
 2916              	.LVL184:
  91:user/htu21d/htu21d.c ****     DelayUs(HTU21D_I2C_DELAY);
 2917              		.loc 1 91 5 view .LVU1219
  92:user/htu21d/htu21d.c ****     HTU21D_SDA_LOW();
 2918              		.loc 1 92 5 view .LVU1220
  92:user/htu21d/htu21d.c ****     HTU21D_SDA_LOW();
 2919              		.loc 1 92 5 is_stmt 0 view .LVU1221
 2920              	.LBE417:
 2921              	.LBE420:
 2922              	.LBE429:
 2923              	.LBE437:
 2924              	.LBE446:
 2925              	.LBE456:
  65:user/htu21d/htu21d.c **** 
 2926              		.loc 1 65 5 is_stmt 1 view .LVU1222
  67:user/htu21d/htu21d.c **** }
 2927              		.loc 1 67 5 view .LVU1223
  67:user/htu21d/htu21d.c **** }
 2928              		.loc 1 67 20 view .LVU1224
  67:user/htu21d/htu21d.c **** }
 2929              		.loc 1 67 11 view .LVU1225
 2930              	.LBB457:
 2931              	.LBB447:
 2932              	.LBB438:
 2933              	.LBB430:
 2934              	.LBB421:
 2935              	.LBB418:
  93:user/htu21d/htu21d.c ****     DelayUs(HTU21D_I2C_DELAY);
 2936              		.loc 1 93 5 view .LVU1226
  93:user/htu21d/htu21d.c ****     DelayUs(HTU21D_I2C_DELAY);
ARM GAS  C:\Users\WENHUA~1\AppData\Local\Temp\cc11gPXD.s 			page 80


 2937              		.loc 1 93 5 view .LVU1227
 2938 01d6 2246     		mov	r2, r4
 2939 01d8 8021     		movs	r1, #128
 2940 01da 1A48     		ldr	r0, .L106
 2941 01dc FFF7FEFF 		bl	HAL_GPIO_WritePin
 2942              	.LVL185:
  93:user/htu21d/htu21d.c ****     DelayUs(HTU21D_I2C_DELAY);
 2943              		.loc 1 93 5 view .LVU1228
  94:user/htu21d/htu21d.c ****     HTU21D_SCL_LOW();
 2944              		.loc 1 94 5 view .LVU1229
  94:user/htu21d/htu21d.c ****     HTU21D_SCL_LOW();
 2945              		.loc 1 94 5 is_stmt 0 view .LVU1230
 2946              	.LBE418:
 2947              	.LBE421:
 2948              	.LBE430:
 2949              	.LBE438:
 2950              	.LBE447:
 2951              	.LBE457:
  65:user/htu21d/htu21d.c **** 
 2952              		.loc 1 65 5 is_stmt 1 view .LVU1231
  67:user/htu21d/htu21d.c **** }
 2953              		.loc 1 67 5 view .LVU1232
  67:user/htu21d/htu21d.c **** }
 2954              		.loc 1 67 20 view .LVU1233
  67:user/htu21d/htu21d.c **** }
 2955              		.loc 1 67 11 view .LVU1234
 2956              	.LBB458:
 2957              	.LBB448:
 2958              	.LBB439:
 2959              	.LBB431:
 2960              	.LBB422:
 2961              	.LBB419:
  95:user/htu21d/htu21d.c ****     DelayUs(HTU21D_I2C_DELAY);
 2962              		.loc 1 95 5 view .LVU1235
  95:user/htu21d/htu21d.c ****     DelayUs(HTU21D_I2C_DELAY);
 2963              		.loc 1 95 5 view .LVU1236
 2964 01e0 1848     		ldr	r0, .L106
 2965 01e2 2246     		mov	r2, r4
 2966 01e4 4021     		movs	r1, #64
 2967 01e6 FFF7FEFF 		bl	HAL_GPIO_WritePin
 2968              	.LVL186:
  95:user/htu21d/htu21d.c ****     DelayUs(HTU21D_I2C_DELAY);
 2969              		.loc 1 95 5 view .LVU1237
  96:user/htu21d/htu21d.c **** }
 2970              		.loc 1 96 5 view .LVU1238
  96:user/htu21d/htu21d.c **** }
 2971              		.loc 1 96 5 is_stmt 0 view .LVU1239
 2972              	.LBE419:
 2973              	.LBE422:
 2974              	.LBE431:
 2975              	.LBE439:
 2976              	.LBE448:
 2977              	.LBE458:
  65:user/htu21d/htu21d.c **** 
 2978              		.loc 1 65 5 is_stmt 1 view .LVU1240
  67:user/htu21d/htu21d.c **** }
 2979              		.loc 1 67 5 view .LVU1241
ARM GAS  C:\Users\WENHUA~1\AppData\Local\Temp\cc11gPXD.s 			page 81


  67:user/htu21d/htu21d.c **** }
 2980              		.loc 1 67 20 view .LVU1242
  67:user/htu21d/htu21d.c **** }
 2981              		.loc 1 67 11 view .LVU1243
 2982              	.LBB459:
 2983              	.LBB449:
 2984              	.LBB440:
 2985              	.LBB432:
 352:user/htu21d/htu21d.c ****     if (status == 0)
 2986              		.loc 1 352 5 view .LVU1244
 352:user/htu21d/htu21d.c ****     if (status == 0)
 2987              		.loc 1 352 14 is_stmt 0 view .LVU1245
 2988 01ea 8020     		movs	r0, #128
 2989 01ec FFF7FEFF 		bl	WriteByte
 2990              	.LVL187:
 353:user/htu21d/htu21d.c ****         goto error;
 2991              		.loc 1 353 5 is_stmt 1 view .LVU1246
 353:user/htu21d/htu21d.c ****         goto error;
 2992              		.loc 1 353 8 is_stmt 0 view .LVU1247
 2993 01f0 08B3     		cbz	r0, .L75
 355:user/htu21d/htu21d.c ****     if (status == 0)
 2994              		.loc 1 355 5 is_stmt 1 view .LVU1248
 355:user/htu21d/htu21d.c ****     if (status == 0)
 2995              		.loc 1 355 14 is_stmt 0 view .LVU1249
 2996 01f2 FE20     		movs	r0, #254
 2997              	.LVL188:
 355:user/htu21d/htu21d.c ****     if (status == 0)
 2998              		.loc 1 355 14 view .LVU1250
 2999 01f4 FFF7FEFF 		bl	WriteByte
 3000              	.LVL189:
 356:user/htu21d/htu21d.c ****         goto error;
 3001              		.loc 1 356 5 is_stmt 1 view .LVU1251
 356:user/htu21d/htu21d.c ****         goto error;
 3002              		.loc 1 356 8 is_stmt 0 view .LVU1252
 3003 01f8 E8B1     		cbz	r0, .L75
 358:user/htu21d/htu21d.c ****     HAL_Delay(15);
 3004              		.loc 1 358 5 is_stmt 1 view .LVU1253
 3005              	.LBB423:
 3006              	.LBI423:
  99:user/htu21d/htu21d.c **** {
 3007              		.loc 1 99 13 view .LVU1254
 3008              	.LBB424:
 101:user/htu21d/htu21d.c ****     DelayUs(HTU21D_I2C_DELAY);
 3009              		.loc 1 101 5 view .LVU1255
 101:user/htu21d/htu21d.c ****     DelayUs(HTU21D_I2C_DELAY);
 3010              		.loc 1 101 5 view .LVU1256
 3011 01fa 2246     		mov	r2, r4
 3012 01fc 8021     		movs	r1, #128
 3013 01fe 1148     		ldr	r0, .L106
 3014              	.LVL190:
 101:user/htu21d/htu21d.c ****     DelayUs(HTU21D_I2C_DELAY);
 3015              		.loc 1 101 5 is_stmt 0 view .LVU1257
 3016 0200 FFF7FEFF 		bl	HAL_GPIO_WritePin
 3017              	.LVL191:
 101:user/htu21d/htu21d.c ****     DelayUs(HTU21D_I2C_DELAY);
 3018              		.loc 1 101 5 is_stmt 1 view .LVU1258
 102:user/htu21d/htu21d.c ****     HTU21D_SCL_HIGH();
ARM GAS  C:\Users\WENHUA~1\AppData\Local\Temp\cc11gPXD.s 			page 82


 3019              		.loc 1 102 5 view .LVU1259
 102:user/htu21d/htu21d.c ****     HTU21D_SCL_HIGH();
 3020              		.loc 1 102 5 is_stmt 0 view .LVU1260
 3021              	.LBE424:
 3022              	.LBE423:
 3023              	.LBE432:
 3024              	.LBE440:
 3025              	.LBE449:
 3026              	.LBE459:
  65:user/htu21d/htu21d.c **** 
 3027              		.loc 1 65 5 is_stmt 1 view .LVU1261
  67:user/htu21d/htu21d.c **** }
 3028              		.loc 1 67 5 view .LVU1262
  67:user/htu21d/htu21d.c **** }
 3029              		.loc 1 67 20 view .LVU1263
  67:user/htu21d/htu21d.c **** }
 3030              		.loc 1 67 11 view .LVU1264
 3031              	.LBB460:
 3032              	.LBB450:
 3033              	.LBB441:
 3034              	.LBB433:
 3035              	.LBB427:
 3036              	.LBB425:
 103:user/htu21d/htu21d.c ****     DelayUs(HTU21D_I2C_DELAY);
 3037              		.loc 1 103 5 view .LVU1265
 103:user/htu21d/htu21d.c ****     DelayUs(HTU21D_I2C_DELAY);
 3038              		.loc 1 103 5 view .LVU1266
 3039 0204 0122     		movs	r2, #1
 3040 0206 4021     		movs	r1, #64
 3041 0208 0E48     		ldr	r0, .L106
 3042 020a FFF7FEFF 		bl	HAL_GPIO_WritePin
 3043              	.LVL192:
 103:user/htu21d/htu21d.c ****     DelayUs(HTU21D_I2C_DELAY);
 3044              		.loc 1 103 5 view .LVU1267
 104:user/htu21d/htu21d.c ****     HTU21D_SDA_HIGH();
 3045              		.loc 1 104 5 view .LVU1268
 104:user/htu21d/htu21d.c ****     HTU21D_SDA_HIGH();
 3046              		.loc 1 104 5 is_stmt 0 view .LVU1269
 3047              	.LBE425:
 3048              	.LBE427:
 3049              	.LBE433:
 3050              	.LBE441:
 3051              	.LBE450:
 3052              	.LBE460:
  65:user/htu21d/htu21d.c **** 
 3053              		.loc 1 65 5 is_stmt 1 view .LVU1270
  67:user/htu21d/htu21d.c **** }
 3054              		.loc 1 67 5 view .LVU1271
  67:user/htu21d/htu21d.c **** }
 3055              		.loc 1 67 20 view .LVU1272
  67:user/htu21d/htu21d.c **** }
 3056              		.loc 1 67 11 view .LVU1273
 3057              	.LBB461:
 3058              	.LBB451:
 3059              	.LBB442:
 3060              	.LBB434:
 3061              	.LBB428:
ARM GAS  C:\Users\WENHUA~1\AppData\Local\Temp\cc11gPXD.s 			page 83


 3062              	.LBB426:
 105:user/htu21d/htu21d.c ****     DelayUs(HTU21D_I2C_DELAY);
 3063              		.loc 1 105 5 view .LVU1274
 105:user/htu21d/htu21d.c ****     DelayUs(HTU21D_I2C_DELAY);
 3064              		.loc 1 105 5 view .LVU1275
 3065 020e 0122     		movs	r2, #1
 3066 0210 8021     		movs	r1, #128
 3067 0212 0C48     		ldr	r0, .L106
 3068 0214 FFF7FEFF 		bl	HAL_GPIO_WritePin
 3069              	.LVL193:
 105:user/htu21d/htu21d.c ****     DelayUs(HTU21D_I2C_DELAY);
 3070              		.loc 1 105 5 view .LVU1276
 106:user/htu21d/htu21d.c **** }
 3071              		.loc 1 106 5 view .LVU1277
 106:user/htu21d/htu21d.c **** }
 3072              		.loc 1 106 5 is_stmt 0 view .LVU1278
 3073              	.LBE426:
 3074              	.LBE428:
 3075              	.LBE434:
 3076              	.LBE442:
 3077              	.LBE451:
 3078              	.LBE461:
  65:user/htu21d/htu21d.c **** 
 3079              		.loc 1 65 5 is_stmt 1 view .LVU1279
  67:user/htu21d/htu21d.c **** }
 3080              		.loc 1 67 5 view .LVU1280
  67:user/htu21d/htu21d.c **** }
 3081              		.loc 1 67 20 view .LVU1281
  67:user/htu21d/htu21d.c **** }
 3082              		.loc 1 67 11 view .LVU1282
 3083              	.LBB462:
 3084              	.LBB452:
 3085              	.LBB443:
 3086              	.LBB435:
 359:user/htu21d/htu21d.c **** 
 3087              		.loc 1 359 5 view .LVU1283
 3088 0218 0F20     		movs	r0, #15
 3089 021a FFF7FEFF 		bl	HAL_Delay
 3090              	.LVL194:
 361:user/htu21d/htu21d.c ****     printf("\r\nHTU21D Reset OK\r\n");
 3091              		.loc 1 361 5 view .LVU1284
 362:user/htu21d/htu21d.c ****     return true;
 3092              		.loc 1 362 5 is_stmt 0 view .LVU1285
 3093 021e 0C48     		ldr	r0, .L106+12
 361:user/htu21d/htu21d.c ****     printf("\r\nHTU21D Reset OK\r\n");
 3094              		.loc 1 361 15 view .LVU1286
 3095 0220 2C70     		strb	r4, [r5]
 362:user/htu21d/htu21d.c ****     return true;
 3096              		.loc 1 362 5 is_stmt 1 view .LVU1287
 3097 0222 FFF7FEFF 		bl	puts
 3098              	.LVL195:
 363:user/htu21d/htu21d.c **** 
 3099              		.loc 1 363 5 view .LVU1288
 3100              	.L77:
 363:user/htu21d/htu21d.c **** 
 3101              		.loc 1 363 5 is_stmt 0 view .LVU1289
 3102              	.LBE435:
ARM GAS  C:\Users\WENHUA~1\AppData\Local\Temp\cc11gPXD.s 			page 84


 3103              	.LBE443:
 406:user/htu21d/htu21d.c ****     HTU21D_GetData();
 3104              		.loc 1 406 5 is_stmt 1 view .LVU1290
 3105 0226 6420     		movs	r0, #100
 3106 0228 FFF7FEFF 		bl	HAL_Delay
 3107              	.LVL196:
 407:user/htu21d/htu21d.c **** }
 3108              		.loc 1 407 5 view .LVU1291
 3109              	.LBE452:
 3110              	.LBE462:
 3111              		.loc 1 408 1 is_stmt 0 view .LVU1292
 3112 022c 04B0     		add	sp, sp, #16
 3113              	.LCFI13:
 3114              		.cfi_remember_state
 3115              		.cfi_def_cfa_offset 24
 3116              		@ sp needed
 3117 022e BDE87043 		pop	{r4, r5, r6, r8, r9, lr}
 3118              	.LCFI14:
 3119              		.cfi_restore 14
 3120              		.cfi_restore 9
 3121              		.cfi_restore 8
 3122              		.cfi_restore 6
 3123              		.cfi_restore 5
 3124              		.cfi_restore 4
 3125              		.cfi_def_cfa_offset 0
 3126              	.LBB463:
 3127              	.LBB453:
 407:user/htu21d/htu21d.c **** }
 3128              		.loc 1 407 5 view .LVU1293
 3129 0232 FFF7FEBF 		b	HTU21D_GetData.isra.0
 3130              	.LVL197:
 3131              	.L75:
 3132              	.LCFI15:
 3133              		.cfi_restore_state
 3134              	.LDL3:
 3135              	.LBB444:
 3136              	.LBB436:
 366:user/htu21d/htu21d.c ****     g_i2cFial = 1;
 3137              		.loc 1 366 5 is_stmt 1 view .LVU1294
 3138 0236 0748     		ldr	r0, .L106+16
 3139              	.LVL198:
 366:user/htu21d/htu21d.c ****     g_i2cFial = 1;
 3140              		.loc 1 366 5 is_stmt 0 view .LVU1295
 3141 0238 FFF7FEFF 		bl	puts
 3142              	.LVL199:
 367:user/htu21d/htu21d.c ****     return false;
 3143              		.loc 1 367 5 is_stmt 1 view .LVU1296
 367:user/htu21d/htu21d.c ****     return false;
 3144              		.loc 1 367 15 is_stmt 0 view .LVU1297
 3145 023c 0123     		movs	r3, #1
 3146 023e 2B70     		strb	r3, [r5]
 368:user/htu21d/htu21d.c **** }
 3147              		.loc 1 368 5 is_stmt 1 view .LVU1298
 368:user/htu21d/htu21d.c **** }
 3148              		.loc 1 368 12 is_stmt 0 view .LVU1299
 3149 0240 F1E7     		b	.L77
 3150              	.L107:
ARM GAS  C:\Users\WENHUA~1\AppData\Local\Temp\cc11gPXD.s 			page 85


 3151 0242 00BF     		.align	2
 3152              	.L106:
 3153 0244 000C0140 		.word	1073810432
 3154 0248 00000000 		.word	.LANCHOR1
 3155 024c 00000000 		.word	.LC3
 3156 0250 14000000 		.word	.LC4
 3157 0254 28000000 		.word	.LC5
 3158              	.LBE436:
 3159              	.LBE444:
 3160              	.LBE453:
 3161              	.LBE463:
 3162              		.cfi_endproc
 3163              	.LFE83:
 3165              		.section	.text.HTU21D_Sampling,"ax",%progbits
 3166              		.align	1
 3167              		.p2align 2,,3
 3168              		.global	HTU21D_Sampling
 3169              		.syntax unified
 3170              		.thumb
 3171              		.thumb_func
 3173              	HTU21D_Sampling:
 3174              	.LFB82:
 382:user/htu21d/htu21d.c ****     static uint8_t count;
 3175              		.loc 1 382 1 is_stmt 1 view -0
 3176              		.cfi_startproc
 3177              		@ args = 0, pretend = 0, frame = 0
 3178              		@ frame_needed = 0, uses_anonymous_args = 0
 383:user/htu21d/htu21d.c **** 
 3179              		.loc 1 383 5 view .LVU1301
 385:user/htu21d/htu21d.c ****         g_i2cFial = 0;
 3180              		.loc 1 385 5 view .LVU1302
 382:user/htu21d/htu21d.c ****     static uint8_t count;
 3181              		.loc 1 382 1 is_stmt 0 view .LVU1303
 3182 0000 10B5     		push	{r4, lr}
 3183              	.LCFI16:
 3184              		.cfi_def_cfa_offset 8
 3185              		.cfi_offset 4, -8
 3186              		.cfi_offset 14, -4
 385:user/htu21d/htu21d.c ****         g_i2cFial = 0;
 3187              		.loc 1 385 9 view .LVU1304
 3188 0002 0E4B     		ldr	r3, .L118
 385:user/htu21d/htu21d.c ****         g_i2cFial = 0;
 3189              		.loc 1 385 8 view .LVU1305
 3190 0004 1A78     		ldrb	r2, [r3]	@ zero_extendqisi2
 3191 0006 3AB9     		cbnz	r2, .L114
 3192 0008 0D4C     		ldr	r4, .L118+4
 390:user/htu21d/htu21d.c ****     if (count > 9) {
 3193              		.loc 1 390 5 is_stmt 1 view .LVU1306
 390:user/htu21d/htu21d.c ****     if (count > 9) {
 3194              		.loc 1 390 10 is_stmt 0 view .LVU1307
 3195 000a 2378     		ldrb	r3, [r4]	@ zero_extendqisi2
 3196 000c 0133     		adds	r3, r3, #1
 3197 000e DBB2     		uxtb	r3, r3
 391:user/htu21d/htu21d.c ****         count = 0;
 3198              		.loc 1 391 5 is_stmt 1 view .LVU1308
 391:user/htu21d/htu21d.c ****         count = 0;
 3199              		.loc 1 391 8 is_stmt 0 view .LVU1309
ARM GAS  C:\Users\WENHUA~1\AppData\Local\Temp\cc11gPXD.s 			page 86


 3200 0010 092B     		cmp	r3, #9
 3201 0012 0CD8     		bhi	.L110
 3202              	.L117:
 390:user/htu21d/htu21d.c ****     if (count > 9) {
 3203              		.loc 1 390 10 view .LVU1310
 3204 0014 2370     		strb	r3, [r4]
 395:user/htu21d/htu21d.c **** 
 3205              		.loc 1 395 1 view .LVU1311
 3206 0016 10BD     		pop	{r4, pc}
 3207              	.L114:
 386:user/htu21d/htu21d.c ****         count = 0x00;
 3208              		.loc 1 386 9 is_stmt 1 view .LVU1312
 386:user/htu21d/htu21d.c ****         count = 0x00;
 3209              		.loc 1 386 19 is_stmt 0 view .LVU1313
 3210 0018 0022     		movs	r2, #0
 387:user/htu21d/htu21d.c ****         HTU21D_Init();
 3211              		.loc 1 387 15 view .LVU1314
 3212 001a 094C     		ldr	r4, .L118+4
 386:user/htu21d/htu21d.c ****         count = 0x00;
 3213              		.loc 1 386 19 view .LVU1315
 3214 001c 1A70     		strb	r2, [r3]
 387:user/htu21d/htu21d.c ****         HTU21D_Init();
 3215              		.loc 1 387 9 is_stmt 1 view .LVU1316
 387:user/htu21d/htu21d.c ****         HTU21D_Init();
 3216              		.loc 1 387 15 is_stmt 0 view .LVU1317
 3217 001e 2270     		strb	r2, [r4]
 388:user/htu21d/htu21d.c ****     }
 3218              		.loc 1 388 9 is_stmt 1 view .LVU1318
 3219 0020 FFF7FEFF 		bl	HTU21D_Init
 3220              	.LVL200:
 390:user/htu21d/htu21d.c ****     if (count > 9) {
 3221              		.loc 1 390 5 view .LVU1319
 390:user/htu21d/htu21d.c ****     if (count > 9) {
 3222              		.loc 1 390 10 is_stmt 0 view .LVU1320
 3223 0024 2378     		ldrb	r3, [r4]	@ zero_extendqisi2
 3224 0026 0133     		adds	r3, r3, #1
 3225 0028 DBB2     		uxtb	r3, r3
 391:user/htu21d/htu21d.c ****         count = 0;
 3226              		.loc 1 391 5 is_stmt 1 view .LVU1321
 391:user/htu21d/htu21d.c ****         count = 0;
 3227              		.loc 1 391 8 is_stmt 0 view .LVU1322
 3228 002a 092B     		cmp	r3, #9
 3229 002c F2D9     		bls	.L117
 3230              	.L110:
 392:user/htu21d/htu21d.c ****         HTU21D_GetData();
 3231              		.loc 1 392 9 is_stmt 1 view .LVU1323
 392:user/htu21d/htu21d.c ****         HTU21D_GetData();
 3232              		.loc 1 392 15 is_stmt 0 view .LVU1324
 3233 002e 0023     		movs	r3, #0
 3234 0030 2370     		strb	r3, [r4]
 393:user/htu21d/htu21d.c ****     }
 3235              		.loc 1 393 9 is_stmt 1 view .LVU1325
 395:user/htu21d/htu21d.c **** 
 3236              		.loc 1 395 1 is_stmt 0 view .LVU1326
 3237 0032 BDE81040 		pop	{r4, lr}
 3238              	.LCFI17:
 3239              		.cfi_restore 14
ARM GAS  C:\Users\WENHUA~1\AppData\Local\Temp\cc11gPXD.s 			page 87


 3240              		.cfi_restore 4
 3241              		.cfi_def_cfa_offset 0
 393:user/htu21d/htu21d.c ****     }
 3242              		.loc 1 393 9 view .LVU1327
 3243 0036 FFF7FEBF 		b	HTU21D_GetData.isra.0
 3244              	.LVL201:
 3245              	.L119:
 3246 003a 00BF     		.align	2
 3247              	.L118:
 3248 003c 00000000 		.word	.LANCHOR1
 3249 0040 00000000 		.word	.LANCHOR2
 3250              		.cfi_endproc
 3251              	.LFE82:
 3253              		.global	g_thData
 3254              		.section	.bss.count.0,"aw",%nobits
 3255              		.set	.LANCHOR2,. + 0
 3258              	count.0:
 3259 0000 00       		.space	1
 3260              		.section	.bss.g_i2cFial,"aw",%nobits
 3261              		.set	.LANCHOR1,. + 0
 3264              	g_i2cFial:
 3265 0000 00       		.space	1
 3266              		.section	.bss.g_thData,"aw",%nobits
 3267              		.align	2
 3268              		.set	.LANCHOR0,. + 0
 3271              	g_thData:
 3272 0000 00000000 		.space	4
 3273              		.text
 3274              	.Letext0:
 3275              		.file 2 "d:\\program files (x86)\\gnu arm embedded toolchain\\10 2021.10\\arm-none-eabi\\include\\
 3276              		.file 3 "d:\\program files (x86)\\gnu arm embedded toolchain\\10 2021.10\\arm-none-eabi\\include\\
 3277              		.file 4 "Drivers/CMSIS/Device/ST/STM32F1xx/Include/stm32f103xb.h"
 3278              		.file 5 "Drivers/STM32F1xx_HAL_Driver/Inc/stm32f1xx_hal_gpio.h"
 3279              		.file 6 "Drivers/STM32F1xx_HAL_Driver/Inc/stm32f1xx_hal.h"
 3280              		.file 7 "d:\\program files (x86)\\gnu arm embedded toolchain\\10 2021.10\\arm-none-eabi\\include\\
 3281              		.file 8 "<built-in>"
ARM GAS  C:\Users\WENHUA~1\AppData\Local\Temp\cc11gPXD.s 			page 88

