ARM GAS  C:\Users\WENHUA~1\AppData\Local\Temp\ccooFtCz.s 			page 1


   1              		.cpu cortex-m3
   2              		.arch armv7-m
   3              		.fpu softvfp
   4              		.eabi_attribute 20, 1
   5              		.eabi_attribute 21, 1
   6              		.eabi_attribute 23, 3
   7              		.eabi_attribute 24, 1
   8              		.eabi_attribute 25, 1
   9              		.eabi_attribute 26, 1
  10              		.eabi_attribute 30, 2
  11              		.eabi_attribute 34, 1
  12              		.eabi_attribute 18, 4
  13              		.file	"lunar_calendar.c"
  14              		.text
  15              	.Ltext0:
  16              		.cfi_sections	.debug_frame
  17              		.section	.text.CalculationLunarCalendar,"ax",%progbits
  18              		.align	1
  19              		.p2align 2,,3
  20              		.global	CalculationLunarCalendar
  21              		.syntax unified
  22              		.thumb
  23              		.thumb_func
  25              	CalculationLunarCalendar:
  26              	.LVL0:
  27              	.LFB1:
  28              		.file 1 "user/src/lunar_calendar.c"
   1:user/src/lunar_calendar.c **** #include "lunar_calendar.h"
   2:user/src/lunar_calendar.c **** #include "type_define.h"
   3:user/src/lunar_calendar.c **** 
   4:user/src/lunar_calendar.c **** #define YEAR_TABLE_NUM  199
   5:user/src/lunar_calendar.c **** 
   6:user/src/lunar_calendar.c **** static const u32 g_lunarCalendarTable[YEAR_TABLE_NUM] = {
   7:user/src/lunar_calendar.c ****     0x04AE53,0x0A5748,0x5526BD,0x0D2650,0x0D9544,0x46AAB9,0x056A4D,0x09AD42,0x24AEB6,0x04AE4A,/*190
   8:user/src/lunar_calendar.c ****     0x6A4DBE,0x0A4D52,0x0D2546,0x5D52BA,0x0B544E,0x0D6A43,0x296D37,0x095B4B,0x749BC1,0x049754,/*191
   9:user/src/lunar_calendar.c ****     0x0A4B48,0x5B25BC,0x06A550,0x06D445,0x4ADAB8,0x02B64D,0x095742,0x2497B7,0x04974A,0x664B3E,/*192
  10:user/src/lunar_calendar.c ****     0x0D4A51,0x0EA546,0x56D4BA,0x05AD4E,0x02B644,0x393738,0x092E4B,0x7C96BF,0x0C9553,0x0D4A48,/*193
  11:user/src/lunar_calendar.c ****     0x6DA53B,0x0B554F,0x056A45,0x4AADB9,0x025D4D,0x092D42,0x2C95B6,0x0A954A,0x7B4ABD,0x06CA51,/*194
  12:user/src/lunar_calendar.c ****     0x0B5546,0x555ABB,0x04DA4E,0x0A5B43,0x352BB8,0x052B4C,0x8A953F,0x0E9552,0x06AA48,0x6AD53C,/*195
  13:user/src/lunar_calendar.c ****     0x0AB54F,0x04B645,0x4A5739,0x0A574D,0x052642,0x3E9335,0x0D9549,0x75AABE,0x056A51,0x096D46,/*196
  14:user/src/lunar_calendar.c ****     0x54AEBB,0x04AD4F,0x0A4D43,0x4D26B7,0x0D254B,0x8D52BF,0x0B5452,0x0B6A47,0x696D3C,0x095B50,/*197
  15:user/src/lunar_calendar.c ****     0x049B45,0x4A4BB9,0x0A4B4D,0xAB25C2,0x06A554,0x06D449,0x6ADA3D,0x0AB651,0x093746,0x5497BB,/*198
  16:user/src/lunar_calendar.c ****     0x04974F,0x064B44,0x36A537,0x0EA54A,0x86B2BF,0x05AC53,0x0AB647,0x5936BC,0x092E50,0x0C9645,/*199
  17:user/src/lunar_calendar.c ****     0x4D4AB8,0x0D4A4C,0x0DA541,0x25AAB6,0x056A49,0x7AADBD,0x025D52,0x092D47,0x5C95BA,0x0A954E,/*200
  18:user/src/lunar_calendar.c ****     0x0B4A43,0x4B5537,0x0AD54A,0x955ABF,0x04BA53,0x0A5B48,0x652BBC,0x052B50,0x0A9345,0x474AB9,/*201
  19:user/src/lunar_calendar.c ****     0x06AA4C,0x0AD541,0x24DAB6,0x04B64A,0x69573D,0x0A4E51,0x0D2646,0x5E933A,0x0D534D,0x05AA43,/*202
  20:user/src/lunar_calendar.c ****     0x36B537,0x096D4B,0xB4AEBF,0x04AD53,0x0A4D48,0x6D25BC,0x0D254F,0x0D5244,0x5DAA38,0x0B5A4C,/*203
  21:user/src/lunar_calendar.c ****     0x056D41,0x24ADB6,0x049B4A,0x7A4BBE,0x0A4B51,0x0AA546,0x5B52BA,0x06D24E,0x0ADA42,0x355B37,/*204
  22:user/src/lunar_calendar.c ****     0x09374B,0x8497C1,0x049753,0x064B48,0x66A53C,0x0EA54F,0x06B244,0x4AB638,0x0AAE4C,0x092E42,/*205
  23:user/src/lunar_calendar.c ****     0x3C9735,0x0C9649,0x7D4ABD,0x0D4A51,0x0DA545,0x55AABA,0x056A4E,0x0A6D43,0x452EB7,0x052D4B,/*206
  24:user/src/lunar_calendar.c ****     0x8A95BF,0x0A9553,0x0B4A47,0x6B553B,0x0AD54F,0x055A45,0x4A5D38,0x0A5B4C,0x052B42,0x3A93B6,/*207
  25:user/src/lunar_calendar.c ****     0x069349,0x7729BD,0x06AA51,0x0AD546,0x54DABA,0x04B64E,0x0A5743,0x452738,0x0D264A,0x8E933E,/*208
  26:user/src/lunar_calendar.c ****     0x0D5252,0x0DAA47,0x66B53B,0x056D4F,0x04AE45,0x4A4EB9,0x0A4D4C,0x0D1541,0x2D92B5          /*209
  27:user/src/lunar_calendar.c **** };
  28:user/src/lunar_calendar.c **** static const u16 g_monthAdd[12] = { 0, 31, 59, 90, 120, 151, 181, 212, 243, 273, 304, 334 };
  29:user/src/lunar_calendar.c **** 
  30:user/src/lunar_calendar.c **** struct LunarCalendarType g_lunarCalendarData;
ARM GAS  C:\Users\WENHUA~1\AppData\Local\Temp\ccooFtCz.s 			page 2


  31:user/src/lunar_calendar.c **** 
  32:user/src/lunar_calendar.c **** static bool LunarCalendar(struct TimeType *time, struct LunarCalendarType *lcData)
  33:user/src/lunar_calendar.c **** {
  34:user/src/lunar_calendar.c ****     u16 springToNY; /* 记录春节离当年元旦的天数 */
  35:user/src/lunar_calendar.c ****     u16 sunToNY; /* 记录阳历日离当年元旦的天数 */
  36:user/src/lunar_calendar.c ****     u8 dayCount; /* 记录大小月的天数29或30*/
  37:user/src/lunar_calendar.c ****     u8 index; /* 记录从哪个月开始来计算 */
  38:user/src/lunar_calendar.c ****     u8 flag; /* 用来对闰月的特殊处理 */
  39:user/src/lunar_calendar.c ****     u16 year = time->year;
  40:user/src/lunar_calendar.c ****     u8 month = time->month;
  41:user/src/lunar_calendar.c ****     u8 day = time->day;
  42:user/src/lunar_calendar.c **** 
  43:user/src/lunar_calendar.c ****     if (((g_lunarCalendarTable[year - 1901] & 0x0060) >> 5) == 1) {
  44:user/src/lunar_calendar.c ****         springToNY = (g_lunarCalendarTable[year - 1901] & 0x001F) - 1;
  45:user/src/lunar_calendar.c ****     } else {
  46:user/src/lunar_calendar.c ****         springToNY = (g_lunarCalendarTable[year - 1901] & 0x001F) - 1 + 31;
  47:user/src/lunar_calendar.c ****     }
  48:user/src/lunar_calendar.c ****     sunToNY = g_monthAdd[month - 1] + day - 1;
  49:user/src/lunar_calendar.c ****     if (((year % 4) == 0) && (month > 2)) {
  50:user/src/lunar_calendar.c ****         sunToNY++;
  51:user/src/lunar_calendar.c ****     }
  52:user/src/lunar_calendar.c **** 
  53:user/src/lunar_calendar.c ****     if (sunToNY >= springToNY) { /* 阳历日在春节后（含春节那天） */
  54:user/src/lunar_calendar.c ****         sunToNY -= springToNY;
  55:user/src/lunar_calendar.c ****         month = 1;
  56:user/src/lunar_calendar.c ****         index = 1;
  57:user/src/lunar_calendar.c ****         flag = 0;
  58:user/src/lunar_calendar.c ****         if ((g_lunarCalendarTable[year - 1901] & (0x80000 >> (index - 1)) ) == 0) {
  59:user/src/lunar_calendar.c ****             dayCount = 29;
  60:user/src/lunar_calendar.c ****         } else {
  61:user/src/lunar_calendar.c ****             dayCount = 30;
  62:user/src/lunar_calendar.c ****         }
  63:user/src/lunar_calendar.c ****         while (sunToNY >= dayCount) {
  64:user/src/lunar_calendar.c ****             sunToNY -= dayCount;
  65:user/src/lunar_calendar.c ****             index++;
  66:user/src/lunar_calendar.c ****             if (month == ((g_lunarCalendarTable[year - 1901] & 0xF00000) >> 20)) {
  67:user/src/lunar_calendar.c ****                 flag = ~flag;
  68:user/src/lunar_calendar.c ****                 if (flag == 0) {
  69:user/src/lunar_calendar.c ****                     month++;
  70:user/src/lunar_calendar.c ****                 }
  71:user/src/lunar_calendar.c ****             } else {
  72:user/src/lunar_calendar.c ****                 month++;
  73:user/src/lunar_calendar.c ****             }
  74:user/src/lunar_calendar.c ****             if ((g_lunarCalendarTable[year - 1901] & (0x80000 >> (index - 1))) == 0) {
  75:user/src/lunar_calendar.c ****                 dayCount=29;
  76:user/src/lunar_calendar.c ****             } else {
  77:user/src/lunar_calendar.c ****                 dayCount=30;
  78:user/src/lunar_calendar.c ****             }
  79:user/src/lunar_calendar.c ****         }
  80:user/src/lunar_calendar.c ****         day = sunToNY + 1;
  81:user/src/lunar_calendar.c ****     } else { /* 阳历日在春节前 */
  82:user/src/lunar_calendar.c ****         springToNY -= sunToNY;
  83:user/src/lunar_calendar.c ****         year--;
  84:user/src/lunar_calendar.c ****         month = 12;
  85:user/src/lunar_calendar.c ****         if (((g_lunarCalendarTable[year - 1901] & 0xF00000) >> 20) == 0) {
  86:user/src/lunar_calendar.c ****             index = 12;
  87:user/src/lunar_calendar.c ****         } else {
ARM GAS  C:\Users\WENHUA~1\AppData\Local\Temp\ccooFtCz.s 			page 3


  88:user/src/lunar_calendar.c ****             index = 13;
  89:user/src/lunar_calendar.c ****         }
  90:user/src/lunar_calendar.c ****         flag = 0;
  91:user/src/lunar_calendar.c ****         if ((g_lunarCalendarTable[year - 1901] & (0x80000 >> (index - 1)) ) == 0) {
  92:user/src/lunar_calendar.c ****             dayCount = 29;
  93:user/src/lunar_calendar.c ****         } else {
  94:user/src/lunar_calendar.c ****             dayCount = 30;
  95:user/src/lunar_calendar.c ****         }
  96:user/src/lunar_calendar.c ****         while (springToNY > dayCount) {
  97:user/src/lunar_calendar.c ****             springToNY -= dayCount;
  98:user/src/lunar_calendar.c ****             index--;
  99:user/src/lunar_calendar.c ****             if (flag == 0) {
 100:user/src/lunar_calendar.c ****                 month--;
 101:user/src/lunar_calendar.c ****             }
 102:user/src/lunar_calendar.c ****             if (month == ((g_lunarCalendarTable[year - 1901] & 0xF00000) >> 20)) {
 103:user/src/lunar_calendar.c ****                 flag = ~flag;
 104:user/src/lunar_calendar.c ****             }
 105:user/src/lunar_calendar.c ****             if ((g_lunarCalendarTable[year - 1901] & (0x80000 >> (index - 1)) ) == 0) {
 106:user/src/lunar_calendar.c ****                 dayCount = 29;
 107:user/src/lunar_calendar.c ****             } else {
 108:user/src/lunar_calendar.c ****                 dayCount = 30;
 109:user/src/lunar_calendar.c ****             }
 110:user/src/lunar_calendar.c ****         }
 111:user/src/lunar_calendar.c ****         day = dayCount - springToNY + 1;
 112:user/src/lunar_calendar.c ****     }
 113:user/src/lunar_calendar.c ****     lcData->year = year;
 114:user/src/lunar_calendar.c ****     lcData->month = month;
 115:user/src/lunar_calendar.c ****     lcData->day = day;
 116:user/src/lunar_calendar.c **** 
 117:user/src/lunar_calendar.c ****     return (month == ((g_lunarCalendarTable[year - 1901] & 0xF00000) >> 20)) ? 1 : 0;
 118:user/src/lunar_calendar.c **** }
 119:user/src/lunar_calendar.c **** 
 120:user/src/lunar_calendar.c **** void CalculationLunarCalendar(struct TimeType *time)
 121:user/src/lunar_calendar.c **** {
  29              		.loc 1 121 1 view -0
  30              		.cfi_startproc
  31              		@ args = 0, pretend = 0, frame = 0
  32              		@ frame_needed = 0, uses_anonymous_args = 0
  33              		.loc 1 121 1 is_stmt 0 view .LVU1
  34 0000 B0F806C0 		ldrh	ip, [r0, #6]
  35 0004 F0B5     		push	{r4, r5, r6, r7, lr}
  36              	.LCFI0:
  37              		.cfi_def_cfa_offset 20
  38              		.cfi_offset 4, -20
  39              		.cfi_offset 5, -16
  40              		.cfi_offset 6, -12
  41              		.cfi_offset 7, -8
  42              		.cfi_offset 14, -4
  43              	.LBB4:
  44              	.LBB5:
  43:user/src/lunar_calendar.c ****         springToNY = (g_lunarCalendarTable[year - 1901] & 0x001F) - 1;
  45              		.loc 1 43 31 view .LVU2
  46 0006 544D     		ldr	r5, .L35
  47              	.LBE5:
  48              	.LBE4:
 122:user/src/lunar_calendar.c ****     (void)LunarCalendar(time, &g_lunarCalendarData);
  49              		.loc 1 122 5 is_stmt 1 view .LVU3
ARM GAS  C:\Users\WENHUA~1\AppData\Local\Temp\ccooFtCz.s 			page 4


  50              	.LBB9:
  51              	.LBI4:
  32:user/src/lunar_calendar.c **** {
  52              		.loc 1 32 13 view .LVU4
  53              	.LVL1:
  54              	.LBB6:
  34:user/src/lunar_calendar.c ****     u16 sunToNY; /* 记录阳历日离当年元旦的天数 */
  55              		.loc 1 34 5 view .LVU5
  35:user/src/lunar_calendar.c ****     u8 dayCount; /* 记录大小月的天数29或30*/
  56              		.loc 1 35 5 view .LVU6
  36:user/src/lunar_calendar.c ****     u8 index; /* 记录从哪个月开始来计算 */
  57              		.loc 1 36 5 view .LVU7
  37:user/src/lunar_calendar.c ****     u8 flag; /* 用来对闰月的特殊处理 */
  58              		.loc 1 37 5 view .LVU8
  38:user/src/lunar_calendar.c ****     u16 year = time->year;
  59              		.loc 1 38 5 view .LVU9
  39:user/src/lunar_calendar.c ****     u8 month = time->month;
  60              		.loc 1 39 5 view .LVU10
  40:user/src/lunar_calendar.c ****     u8 day = time->day;
  61              		.loc 1 40 5 view .LVU11
  43:user/src/lunar_calendar.c ****         springToNY = (g_lunarCalendarTable[year - 1901] & 0x001F) - 1;
  62              		.loc 1 43 31 is_stmt 0 view .LVU12
  63 0008 ACF26D73 		subw	r3, ip, #1901
  64 000c 55F82340 		ldr	r4, [r5, r3, lsl #2]
  65 0010 C178     		ldrb	r1, [r0, #3]	@ zero_extendqisi2
  43:user/src/lunar_calendar.c ****         springToNY = (g_lunarCalendarTable[year - 1901] & 0x001F) - 1;
  66              		.loc 1 43 55 view .LVU13
  67 0012 C4F34113 		ubfx	r3, r4, #5, #2
  44:user/src/lunar_calendar.c ****     } else {
  68              		.loc 1 44 57 view .LVU14
  69 0016 04F01F02 		and	r2, r4, #31
  43:user/src/lunar_calendar.c ****         springToNY = (g_lunarCalendarTable[year - 1901] & 0x001F) - 1;
  70              		.loc 1 43 8 view .LVU15
  71 001a 012B     		cmp	r3, #1
  44:user/src/lunar_calendar.c ****     } else {
  72              		.loc 1 44 20 view .LVU16
  73 001c 08BF     		it	eq
  74 001e 02F1FF32 		addeq	r2, r2, #-1
  75 0022 4079     		ldrb	r0, [r0, #5]	@ zero_extendqisi2
  76              	.LVL2:
  41:user/src/lunar_calendar.c **** 
  77              		.loc 1 41 5 is_stmt 1 view .LVU17
  43:user/src/lunar_calendar.c ****         springToNY = (g_lunarCalendarTable[year - 1901] & 0x001F) - 1;
  78              		.loc 1 43 5 view .LVU18
  44:user/src/lunar_calendar.c ****     } else {
  79              		.loc 1 44 9 view .LVU19
  44:user/src/lunar_calendar.c ****     } else {
  80              		.loc 1 44 20 is_stmt 0 view .LVU20
  81 0024 0CBF     		ite	eq
  82 0026 93B2     		uxtheq	r3, r2
  83              	.LVL3:
  46:user/src/lunar_calendar.c ****     }
  84              		.loc 1 46 9 is_stmt 1 view .LVU21
  46:user/src/lunar_calendar.c ****     }
  85              		.loc 1 46 20 is_stmt 0 view .LVU22
  86 0028 02F11E03 		addne	r3, r2, #30
  87              	.LVL4:
ARM GAS  C:\Users\WENHUA~1\AppData\Local\Temp\ccooFtCz.s 			page 5


  48:user/src/lunar_calendar.c ****     if (((year % 4) == 0) && (month > 2)) {
  88              		.loc 1 48 5 is_stmt 1 view .LVU23
  48:user/src/lunar_calendar.c ****     if (((year % 4) == 0) && (month > 2)) {
  89              		.loc 1 48 25 is_stmt 0 view .LVU24
  90 002c 4B4A     		ldr	r2, .L35+4
  91 002e 461E     		subs	r6, r0, #1
  48:user/src/lunar_calendar.c ****     if (((year % 4) == 0) && (month > 2)) {
  92              		.loc 1 48 37 view .LVU25
  93 0030 32F81620 		ldrh	r2, [r2, r6, lsl #1]
  49:user/src/lunar_calendar.c ****         sunToNY++;
  94              		.loc 1 49 8 view .LVU26
  95 0034 1CF0030F 		tst	ip, #3
  48:user/src/lunar_calendar.c ****     if (((year % 4) == 0) && (month > 2)) {
  96              		.loc 1 48 37 view .LVU27
  97 0038 1144     		add	r1, r1, r2
  98              	.LVL5:
  48:user/src/lunar_calendar.c ****     if (((year % 4) == 0) && (month > 2)) {
  99              		.loc 1 48 37 view .LVU28
 100 003a 89B2     		uxth	r1, r1
  48:user/src/lunar_calendar.c ****     if (((year % 4) == 0) && (month > 2)) {
 101              		.loc 1 48 13 view .LVU29
 102 003c 01F1FF32 		add	r2, r1, #-1
 103 0040 92B2     		uxth	r2, r2
 104              	.LVL6:
  49:user/src/lunar_calendar.c ****         sunToNY++;
 105              		.loc 1 49 5 is_stmt 1 view .LVU30
  49:user/src/lunar_calendar.c ****         sunToNY++;
 106              		.loc 1 49 8 is_stmt 0 view .LVU31
 107 0042 02D1     		bne	.L4
  50:user/src/lunar_calendar.c ****     }
 108              		.loc 1 50 16 view .LVU32
 109 0044 0228     		cmp	r0, #2
 110 0046 88BF     		it	hi
 111 0048 0A46     		movhi	r2, r1
 112              	.LVL7:
 113              	.L4:
  53:user/src/lunar_calendar.c ****         sunToNY -= springToNY;
 114              		.loc 1 53 5 is_stmt 1 view .LVU33
  53:user/src/lunar_calendar.c ****         sunToNY -= springToNY;
 115              		.loc 1 53 8 is_stmt 0 view .LVU34
 116 004a 9342     		cmp	r3, r2
 117 004c 23D8     		bhi	.L5
  54:user/src/lunar_calendar.c ****         month = 1;
 118              		.loc 1 54 9 is_stmt 1 view .LVU35
  58:user/src/lunar_calendar.c ****             dayCount = 29;
 119              		.loc 1 58 12 is_stmt 0 view .LVU36
 120 004e 14F4002F 		tst	r4, #524288
 121 0052 0CBF     		ite	eq
 122 0054 1D20     		moveq	r0, #29
 123              	.LVL8:
  58:user/src/lunar_calendar.c ****             dayCount = 29;
 124              		.loc 1 58 12 view .LVU37
 125 0056 1E20     		movne	r0, #30
  54:user/src/lunar_calendar.c ****         month = 1;
 126              		.loc 1 54 17 view .LVU38
 127 0058 D21A     		subs	r2, r2, r3
 128              	.LVL9:
ARM GAS  C:\Users\WENHUA~1\AppData\Local\Temp\ccooFtCz.s 			page 6


  54:user/src/lunar_calendar.c ****         month = 1;
 129              		.loc 1 54 17 view .LVU39
 130 005a 93B2     		uxth	r3, r2
 131              	.LVL10:
  55:user/src/lunar_calendar.c ****         index = 1;
 132              		.loc 1 55 9 is_stmt 1 view .LVU40
  56:user/src/lunar_calendar.c ****         flag = 0;
 133              		.loc 1 56 9 view .LVU41
  57:user/src/lunar_calendar.c ****         if ((g_lunarCalendarTable[year - 1901] & (0x80000 >> (index - 1)) ) == 0) {
 134              		.loc 1 57 9 view .LVU42
  58:user/src/lunar_calendar.c ****             dayCount = 29;
 135              		.loc 1 58 9 view .LVU43
  63:user/src/lunar_calendar.c ****             sunToNY -= dayCount;
 136              		.loc 1 63 15 view .LVU44
 137 005c 8342     		cmp	r3, r0
 138 005e 65D3     		bcc	.L23
  66:user/src/lunar_calendar.c ****                 flag = ~flag;
 139              		.loc 1 66 74 is_stmt 0 view .LVU45
 140 0060 0121     		movs	r1, #1
 141 0062 0026     		movs	r6, #0
  74:user/src/lunar_calendar.c ****                 dayCount=29;
 142              		.loc 1 74 63 view .LVU46
 143 0064 4FF40025 		mov	r5, #524288
  66:user/src/lunar_calendar.c ****                 flag = ~flag;
 144              		.loc 1 66 74 view .LVU47
 145 0068 0A46     		mov	r2, r1
 146 006a C4F3035E 		ubfx	lr, r4, #20, #4
  69:user/src/lunar_calendar.c ****                 }
 147              		.loc 1 69 26 view .LVU48
 148 006e 0EEB0107 		add	r7, lr, r1
 149              	.LVL11:
 150              	.L12:
  64:user/src/lunar_calendar.c ****             index++;
 151              		.loc 1 64 13 is_stmt 1 view .LVU49
  72:user/src/lunar_calendar.c ****             }
 152              		.loc 1 72 17 view .LVU50
  64:user/src/lunar_calendar.c ****             index++;
 153              		.loc 1 64 21 is_stmt 0 view .LVU51
 154 0072 1B1A     		subs	r3, r3, r0
 155              	.LVL12:
  65:user/src/lunar_calendar.c ****             if (month == ((g_lunarCalendarTable[year - 1901] & 0xF00000) >> 20)) {
 156              		.loc 1 65 18 view .LVU52
 157 0074 0132     		adds	r2, r2, #1
 158              	.LVL13:
  66:user/src/lunar_calendar.c ****                 flag = ~flag;
 159              		.loc 1 66 16 view .LVU53
 160 0076 8E45     		cmp	lr, r1
  64:user/src/lunar_calendar.c ****             index++;
 161              		.loc 1 64 21 view .LVU54
 162 0078 9BB2     		uxth	r3, r3
 163              	.LVL14:
  65:user/src/lunar_calendar.c ****             if (month == ((g_lunarCalendarTable[year - 1901] & 0xF00000) >> 20)) {
 164              		.loc 1 65 13 is_stmt 1 view .LVU55
  65:user/src/lunar_calendar.c ****             if (month == ((g_lunarCalendarTable[year - 1901] & 0xF00000) >> 20)) {
 165              		.loc 1 65 18 is_stmt 0 view .LVU56
 166 007a D2B2     		uxtb	r2, r2
 167              	.LVL15:
ARM GAS  C:\Users\WENHUA~1\AppData\Local\Temp\ccooFtCz.s 			page 7


  66:user/src/lunar_calendar.c ****                 flag = ~flag;
 168              		.loc 1 66 13 is_stmt 1 view .LVU57
  72:user/src/lunar_calendar.c ****             }
 169              		.loc 1 72 22 is_stmt 0 view .LVU58
 170 007c 01F10100 		add	r0, r1, #1
  66:user/src/lunar_calendar.c ****                 flag = ~flag;
 171              		.loc 1 66 16 view .LVU59
 172 0080 4DD0     		beq	.L33
  72:user/src/lunar_calendar.c ****             }
 173              		.loc 1 72 22 view .LVU60
 174 0082 C1B2     		uxtb	r1, r0
 175              	.LVL16:
 176              	.L9:
  74:user/src/lunar_calendar.c ****                 dayCount=29;
 177              		.loc 1 74 13 is_stmt 1 view .LVU61
  63:user/src/lunar_calendar.c ****             sunToNY -= dayCount;
 178              		.loc 1 63 15 view .LVU62
  63:user/src/lunar_calendar.c ****             sunToNY -= dayCount;
 179              		.loc 1 63 15 view .LVU63
  74:user/src/lunar_calendar.c ****                 dayCount=29;
 180              		.loc 1 74 73 is_stmt 0 view .LVU64
 181 0084 501E     		subs	r0, r2, #1
  74:user/src/lunar_calendar.c ****                 dayCount=29;
 182              		.loc 1 74 63 view .LVU65
 183 0086 45FA00F0 		asr	r0, r5, r0
  74:user/src/lunar_calendar.c ****                 dayCount=29;
 184              		.loc 1 74 16 view .LVU66
 185 008a 2042     		tst	r0, r4
 186 008c 43D1     		bne	.L10
  63:user/src/lunar_calendar.c ****             sunToNY -= dayCount;
 187              		.loc 1 63 15 view .LVU67
 188 008e 1C2B     		cmp	r3, #28
 189 0090 4DD9     		bls	.L7
 190 0092 1D20     		movs	r0, #29
 191 0094 EDE7     		b	.L12
 192              	.LVL17:
 193              	.L5:
  82:user/src/lunar_calendar.c ****         year--;
 194              		.loc 1 82 9 is_stmt 1 view .LVU68
  83:user/src/lunar_calendar.c ****         month = 12;
 195              		.loc 1 83 13 is_stmt 0 view .LVU69
 196 0096 0CF1FF3C 		add	ip, ip, #-1
 197              	.LVL18:
  83:user/src/lunar_calendar.c ****         month = 12;
 198              		.loc 1 83 13 view .LVU70
 199 009a 1FFA8CFC 		uxth	ip, ip
 200              	.LVL19:
  85:user/src/lunar_calendar.c ****             index = 12;
 201              		.loc 1 85 35 view .LVU71
 202 009e ACF26D71 		subw	r1, ip, #1901
 203 00a2 55F82150 		ldr	r5, [r5, r1, lsl #2]
  82:user/src/lunar_calendar.c ****         year--;
 204              		.loc 1 82 20 view .LVU72
 205 00a6 9A1A     		subs	r2, r3, r2
 206              	.LVL20:
  85:user/src/lunar_calendar.c ****             index = 12;
 207              		.loc 1 85 61 view .LVU73
ARM GAS  C:\Users\WENHUA~1\AppData\Local\Temp\ccooFtCz.s 			page 8


 208 00a8 C5F30356 		ubfx	r6, r5, #20, #4
  85:user/src/lunar_calendar.c ****             index = 12;
 209              		.loc 1 85 12 view .LVU74
 210 00ac 002E     		cmp	r6, #0
 211 00ae 0CBF     		ite	eq
 212 00b0 4FF48073 		moveq	r3, #256
 213              	.LVL21:
  85:user/src/lunar_calendar.c ****             index = 12;
 214              		.loc 1 85 12 view .LVU75
 215 00b4 8023     		movne	r3, #128
  91:user/src/lunar_calendar.c ****             dayCount = 29;
 216              		.loc 1 91 48 view .LVU76
 217 00b6 03EA0503 		and	r3, r3, r5
  85:user/src/lunar_calendar.c ****             index = 12;
 218              		.loc 1 85 12 view .LVU77
 219 00ba 0CBF     		ite	eq
 220 00bc 0C20     		moveq	r0, #12
 221              	.LVL22:
  85:user/src/lunar_calendar.c ****             index = 12;
 222              		.loc 1 85 12 view .LVU78
 223 00be 0D20     		movne	r0, #13
  91:user/src/lunar_calendar.c ****             dayCount = 29;
 224              		.loc 1 91 12 view .LVU79
 225 00c0 002B     		cmp	r3, #0
 226 00c2 14BF     		ite	ne
 227 00c4 4FF01E0E 		movne	lr, #30
 228 00c8 4FF01D0E 		moveq	lr, #29
  82:user/src/lunar_calendar.c ****         year--;
 229              		.loc 1 82 20 view .LVU80
 230 00cc 92B2     		uxth	r2, r2
 231              	.LVL23:
  83:user/src/lunar_calendar.c ****         month = 12;
 232              		.loc 1 83 9 is_stmt 1 view .LVU81
  84:user/src/lunar_calendar.c ****         if (((g_lunarCalendarTable[year - 1901] & 0xF00000) >> 20) == 0) {
 233              		.loc 1 84 9 view .LVU82
  85:user/src/lunar_calendar.c ****             index = 12;
 234              		.loc 1 85 9 view .LVU83
  90:user/src/lunar_calendar.c ****         if ((g_lunarCalendarTable[year - 1901] & (0x80000 >> (index - 1)) ) == 0) {
 235              		.loc 1 90 9 view .LVU84
  91:user/src/lunar_calendar.c ****             dayCount = 29;
 236              		.loc 1 91 9 view .LVU85
  96:user/src/lunar_calendar.c ****             springToNY -= dayCount;
 237              		.loc 1 96 15 view .LVU86
  91:user/src/lunar_calendar.c ****             dayCount = 29;
 238              		.loc 1 91 12 is_stmt 0 view .LVU87
 239 00ce 14BF     		ite	ne
 240 00d0 1F23     		movne	r3, #31
 241 00d2 1E23     		moveq	r3, #30
  96:user/src/lunar_calendar.c ****             springToNY -= dayCount;
 242              		.loc 1 96 15 view .LVU88
 243 00d4 9645     		cmp	lr, r2
 244 00d6 3DD2     		bcs	.L28
 245 00d8 0C21     		movs	r1, #12
 246 00da 0024     		movs	r4, #0
 105:user/src/lunar_calendar.c ****                 dayCount = 29;
 247              		.loc 1 105 63 view .LVU89
 248 00dc 4FF40027 		mov	r7, #524288
ARM GAS  C:\Users\WENHUA~1\AppData\Local\Temp\ccooFtCz.s 			page 9


 249 00e0 0138     		subs	r0, r0, #1
 250              	.LVL24:
 251              	.L21:
  97:user/src/lunar_calendar.c ****             index--;
 252              		.loc 1 97 13 is_stmt 1 view .LVU90
  98:user/src/lunar_calendar.c ****             if (flag == 0) {
 253              		.loc 1 98 18 is_stmt 0 view .LVU91
 254 00e2 C0B2     		uxtb	r0, r0
  97:user/src/lunar_calendar.c ****             index--;
 255              		.loc 1 97 24 view .LVU92
 256 00e4 A2EB0E03 		sub	r3, r2, lr
 105:user/src/lunar_calendar.c ****                 dayCount = 29;
 257              		.loc 1 105 73 view .LVU93
 258 00e8 0138     		subs	r0, r0, #1
  97:user/src/lunar_calendar.c ****             index--;
 259              		.loc 1 97 24 view .LVU94
 260 00ea 9AB2     		uxth	r2, r3
 261              	.LVL25:
  98:user/src/lunar_calendar.c ****             if (flag == 0) {
 262              		.loc 1 98 13 is_stmt 1 view .LVU95
 100:user/src/lunar_calendar.c ****             }
 263              		.loc 1 100 17 view .LVU96
  99:user/src/lunar_calendar.c ****                 month--;
 264              		.loc 1 99 13 view .LVU97
 105:user/src/lunar_calendar.c ****                 dayCount = 29;
 265              		.loc 1 105 63 is_stmt 0 view .LVU98
 266 00ec 47FA00F3 		asr	r3, r7, r0
  99:user/src/lunar_calendar.c ****                 month--;
 267              		.loc 1 99 16 view .LVU99
 268 00f0 0CB9     		cbnz	r4, .L17
 100:user/src/lunar_calendar.c ****             }
 269              		.loc 1 100 22 view .LVU100
 270 00f2 0139     		subs	r1, r1, #1
 271              	.LVL26:
 100:user/src/lunar_calendar.c ****             }
 272              		.loc 1 100 22 view .LVU101
 273 00f4 C9B2     		uxtb	r1, r1
 274              	.LVL27:
 275              	.L17:
 102:user/src/lunar_calendar.c ****                 flag = ~flag;
 276              		.loc 1 102 13 is_stmt 1 view .LVU102
 102:user/src/lunar_calendar.c ****                 flag = ~flag;
 277              		.loc 1 102 16 is_stmt 0 view .LVU103
 278 00f6 8E42     		cmp	r6, r1
 103:user/src/lunar_calendar.c ****             }
 279              		.loc 1 103 17 is_stmt 1 view .LVU104
 103:user/src/lunar_calendar.c ****             }
 280              		.loc 1 103 22 is_stmt 0 view .LVU105
 281 00f8 04BF     		itt	eq
 282 00fa E443     		mvneq	r4, r4
 283 00fc E4B2     		uxtbeq	r4, r4
 284              	.LVL28:
 105:user/src/lunar_calendar.c ****                 dayCount = 29;
 285              		.loc 1 105 13 is_stmt 1 view .LVU106
  96:user/src/lunar_calendar.c ****             springToNY -= dayCount;
 286              		.loc 1 96 15 view .LVU107
  96:user/src/lunar_calendar.c ****             springToNY -= dayCount;
ARM GAS  C:\Users\WENHUA~1\AppData\Local\Temp\ccooFtCz.s 			page 10


 287              		.loc 1 96 15 view .LVU108
 105:user/src/lunar_calendar.c ****                 dayCount = 29;
 288              		.loc 1 105 16 is_stmt 0 view .LVU109
 289 00fe 2B42     		tst	r3, r5
 290 0100 04D1     		bne	.L19
  96:user/src/lunar_calendar.c ****             springToNY -= dayCount;
 291              		.loc 1 96 15 view .LVU110
 292 0102 1D2A     		cmp	r2, #29
 293 0104 24D9     		bls	.L34
 294 0106 4FF01D0E 		mov	lr, #29
 295 010a EAE7     		b	.L21
 296              	.L19:
 297 010c 1E2A     		cmp	r2, #30
 298 010e 16D9     		bls	.L30
 299 0110 4FF01E0E 		mov	lr, #30
 300 0114 E5E7     		b	.L21
 301              	.LVL29:
 302              	.L10:
  63:user/src/lunar_calendar.c ****             sunToNY -= dayCount;
 303              		.loc 1 63 15 view .LVU111
 304 0116 1D2B     		cmp	r3, #29
 305 0118 09D9     		bls	.L7
 306 011a 1E20     		movs	r0, #30
 307 011c A9E7     		b	.L12
 308              	.L33:
  67:user/src/lunar_calendar.c ****                 if (flag == 0) {
 309              		.loc 1 67 17 is_stmt 1 view .LVU112
 310              	.LVL30:
  68:user/src/lunar_calendar.c ****                     month++;
 311              		.loc 1 68 17 view .LVU113
  69:user/src/lunar_calendar.c ****                 }
 312              		.loc 1 69 21 view .LVU114
  68:user/src/lunar_calendar.c ****                     month++;
 313              		.loc 1 68 20 is_stmt 0 view .LVU115
 314 011e FF2E     		cmp	r6, #255
 315 0120 02D1     		bne	.L24
  69:user/src/lunar_calendar.c ****                 }
 316              		.loc 1 69 26 view .LVU116
 317 0122 3946     		mov	r1, r7
 318              	.LVL31:
  67:user/src/lunar_calendar.c ****                 if (flag == 0) {
 319              		.loc 1 67 22 view .LVU117
 320 0124 0026     		movs	r6, #0
 321              	.LVL32:
  67:user/src/lunar_calendar.c ****                 if (flag == 0) {
 322              		.loc 1 67 22 view .LVU118
 323 0126 ADE7     		b	.L9
 324              	.LVL33:
 325              	.L24:
  68:user/src/lunar_calendar.c ****                     month++;
 326              		.loc 1 68 20 view .LVU119
 327 0128 FF26     		movs	r6, #255
 328              	.LVL34:
  68:user/src/lunar_calendar.c ****                     month++;
 329              		.loc 1 68 20 view .LVU120
 330 012a ABE7     		b	.L9
 331              	.LVL35:
ARM GAS  C:\Users\WENHUA~1\AppData\Local\Temp\ccooFtCz.s 			page 11


 332              	.L23:
  63:user/src/lunar_calendar.c ****             sunToNY -= dayCount;
 333              		.loc 1 63 15 view .LVU121
 334 012c 0121     		movs	r1, #1
 335              	.LVL36:
 336              	.L7:
  80:user/src/lunar_calendar.c ****     } else { /* 阳历日在春节前 */
 337              		.loc 1 80 9 is_stmt 1 view .LVU122
 113:user/src/lunar_calendar.c ****     lcData->month = month;
 338              		.loc 1 113 18 is_stmt 0 view .LVU123
 339 012e 0C4A     		ldr	r2, .L35+8
  80:user/src/lunar_calendar.c ****     } else { /* 阳历日在春节前 */
 340              		.loc 1 80 13 view .LVU124
 341 0130 0133     		adds	r3, r3, #1
 342              	.LVL37:
  80:user/src/lunar_calendar.c ****     } else { /* 阳历日在春节前 */
 343              		.loc 1 80 13 view .LVU125
 344 0132 DBB2     		uxtb	r3, r3
 345              	.LVL38:
 113:user/src/lunar_calendar.c ****     lcData->month = month;
 346              		.loc 1 113 5 is_stmt 1 view .LVU126
 113:user/src/lunar_calendar.c ****     lcData->month = month;
 347              		.loc 1 113 18 is_stmt 0 view .LVU127
 348 0134 82F800C0 		strb	ip, [r2]
 114:user/src/lunar_calendar.c ****     lcData->day = day;
 349              		.loc 1 114 5 is_stmt 1 view .LVU128
 114:user/src/lunar_calendar.c ****     lcData->day = day;
 350              		.loc 1 114 19 is_stmt 0 view .LVU129
 351 0138 5170     		strb	r1, [r2, #1]
 115:user/src/lunar_calendar.c **** 
 352              		.loc 1 115 5 is_stmt 1 view .LVU130
 115:user/src/lunar_calendar.c **** 
 353              		.loc 1 115 17 is_stmt 0 view .LVU131
 354 013a 9370     		strb	r3, [r2, #2]
 117:user/src/lunar_calendar.c **** }
 355              		.loc 1 117 5 is_stmt 1 view .LVU132
 356              	.LVL39:
 117:user/src/lunar_calendar.c **** }
 357              		.loc 1 117 5 is_stmt 0 view .LVU133
 358              	.LBE6:
 359              	.LBE9:
 123:user/src/lunar_calendar.c **** }
 360              		.loc 1 123 1 view .LVU134
 361 013c F0BD     		pop	{r4, r5, r6, r7, pc}
 362              	.LVL40:
 363              	.L30:
 364              	.LBB10:
 365              	.LBB7:
  96:user/src/lunar_calendar.c ****             springToNY -= dayCount;
 366              		.loc 1 96 15 view .LVU135
 367 013e 1F23     		movs	r3, #31
 368              	.LVL41:
 369              	.L16:
 111:user/src/lunar_calendar.c ****     }
 370              		.loc 1 111 9 is_stmt 1 view .LVU136
 111:user/src/lunar_calendar.c ****     }
 371              		.loc 1 111 13 is_stmt 0 view .LVU137
ARM GAS  C:\Users\WENHUA~1\AppData\Local\Temp\ccooFtCz.s 			page 12


 372 0140 9B1A     		subs	r3, r3, r2
 113:user/src/lunar_calendar.c ****     lcData->month = month;
 373              		.loc 1 113 18 view .LVU138
 374 0142 074A     		ldr	r2, .L35+8
 375              	.LVL42:
 111:user/src/lunar_calendar.c ****     }
 376              		.loc 1 111 13 view .LVU139
 377 0144 DBB2     		uxtb	r3, r3
 378              	.LVL43:
 113:user/src/lunar_calendar.c ****     lcData->month = month;
 379              		.loc 1 113 5 is_stmt 1 view .LVU140
 113:user/src/lunar_calendar.c ****     lcData->month = month;
 380              		.loc 1 113 18 is_stmt 0 view .LVU141
 381 0146 82F800C0 		strb	ip, [r2]
 114:user/src/lunar_calendar.c ****     lcData->day = day;
 382              		.loc 1 114 5 is_stmt 1 view .LVU142
 114:user/src/lunar_calendar.c ****     lcData->day = day;
 383              		.loc 1 114 19 is_stmt 0 view .LVU143
 384 014a 5170     		strb	r1, [r2, #1]
 115:user/src/lunar_calendar.c **** 
 385              		.loc 1 115 5 is_stmt 1 view .LVU144
 115:user/src/lunar_calendar.c **** 
 386              		.loc 1 115 17 is_stmt 0 view .LVU145
 387 014c 9370     		strb	r3, [r2, #2]
 117:user/src/lunar_calendar.c **** }
 388              		.loc 1 117 5 is_stmt 1 view .LVU146
 389              	.LVL44:
 117:user/src/lunar_calendar.c **** }
 390              		.loc 1 117 5 is_stmt 0 view .LVU147
 391              	.LBE7:
 392              	.LBE10:
 393              		.loc 1 123 1 view .LVU148
 394 014e F0BD     		pop	{r4, r5, r6, r7, pc}
 395              	.LVL45:
 396              	.L34:
 397              	.LBB11:
 398              	.LBB8:
  96:user/src/lunar_calendar.c ****             springToNY -= dayCount;
 399              		.loc 1 96 15 view .LVU149
 400 0150 1E23     		movs	r3, #30
 401 0152 F5E7     		b	.L16
 402              	.LVL46:
 403              	.L28:
  96:user/src/lunar_calendar.c ****             springToNY -= dayCount;
 404              		.loc 1 96 15 view .LVU150
 405 0154 0C21     		movs	r1, #12
 406 0156 F3E7     		b	.L16
 407              	.L36:
 408              		.align	2
 409              	.L35:
 410 0158 00000000 		.word	.LANCHOR0
 411 015c 00000000 		.word	.LANCHOR1
 412 0160 00000000 		.word	.LANCHOR2
 413              	.LBE8:
 414              	.LBE11:
 415              		.cfi_endproc
 416              	.LFE1:
ARM GAS  C:\Users\WENHUA~1\AppData\Local\Temp\ccooFtCz.s 			page 13


 418              		.section	.text.GetLunarCalendar,"ax",%progbits
 419              		.align	1
 420              		.p2align 2,,3
 421              		.global	GetLunarCalendar
 422              		.syntax unified
 423              		.thumb
 424              		.thumb_func
 426              	GetLunarCalendar:
 427              	.LFB2:
 124:user/src/lunar_calendar.c **** 
 125:user/src/lunar_calendar.c **** struct LunarCalendarType GetLunarCalendar(void)
 126:user/src/lunar_calendar.c **** {
 428              		.loc 1 126 1 is_stmt 1 view -0
 429              		.cfi_startproc
 430              		@ args = 0, pretend = 0, frame = 8
 431              		@ frame_needed = 0, uses_anonymous_args = 0
 432              		@ link register save eliminated.
 127:user/src/lunar_calendar.c ****     return g_lunarCalendarData;
 433              		.loc 1 127 5 view .LVU152
 434              		.loc 1 127 12 is_stmt 0 view .LVU153
 435 0000 0020     		movs	r0, #0
 436 0002 084B     		ldr	r3, .L39
 126:user/src/lunar_calendar.c ****     return g_lunarCalendarData;
 437              		.loc 1 126 1 view .LVU154
 438 0004 82B0     		sub	sp, sp, #8
 439              	.LCFI1:
 440              		.cfi_def_cfa_offset 8
 441              		.loc 1 127 12 view .LVU155
 442 0006 1B68     		ldr	r3, [r3]
 443 0008 D9B2     		uxtb	r1, r3
 444 000a C3F30722 		ubfx	r2, r3, #8, #8
 445 000e 61F30700 		bfi	r0, r1, #0, #8
 446 0012 C3F30743 		ubfx	r3, r3, #16, #8
 447 0016 62F30F20 		bfi	r0, r2, #8, #8
 448 001a 63F31740 		bfi	r0, r3, #16, #8
 128:user/src/lunar_calendar.c **** }
 449              		.loc 1 128 1 view .LVU156
 450 001e 02B0     		add	sp, sp, #8
 451              	.LCFI2:
 452              		.cfi_def_cfa_offset 0
 453              		@ sp needed
 454 0020 7047     		bx	lr
 455              	.L40:
 456 0022 00BF     		.align	2
 457              	.L39:
 458 0024 00000000 		.word	.LANCHOR2
 459              		.cfi_endproc
 460              	.LFE2:
 462              		.global	g_lunarCalendarData
 463              		.section	.bss.g_lunarCalendarData,"aw",%nobits
 464              		.align	2
 465              		.set	.LANCHOR2,. + 0
 468              	g_lunarCalendarData:
 469 0000 000000   		.space	3
 470              		.section	.rodata.g_lunarCalendarTable,"a"
 471              		.align	2
 472              		.set	.LANCHOR0,. + 0
ARM GAS  C:\Users\WENHUA~1\AppData\Local\Temp\ccooFtCz.s 			page 14


 475              	g_lunarCalendarTable:
 476 0000 53AE0400 		.word	306771
 477 0004 48570A00 		.word	677704
 478 0008 BD265500 		.word	5580477
 479 000c 50260D00 		.word	861776
 480 0010 44950D00 		.word	890180
 481 0014 B9AA4600 		.word	4631225
 482 0018 4D6A0500 		.word	354893
 483 001c 42AD0900 		.word	634178
 484 0020 B6AE2400 		.word	2404022
 485 0024 4AAE0400 		.word	306762
 486 0028 BE4D6A00 		.word	6966718
 487 002c 524D0A00 		.word	675154
 488 0030 46250D00 		.word	861510
 489 0034 BA525D00 		.word	6116026
 490 0038 4E540B00 		.word	742478
 491 003c 436A0D00 		.word	879171
 492 0040 376D2900 		.word	2714935
 493 0044 4B5B0900 		.word	613195
 494 0048 C19B7400 		.word	7642049
 495 004c 54970400 		.word	300884
 496 0050 484B0A00 		.word	674632
 497 0054 BC255B00 		.word	5973436
 498 0058 50A50600 		.word	435536
 499 005c 45D40600 		.word	447557
 500 0060 B8DA4A00 		.word	4905656
 501 0064 4DB60200 		.word	177741
 502 0068 42570900 		.word	612162
 503 006c B7972400 		.word	2398135
 504 0070 4A970400 		.word	300874
 505 0074 3E4B6600 		.word	6703934
 506 0078 514A0D00 		.word	870993
 507 007c 46A50E00 		.word	959814
 508 0080 BAD45600 		.word	5690554
 509 0084 4EAD0500 		.word	372046
 510 0088 44B60200 		.word	177732
 511 008c 38373900 		.word	3749688
 512 0090 4B2E0900 		.word	601675
 513 0094 BF967C00 		.word	8165055
 514 0098 53950C00 		.word	824659
 515 009c 484A0D00 		.word	870984
 516 00a0 3BA56D00 		.word	7185723
 517 00a4 4F550B00 		.word	742735
 518 00a8 456A0500 		.word	354885
 519 00ac B9AD4A00 		.word	4894137
 520 00b0 4D5D0200 		.word	154957
 521 00b4 422D0900 		.word	601410
 522 00b8 B6952C00 		.word	2921910
 523 00bc 4A950A00 		.word	693578
 524 00c0 BD4A7B00 		.word	8080061
 525 00c4 51CA0600 		.word	445009
 526 00c8 46550B00 		.word	742726
 527 00cc BB5A5500 		.word	5593787
 528 00d0 4EDA0400 		.word	318030
 529 00d4 435B0A00 		.word	678723
 530 00d8 B82B3500 		.word	3484600
 531 00dc 4C2B0500 		.word	338764
ARM GAS  C:\Users\WENHUA~1\AppData\Local\Temp\ccooFtCz.s 			page 15


 532 00e0 3F958A00 		.word	9082175
 533 00e4 52950E00 		.word	955730
 534 00e8 48AA0600 		.word	436808
 535 00ec 3CD56A00 		.word	7001404
 536 00f0 4FB50A00 		.word	701775
 537 00f4 45B60400 		.word	308805
 538 00f8 39574A00 		.word	4871993
 539 00fc 4D570A00 		.word	677709
 540 0100 42260500 		.word	337474
 541 0104 35933E00 		.word	4100917
 542 0108 49950D00 		.word	890185
 543 010c BEAA7500 		.word	7711422
 544 0110 516A0500 		.word	354897
 545 0114 466D0900 		.word	617798
 546 0118 BBAE5400 		.word	5549755
 547 011c 4FAD0400 		.word	306511
 548 0120 434D0A00 		.word	675139
 549 0124 B7264D00 		.word	5056183
 550 0128 4B250D00 		.word	861515
 551 012c BF528D00 		.word	9261759
 552 0130 52540B00 		.word	742482
 553 0134 476A0B00 		.word	748103
 554 0138 3C6D6900 		.word	6909244
 555 013c 505B0900 		.word	613200
 556 0140 459B0400 		.word	301893
 557 0144 B94B4A00 		.word	4869049
 558 0148 4D4B0A00 		.word	674637
 559 014c C225AB00 		.word	11216322
 560 0150 54A50600 		.word	435540
 561 0154 49D40600 		.word	447561
 562 0158 3DDA6A00 		.word	7002685
 563 015c 51B60A00 		.word	702033
 564 0160 46370900 		.word	603974
 565 0164 BB975400 		.word	5543867
 566 0168 4F970400 		.word	300879
 567 016c 444B0600 		.word	412484
 568 0170 37A53600 		.word	3581239
 569 0174 4AA50E00 		.word	959818
 570 0178 BFB28600 		.word	8827583
 571 017c 53AC0500 		.word	371795
 572 0180 47B60A00 		.word	702023
 573 0184 BC365900 		.word	5846716
 574 0188 502E0900 		.word	601680
 575 018c 45960C00 		.word	824901
 576 0190 B84A4D00 		.word	5065400
 577 0194 4C4A0D00 		.word	870988
 578 0198 41A50D00 		.word	894273
 579 019c B6AA2500 		.word	2468534
 580 01a0 496A0500 		.word	354889
 581 01a4 BDAD7A00 		.word	8039869
 582 01a8 525D0200 		.word	154962
 583 01ac 472D0900 		.word	601415
 584 01b0 BA955C00 		.word	6067642
 585 01b4 4E950A00 		.word	693582
 586 01b8 434A0B00 		.word	739907
 587 01bc 37554B00 		.word	4937015
 588 01c0 4AD50A00 		.word	709962
ARM GAS  C:\Users\WENHUA~1\AppData\Local\Temp\ccooFtCz.s 			page 16


 589 01c4 BF5A9500 		.word	9788095
 590 01c8 53BA0400 		.word	309843
 591 01cc 485B0A00 		.word	678728
 592 01d0 BC2B6500 		.word	6630332
 593 01d4 502B0500 		.word	338768
 594 01d8 45930A00 		.word	693061
 595 01dc B94A4700 		.word	4672185
 596 01e0 4CAA0600 		.word	436812
 597 01e4 41D50A00 		.word	709953
 598 01e8 B6DA2400 		.word	2415286
 599 01ec 4AB60400 		.word	308810
 600 01f0 3D576900 		.word	6903613
 601 01f4 514E0A00 		.word	675409
 602 01f8 46260D00 		.word	861766
 603 01fc 3A935E00 		.word	6198074
 604 0200 4D530D00 		.word	873293
 605 0204 43AA0500 		.word	371267
 606 0208 37B53600 		.word	3585335
 607 020c 4B6D0900 		.word	617803
 608 0210 BFAEB400 		.word	11841215
 609 0214 53AD0400 		.word	306515
 610 0218 484D0A00 		.word	675144
 611 021c BC256D00 		.word	7153084
 612 0220 4F250D00 		.word	861519
 613 0224 44520D00 		.word	873028
 614 0228 38AA5D00 		.word	6138424
 615 022c 4C5A0B00 		.word	744012
 616 0230 416D0500 		.word	355649
 617 0234 B6AD2400 		.word	2403766
 618 0238 4A9B0400 		.word	301898
 619 023c BE4B7A00 		.word	8014782
 620 0240 514B0A00 		.word	674641
 621 0244 46A50A00 		.word	697670
 622 0248 BA525B00 		.word	5984954
 623 024c 4ED20600 		.word	447054
 624 0250 42DA0A00 		.word	711234
 625 0254 375B3500 		.word	3496759
 626 0258 4B370900 		.word	603979
 627 025c C1978400 		.word	8689601
 628 0260 53970400 		.word	300883
 629 0264 484B0600 		.word	412488
 630 0268 3CA56600 		.word	6726972
 631 026c 4FA50E00 		.word	959823
 632 0270 44B20600 		.word	438852
 633 0274 38B64A00 		.word	4896312
 634 0278 4CAE0A00 		.word	699980
 635 027c 422E0900 		.word	601666
 636 0280 35973C00 		.word	3970869
 637 0284 49960C00 		.word	824905
 638 0288 BD4A7D00 		.word	8211133
 639 028c 514A0D00 		.word	870993
 640 0290 45A50D00 		.word	894277
 641 0294 BAAA5500 		.word	5614266
 642 0298 4E6A0500 		.word	354894
 643 029c 436D0A00 		.word	683331
 644 02a0 B72E4500 		.word	4533943
 645 02a4 4B2D0500 		.word	339275
ARM GAS  C:\Users\WENHUA~1\AppData\Local\Temp\ccooFtCz.s 			page 17


 646 02a8 BF958A00 		.word	9082303
 647 02ac 53950A00 		.word	693587
 648 02b0 474A0B00 		.word	739911
 649 02b4 3B556B00 		.word	7034171
 650 02b8 4FD50A00 		.word	709967
 651 02bc 455A0500 		.word	350789
 652 02c0 385D4A00 		.word	4873528
 653 02c4 4C5B0A00 		.word	678732
 654 02c8 422B0500 		.word	338754
 655 02cc B6933A00 		.word	3838902
 656 02d0 49930600 		.word	430921
 657 02d4 BD297700 		.word	7809469
 658 02d8 51AA0600 		.word	436817
 659 02dc 46D50A00 		.word	709958
 660 02e0 BADA5400 		.word	5561018
 661 02e4 4EB60400 		.word	308814
 662 02e8 43570A00 		.word	677699
 663 02ec 38274500 		.word	4532024
 664 02f0 4A260D00 		.word	861770
 665 02f4 3E938E00 		.word	9343806
 666 02f8 52520D00 		.word	873042
 667 02fc 47AA0D00 		.word	895559
 668 0300 3BB56600 		.word	6731067
 669 0304 4F6D0500 		.word	355663
 670 0308 45AE0400 		.word	306757
 671 030c B94E4A00 		.word	4869817
 672 0310 4C4D0A00 		.word	675148
 673 0314 41150D00 		.word	857409
 674 0318 B5922D00 		.word	2986677
 675              		.section	.rodata.g_monthAdd,"a"
 676              		.align	2
 677              		.set	.LANCHOR1,. + 0
 680              	g_monthAdd:
 681 0000 0000     		.short	0
 682 0002 1F00     		.short	31
 683 0004 3B00     		.short	59
 684 0006 5A00     		.short	90
 685 0008 7800     		.short	120
 686 000a 9700     		.short	151
 687 000c B500     		.short	181
 688 000e D400     		.short	212
 689 0010 F300     		.short	243
 690 0012 1101     		.short	273
 691 0014 3001     		.short	304
 692 0016 4E01     		.short	334
 693              		.text
 694              	.Letext0:
 695              		.file 2 "user/inc/type_define.h"
 696              		.file 3 "user/inc/time.h"
 697              		.file 4 "user/inc/lunar_calendar.h"
ARM GAS  C:\Users\WENHUA~1\AppData\Local\Temp\ccooFtCz.s 			page 18

