ARM GAS  C:\Users\WENHUA~1\AppData\Local\Temp\cc31D8p8.s 			page 1


   1              		.cpu cortex-m3
   2              		.arch armv7-m
   3              		.fpu softvfp
   4              		.eabi_attribute 20, 1
   5              		.eabi_attribute 21, 1
   6              		.eabi_attribute 23, 3
   7              		.eabi_attribute 24, 1
   8              		.eabi_attribute 25, 1
   9              		.eabi_attribute 26, 1
  10              		.eabi_attribute 30, 2
  11              		.eabi_attribute 34, 1
  12              		.eabi_attribute 18, 4
  13              		.file	"main.c"
  14              		.text
  15              	.Ltext0:
  16              		.cfi_sections	.debug_frame
  17              		.section	.text.MX_NVIC_Init,"ax",%progbits
  18              		.align	1
  19              		.p2align 2,,3
  20              		.syntax unified
  21              		.thumb
  22              		.thumb_func
  24              	MX_NVIC_Init:
  25              	.LFB70:
  26              		.file 1 "Core/Src/main.c"
   1:Core/Src/main.c **** /* USER CODE BEGIN Header */
   2:Core/Src/main.c **** /**
   3:Core/Src/main.c ****   ******************************************************************************
   4:Core/Src/main.c ****   * @file           : main.c
   5:Core/Src/main.c ****   * @brief          : Main program body
   6:Core/Src/main.c ****   ******************************************************************************
   7:Core/Src/main.c ****   ** This notice applies to any and all portions of this file
   8:Core/Src/main.c ****   * that are not between comment pairs USER CODE BEGIN and
   9:Core/Src/main.c ****   * USER CODE END. Other portions of this file, whether
  10:Core/Src/main.c ****   * inserted by the user or by software development tools
  11:Core/Src/main.c ****   * are owned by their respective copyright owners.
  12:Core/Src/main.c ****   *
  13:Core/Src/main.c ****   * COPYRIGHT(c) 2019 STMicroelectronics
  14:Core/Src/main.c ****   *
  15:Core/Src/main.c ****   * Redistribution and use in source and binary forms, with or without modification,
  16:Core/Src/main.c ****   * are permitted provided that the following conditions are met:
  17:Core/Src/main.c ****   *   1. Redistributions of source code must retain the above copyright notice,
  18:Core/Src/main.c ****   *      this list of conditions and the following disclaimer.
  19:Core/Src/main.c ****   *   2. Redistributions in binary form must reproduce the above copyright notice,
  20:Core/Src/main.c ****   *      this list of conditions and the following disclaimer in the documentation
  21:Core/Src/main.c ****   *      and/or other materials provided with the distribution.
  22:Core/Src/main.c ****   *   3. Neither the name of STMicroelectronics nor the names of its contributors
  23:Core/Src/main.c ****   *      may be used to endorse or promote products derived from this software
  24:Core/Src/main.c ****   *      without specific prior written permission.
  25:Core/Src/main.c ****   *
  26:Core/Src/main.c ****   * THIS SOFTWARE IS PROVIDED BY THE COPYRIGHT HOLDERS AND CONTRIBUTORS "AS IS"
  27:Core/Src/main.c ****   * AND ANY EXPRESS OR IMPLIED WARRANTIES, INCLUDING, BUT NOT LIMITED TO, THE
  28:Core/Src/main.c ****   * IMPLIED WARRANTIES OF MERCHANTABILITY AND FITNESS FOR A PARTICULAR PURPOSE ARE
  29:Core/Src/main.c ****   * DISCLAIMED. IN NO EVENT SHALL THE COPYRIGHT HOLDER OR CONTRIBUTORS BE LIABLE
  30:Core/Src/main.c ****   * FOR ANY DIRECT, INDIRECT, INCIDENTAL, SPECIAL, EXEMPLARY, OR CONSEQUENTIAL
  31:Core/Src/main.c ****   * DAMAGES (INCLUDING, BUT NOT LIMITED TO, PROCUREMENT OF SUBSTITUTE GOODS OR
  32:Core/Src/main.c ****   * SERVICES; LOSS OF USE, DATA, OR PROFITS; OR BUSINESS INTERRUPTION) HOWEVER
ARM GAS  C:\Users\WENHUA~1\AppData\Local\Temp\cc31D8p8.s 			page 2


  33:Core/Src/main.c ****   * CAUSED AND ON ANY THEORY OF LIABILITY, WHETHER IN CONTRACT, STRICT LIABILITY,
  34:Core/Src/main.c ****   * OR TORT (INCLUDING NEGLIGENCE OR OTHERWISE) ARISING IN ANY WAY OUT OF THE USE
  35:Core/Src/main.c ****   * OF THIS SOFTWARE, EVEN IF ADVISED OF THE POSSIBILITY OF SUCH DAMAGE.
  36:Core/Src/main.c ****   *
  37:Core/Src/main.c ****   ******************************************************************************
  38:Core/Src/main.c ****   */
  39:Core/Src/main.c **** /* USER CODE END Header */
  40:Core/Src/main.c **** /* Includes ------------------------------------------------------------------*/
  41:Core/Src/main.c **** #include "main.h"
  42:Core/Src/main.c **** #include "dma.h"
  43:Core/Src/main.c **** #include "rtc.h"
  44:Core/Src/main.c **** #include "tim.h"
  45:Core/Src/main.c **** #include "usart.h"
  46:Core/Src/main.c **** #include "gpio.h"
  47:Core/Src/main.c **** 
  48:Core/Src/main.c **** /* Private includes ----------------------------------------------------------*/
  49:Core/Src/main.c **** /* USER CODE BEGIN Includes */
  50:Core/Src/main.c **** #include <stdio.h>
  51:Core/Src/main.c **** #include "hub75d.h"
  52:Core/Src/main.c **** #include "htu21d.h"
  53:Core/Src/main.c **** #include "lunar_calendar.h"
  54:Core/Src/main.c **** #if (WIFI_MODULE==WIFI_ESP8266)
  55:Core/Src/main.c **** #include "esp8266_at.h"
  56:Core/Src/main.c **** #elif (WIFI_MODULE==WIFI_EMW3060)
  57:Core/Src/main.c **** #include "emw3060_at.h"
  58:Core/Src/main.c **** #endif
  59:Core/Src/main.c **** /* USER CODE END Includes */
  60:Core/Src/main.c **** 
  61:Core/Src/main.c **** /* Private typedef -----------------------------------------------------------*/
  62:Core/Src/main.c **** /* USER CODE BEGIN PTD */
  63:Core/Src/main.c **** 
  64:Core/Src/main.c **** /* USER CODE END PTD */
  65:Core/Src/main.c **** 
  66:Core/Src/main.c **** /* Private define ------------------------------------------------------------*/
  67:Core/Src/main.c **** /* USER CODE BEGIN PD */
  68:Core/Src/main.c **** 
  69:Core/Src/main.c **** /* USER CODE END PD */
  70:Core/Src/main.c **** 
  71:Core/Src/main.c **** /* Private macro -------------------------------------------------------------*/
  72:Core/Src/main.c **** /* USER CODE BEGIN PM */
  73:Core/Src/main.c **** //##############################################################################
  74:Core/Src/main.c **** #warning message "Software_Version: <V209>"
  75:Core/Src/main.c **** #warning message "Software_Date:    2022/01/01"
  76:Core/Src/main.c **** #warning message "Software_Project: CLOCK_WIFI"
  77:Core/Src/main.c **** #warning message "Software_MCU:     STM32F103C8T6"
  78:Core/Src/main.c **** #warning message "Main_OSC:         EXT_8M=IXT_72MHz"
  79:Core/Src/main.c **** #warning message "SUB_OSC:          EXT_32.768KHZ"
  80:Core/Src/main.c **** #warning message "Author:           wenhuafeng"
  81:Core/Src/main.c **** //##############################################################################
  82:Core/Src/main.c **** /* USER CODE END PM */
  83:Core/Src/main.c **** 
  84:Core/Src/main.c **** /* Private variables ---------------------------------------------------------*/
  85:Core/Src/main.c **** 
  86:Core/Src/main.c **** /* USER CODE BEGIN PV */
  87:Core/Src/main.c **** 
  88:Core/Src/main.c **** /* USER CODE END PV */
  89:Core/Src/main.c **** 
ARM GAS  C:\Users\WENHUA~1\AppData\Local\Temp\cc31D8p8.s 			page 3


  90:Core/Src/main.c **** /* Private function prototypes -----------------------------------------------*/
  91:Core/Src/main.c **** void SystemClock_Config(void);
  92:Core/Src/main.c **** static void MX_NVIC_Init(void);
  93:Core/Src/main.c **** /* USER CODE BEGIN PFP */
  94:Core/Src/main.c **** 
  95:Core/Src/main.c **** /* USER CODE END PFP */
  96:Core/Src/main.c **** 
  97:Core/Src/main.c **** /* Private user code ---------------------------------------------------------*/
  98:Core/Src/main.c **** /* USER CODE BEGIN 0 */
  99:Core/Src/main.c **** 
 100:Core/Src/main.c **** /* USER CODE END 0 */
 101:Core/Src/main.c **** 
 102:Core/Src/main.c **** /**
 103:Core/Src/main.c ****   * @brief  The application entry point.
 104:Core/Src/main.c ****   * @retval int
 105:Core/Src/main.c ****   */
 106:Core/Src/main.c **** int main(void)
 107:Core/Src/main.c **** {
 108:Core/Src/main.c ****   /* USER CODE BEGIN 1 */
 109:Core/Src/main.c **** 
 110:Core/Src/main.c ****   /* USER CODE END 1 */
 111:Core/Src/main.c **** 
 112:Core/Src/main.c ****   /* MCU Configuration--------------------------------------------------------*/
 113:Core/Src/main.c **** 
 114:Core/Src/main.c ****   /* Reset of all peripherals, Initializes the Flash interface and the Systick. */
 115:Core/Src/main.c ****   HAL_Init();
 116:Core/Src/main.c **** 
 117:Core/Src/main.c ****   /* USER CODE BEGIN Init */
 118:Core/Src/main.c **** 
 119:Core/Src/main.c ****   /* USER CODE END Init */
 120:Core/Src/main.c **** 
 121:Core/Src/main.c ****   /* Configure the system clock */
 122:Core/Src/main.c ****   SystemClock_Config();
 123:Core/Src/main.c **** 
 124:Core/Src/main.c ****   /* USER CODE BEGIN SysInit */
 125:Core/Src/main.c **** 
 126:Core/Src/main.c ****   /* USER CODE END SysInit */
 127:Core/Src/main.c **** 
 128:Core/Src/main.c ****   /* Initialize all configured peripherals */
 129:Core/Src/main.c ****   MX_GPIO_Init();
 130:Core/Src/main.c ****   MX_DMA_Init();
 131:Core/Src/main.c ****   MX_RTC_Init();
 132:Core/Src/main.c ****   MX_TIM4_Init();
 133:Core/Src/main.c ****   MX_USART1_UART_Init();
 134:Core/Src/main.c **** 
 135:Core/Src/main.c ****   /* Initialize interrupts */
 136:Core/Src/main.c ****   MX_NVIC_Init();
 137:Core/Src/main.c ****   /* USER CODE BEGIN 2 */
 138:Core/Src/main.c ****   HTU21D_I2cInit();
 139:Core/Src/main.c ****   HAL_RTCEx_SetSecond_IT(&hrtc);
 140:Core/Src/main.c ****   GetClock();
 141:Core/Src/main.c ****   HAL_Delay(200);
 142:Core/Src/main.c ****   //TH init
 143:Core/Src/main.c ****   HTU21D_Init();
 144:Core/Src/main.c ****   HAL_Delay(10);
 145:Core/Src/main.c ****   HTU21D_Reset();
 146:Core/Src/main.c ****   HAL_Delay(100);
ARM GAS  C:\Users\WENHUA~1\AppData\Local\Temp\cc31D8p8.s 			page 4


 147:Core/Src/main.c ****   HTU21D_GetData();
 148:Core/Src/main.c ****   //UART WIFI init
 149:Core/Src/main.c ****   WIFI_PowerOnOff(POWER_ON);
 150:Core/Src/main.c ****   HAL_Delay(100);
 151:Core/Src/main.c ****   WIFI_Init();
 152:Core/Src/main.c **** 
 153:Core/Src/main.c ****   HAL_UART_Receive_DMA(&huart1, UsartType1.usartDMA_rxBuf, RECEIVELEN);
 154:Core/Src/main.c ****   __HAL_UART_ENABLE_IT(&huart1, UART_IT_IDLE);
 155:Core/Src/main.c ****   //DISP power on
 156:Core/Src/main.c ****   HUB75D_DispOnOff(DISP_TIME_5MIN);
 157:Core/Src/main.c ****   HAL_Delay(10);
 158:Core/Src/main.c ****   MX_TIM4_Init();
 159:Core/Src/main.c ****   HAL_TIM_Base_Start(&htim4);
 160:Core/Src/main.c ****   HAL_TIM_Base_Start_IT(&htim4);
 161:Core/Src/main.c ****   /* USER CODE END 2 */
 162:Core/Src/main.c **** 
 163:Core/Src/main.c ****   /* Infinite loop */
 164:Core/Src/main.c ****   /* USER CODE BEGIN WHILE */
 165:Core/Src/main.c ****   while (1)
 166:Core/Src/main.c ****   {
 167:Core/Src/main.c ****     /* USER CODE END WHILE */
 168:Core/Src/main.c **** 
 169:Core/Src/main.c ****     /* USER CODE BEGIN 3 */
 170:Core/Src/main.c ****     if (UsartType1.receive_flag) {
 171:Core/Src/main.c ****       UsartType1.receive_flag = 0;
 172:Core/Src/main.c ****       WIFI_ReceiveProcess(UsartType1.usartDMA_rxBuf);
 173:Core/Src/main.c ****       HAL_UART_Receive_DMA(&huart1, UsartType1.usartDMA_rxBuf, RECEIVELEN);
 174:Core/Src/main.c ****     }
 175:Core/Src/main.c **** 
 176:Core/Src/main.c ****     if (Get1sFlag() == true) {
 177:Core/Src/main.c ****       Set1sFlag(false);
 178:Core/Src/main.c ****       WIFI_CtrDec();
 179:Core/Src/main.c ****       HTU21D_Sampling();
 180:Core/Src/main.c ****       if (ClockRun() == true) {
 181:Core/Src/main.c ****         CalculationLunarCalendar(GetTimeData());
 182:Core/Src/main.c ****       }
 183:Core/Src/main.c ****       HUB75D_CalculateCalendar(GetTimeData());
 184:Core/Src/main.c ****       if (HUB75D_CtrDec() == true) {
 185:Core/Src/main.c ****         EnterStandbyMode();
 186:Core/Src/main.c ****       }
 187:Core/Src/main.c ****     }
 188:Core/Src/main.c ****   }
 189:Core/Src/main.c ****   /* USER CODE END 3 */
 190:Core/Src/main.c **** }
 191:Core/Src/main.c **** 
 192:Core/Src/main.c **** /**
 193:Core/Src/main.c ****   * @brief System Clock Configuration
 194:Core/Src/main.c ****   * @retval None
 195:Core/Src/main.c ****   */
 196:Core/Src/main.c **** void SystemClock_Config(void)
 197:Core/Src/main.c **** {
 198:Core/Src/main.c ****   RCC_OscInitTypeDef RCC_OscInitStruct = {0};
 199:Core/Src/main.c ****   RCC_ClkInitTypeDef RCC_ClkInitStruct = {0};
 200:Core/Src/main.c ****   RCC_PeriphCLKInitTypeDef PeriphClkInit = {0};
 201:Core/Src/main.c **** 
 202:Core/Src/main.c ****   /** Initializes the RCC Oscillators according to the specified parameters
 203:Core/Src/main.c ****   * in the RCC_OscInitTypeDef structure.
ARM GAS  C:\Users\WENHUA~1\AppData\Local\Temp\cc31D8p8.s 			page 5


 204:Core/Src/main.c ****   */
 205:Core/Src/main.c ****   RCC_OscInitStruct.OscillatorType = RCC_OSCILLATORTYPE_HSE|RCC_OSCILLATORTYPE_LSE;
 206:Core/Src/main.c ****   RCC_OscInitStruct.HSEState = RCC_HSE_ON;
 207:Core/Src/main.c ****   RCC_OscInitStruct.HSEPredivValue = RCC_HSE_PREDIV_DIV1;
 208:Core/Src/main.c ****   RCC_OscInitStruct.LSEState = RCC_LSE_ON;
 209:Core/Src/main.c ****   RCC_OscInitStruct.HSIState = RCC_HSI_ON;
 210:Core/Src/main.c ****   RCC_OscInitStruct.PLL.PLLState = RCC_PLL_ON;
 211:Core/Src/main.c ****   RCC_OscInitStruct.PLL.PLLSource = RCC_PLLSOURCE_HSE;
 212:Core/Src/main.c ****   RCC_OscInitStruct.PLL.PLLMUL = RCC_PLL_MUL9;
 213:Core/Src/main.c ****   if (HAL_RCC_OscConfig(&RCC_OscInitStruct) != HAL_OK)
 214:Core/Src/main.c ****   {
 215:Core/Src/main.c ****     Error_Handler();
 216:Core/Src/main.c ****   }
 217:Core/Src/main.c ****   /** Initializes the CPU, AHB and APB buses clocks
 218:Core/Src/main.c ****   */
 219:Core/Src/main.c ****   RCC_ClkInitStruct.ClockType = RCC_CLOCKTYPE_HCLK|RCC_CLOCKTYPE_SYSCLK
 220:Core/Src/main.c ****                               |RCC_CLOCKTYPE_PCLK1|RCC_CLOCKTYPE_PCLK2;
 221:Core/Src/main.c ****   RCC_ClkInitStruct.SYSCLKSource = RCC_SYSCLKSOURCE_PLLCLK;
 222:Core/Src/main.c ****   RCC_ClkInitStruct.AHBCLKDivider = RCC_SYSCLK_DIV1;
 223:Core/Src/main.c ****   RCC_ClkInitStruct.APB1CLKDivider = RCC_HCLK_DIV2;
 224:Core/Src/main.c ****   RCC_ClkInitStruct.APB2CLKDivider = RCC_HCLK_DIV1;
 225:Core/Src/main.c **** 
 226:Core/Src/main.c ****   if (HAL_RCC_ClockConfig(&RCC_ClkInitStruct, FLASH_LATENCY_2) != HAL_OK)
 227:Core/Src/main.c ****   {
 228:Core/Src/main.c ****     Error_Handler();
 229:Core/Src/main.c ****   }
 230:Core/Src/main.c ****   PeriphClkInit.PeriphClockSelection = RCC_PERIPHCLK_RTC;
 231:Core/Src/main.c ****   PeriphClkInit.RTCClockSelection = RCC_RTCCLKSOURCE_LSE;
 232:Core/Src/main.c ****   if (HAL_RCCEx_PeriphCLKConfig(&PeriphClkInit) != HAL_OK)
 233:Core/Src/main.c ****   {
 234:Core/Src/main.c ****     Error_Handler();
 235:Core/Src/main.c ****   }
 236:Core/Src/main.c **** }
 237:Core/Src/main.c **** 
 238:Core/Src/main.c **** /**
 239:Core/Src/main.c ****   * @brief NVIC Configuration.
 240:Core/Src/main.c ****   * @retval None
 241:Core/Src/main.c ****   */
 242:Core/Src/main.c **** static void MX_NVIC_Init(void)
 243:Core/Src/main.c **** {
  27              		.loc 1 243 1 view -0
  28              		.cfi_startproc
  29              		@ args = 0, pretend = 0, frame = 0
  30              		@ frame_needed = 0, uses_anonymous_args = 0
 244:Core/Src/main.c ****   /* TIM4_IRQn interrupt configuration */
 245:Core/Src/main.c ****   HAL_NVIC_SetPriority(TIM4_IRQn, 0, 0);
  31              		.loc 1 245 3 view .LVU1
  32 0000 0022     		movs	r2, #0
 243:Core/Src/main.c ****   /* TIM4_IRQn interrupt configuration */
  33              		.loc 1 243 1 is_stmt 0 view .LVU2
  34 0002 08B5     		push	{r3, lr}
  35              	.LCFI0:
  36              		.cfi_def_cfa_offset 8
  37              		.cfi_offset 3, -8
  38              		.cfi_offset 14, -4
  39              		.loc 1 245 3 view .LVU3
  40 0004 1146     		mov	r1, r2
ARM GAS  C:\Users\WENHUA~1\AppData\Local\Temp\cc31D8p8.s 			page 6


  41 0006 1E20     		movs	r0, #30
  42 0008 FFF7FEFF 		bl	HAL_NVIC_SetPriority
  43              	.LVL0:
 246:Core/Src/main.c ****   HAL_NVIC_EnableIRQ(TIM4_IRQn);
  44              		.loc 1 246 3 is_stmt 1 view .LVU4
  45 000c 1E20     		movs	r0, #30
  46 000e FFF7FEFF 		bl	HAL_NVIC_EnableIRQ
  47              	.LVL1:
 247:Core/Src/main.c ****   /* USART1_IRQn interrupt configuration */
 248:Core/Src/main.c ****   HAL_NVIC_SetPriority(USART1_IRQn, 0, 1);
  48              		.loc 1 248 3 view .LVU5
  49 0012 0122     		movs	r2, #1
  50 0014 0021     		movs	r1, #0
  51 0016 2520     		movs	r0, #37
  52 0018 FFF7FEFF 		bl	HAL_NVIC_SetPriority
  53              	.LVL2:
 249:Core/Src/main.c ****   HAL_NVIC_EnableIRQ(USART1_IRQn);
  54              		.loc 1 249 3 view .LVU6
  55 001c 2520     		movs	r0, #37
  56 001e FFF7FEFF 		bl	HAL_NVIC_EnableIRQ
  57              	.LVL3:
 250:Core/Src/main.c ****   /* DMA1_Channel4_IRQn interrupt configuration */
 251:Core/Src/main.c ****   HAL_NVIC_SetPriority(DMA1_Channel4_IRQn, 1, 0);
  58              		.loc 1 251 3 view .LVU7
  59 0022 0022     		movs	r2, #0
  60 0024 0121     		movs	r1, #1
  61 0026 0E20     		movs	r0, #14
  62 0028 FFF7FEFF 		bl	HAL_NVIC_SetPriority
  63              	.LVL4:
 252:Core/Src/main.c ****   HAL_NVIC_EnableIRQ(DMA1_Channel4_IRQn);
  64              		.loc 1 252 3 view .LVU8
  65 002c 0E20     		movs	r0, #14
  66 002e FFF7FEFF 		bl	HAL_NVIC_EnableIRQ
  67              	.LVL5:
 253:Core/Src/main.c ****   /* DMA1_Channel5_IRQn interrupt configuration */
 254:Core/Src/main.c ****   HAL_NVIC_SetPriority(DMA1_Channel5_IRQn, 1, 0);
  68              		.loc 1 254 3 view .LVU9
  69 0032 0022     		movs	r2, #0
  70 0034 0121     		movs	r1, #1
  71 0036 0F20     		movs	r0, #15
  72 0038 FFF7FEFF 		bl	HAL_NVIC_SetPriority
  73              	.LVL6:
 255:Core/Src/main.c ****   HAL_NVIC_EnableIRQ(DMA1_Channel5_IRQn);
  74              		.loc 1 255 3 view .LVU10
  75 003c 0F20     		movs	r0, #15
  76 003e FFF7FEFF 		bl	HAL_NVIC_EnableIRQ
  77              	.LVL7:
 256:Core/Src/main.c ****   /* RTC_IRQn interrupt configuration */
 257:Core/Src/main.c ****   HAL_NVIC_SetPriority(RTC_IRQn, 1, 1);
  78              		.loc 1 257 3 view .LVU11
  79 0042 0122     		movs	r2, #1
  80 0044 0320     		movs	r0, #3
  81 0046 1146     		mov	r1, r2
  82 0048 FFF7FEFF 		bl	HAL_NVIC_SetPriority
  83              	.LVL8:
 258:Core/Src/main.c ****   HAL_NVIC_EnableIRQ(RTC_IRQn);
  84              		.loc 1 258 3 view .LVU12
ARM GAS  C:\Users\WENHUA~1\AppData\Local\Temp\cc31D8p8.s 			page 7


  85 004c 0320     		movs	r0, #3
  86 004e FFF7FEFF 		bl	HAL_NVIC_EnableIRQ
  87              	.LVL9:
 259:Core/Src/main.c ****   /* EXTI0_IRQn interrupt configuration */
 260:Core/Src/main.c ****   HAL_NVIC_SetPriority(EXTI0_IRQn, 1, 2);
  88              		.loc 1 260 3 view .LVU13
  89 0052 0620     		movs	r0, #6
  90 0054 0222     		movs	r2, #2
  91 0056 0121     		movs	r1, #1
  92 0058 FFF7FEFF 		bl	HAL_NVIC_SetPriority
  93              	.LVL10:
 261:Core/Src/main.c ****   HAL_NVIC_EnableIRQ(EXTI0_IRQn);
  94              		.loc 1 261 3 view .LVU14
 262:Core/Src/main.c **** }
  95              		.loc 1 262 1 is_stmt 0 view .LVU15
  96 005c BDE80840 		pop	{r3, lr}
  97              	.LCFI1:
  98              		.cfi_restore 14
  99              		.cfi_restore 3
 100              		.cfi_def_cfa_offset 0
 261:Core/Src/main.c ****   HAL_NVIC_EnableIRQ(EXTI0_IRQn);
 101              		.loc 1 261 3 view .LVU16
 102 0060 0620     		movs	r0, #6
 103 0062 FFF7FEBF 		b	HAL_NVIC_EnableIRQ
 104              	.LVL11:
 105              		.cfi_endproc
 106              	.LFE70:
 108 0066 00BF     		.section	.text.SystemClock_Config,"ax",%progbits
 109              		.align	1
 110              		.p2align 2,,3
 111              		.global	SystemClock_Config
 112              		.syntax unified
 113              		.thumb
 114              		.thumb_func
 116              	SystemClock_Config:
 117              	.LFB69:
 197:Core/Src/main.c ****   RCC_OscInitTypeDef RCC_OscInitStruct = {0};
 118              		.loc 1 197 1 is_stmt 1 view -0
 119              		.cfi_startproc
 120              		@ args = 0, pretend = 0, frame = 80
 121              		@ frame_needed = 0, uses_anonymous_args = 0
 198:Core/Src/main.c ****   RCC_ClkInitTypeDef RCC_ClkInitStruct = {0};
 122              		.loc 1 198 3 view .LVU18
 208:Core/Src/main.c ****   RCC_OscInitStruct.HSIState = RCC_HSI_ON;
 123              		.loc 1 208 30 is_stmt 0 view .LVU19
 124 0000 0123     		movs	r3, #1
 197:Core/Src/main.c ****   RCC_OscInitTypeDef RCC_OscInitStruct = {0};
 125              		.loc 1 197 1 view .LVU20
 126 0002 30B5     		push	{r4, r5, lr}
 127              	.LCFI2:
 128              		.cfi_def_cfa_offset 12
 129              		.cfi_offset 4, -12
 130              		.cfi_offset 5, -8
 131              		.cfi_offset 14, -4
 205:Core/Src/main.c ****   RCC_OscInitStruct.HSEState = RCC_HSE_ON;
 132              		.loc 1 205 36 view .LVU21
 133 0004 4FF48031 		mov	r1, #65536
ARM GAS  C:\Users\WENHUA~1\AppData\Local\Temp\cc31D8p8.s 			page 8


 197:Core/Src/main.c ****   RCC_OscInitTypeDef RCC_OscInitStruct = {0};
 134              		.loc 1 197 1 view .LVU22
 135 0008 95B0     		sub	sp, sp, #84
 136              	.LCFI3:
 137              		.cfi_def_cfa_offset 96
 205:Core/Src/main.c ****   RCC_OscInitStruct.HSEState = RCC_HSE_ON;
 138              		.loc 1 205 36 view .LVU23
 139 000a 0520     		movs	r0, #5
 198:Core/Src/main.c ****   RCC_ClkInitTypeDef RCC_ClkInitStruct = {0};
 140              		.loc 1 198 22 view .LVU24
 141 000c 0024     		movs	r4, #0
 210:Core/Src/main.c ****   RCC_OscInitStruct.PLL.PLLSource = RCC_PLLSOURCE_HSE;
 142              		.loc 1 210 34 view .LVU25
 143 000e 0225     		movs	r5, #2
 211:Core/Src/main.c ****   RCC_OscInitStruct.PLL.PLLMUL = RCC_PLL_MUL9;
 144              		.loc 1 211 35 view .LVU26
 145 0010 4FF48032 		mov	r2, #65536
 209:Core/Src/main.c ****   RCC_OscInitStruct.PLL.PLLState = RCC_PLL_ON;
 146              		.loc 1 209 30 view .LVU27
 147 0014 CDE90D33 		strd	r3, r3, [sp, #52]
 212:Core/Src/main.c ****   if (HAL_RCC_OscConfig(&RCC_OscInitStruct) != HAL_OK)
 148              		.loc 1 212 32 view .LVU28
 149 0018 4FF4E013 		mov	r3, #1835008
 205:Core/Src/main.c ****   RCC_OscInitStruct.HSEState = RCC_HSE_ON;
 150              		.loc 1 205 36 view .LVU29
 151 001c CDE90A01 		strd	r0, [sp, #40]
 213:Core/Src/main.c ****   {
 152              		.loc 1 213 7 view .LVU30
 153 0020 0AA8     		add	r0, sp, #40
 211:Core/Src/main.c ****   RCC_OscInitStruct.PLL.PLLMUL = RCC_PLL_MUL9;
 154              		.loc 1 211 35 view .LVU31
 155 0022 1292     		str	r2, [sp, #72]
 212:Core/Src/main.c ****   if (HAL_RCC_OscConfig(&RCC_OscInitStruct) != HAL_OK)
 156              		.loc 1 212 32 view .LVU32
 157 0024 1393     		str	r3, [sp, #76]
 198:Core/Src/main.c ****   RCC_ClkInitTypeDef RCC_ClkInitStruct = {0};
 158              		.loc 1 198 22 view .LVU33
 159 0026 CDE90F44 		strd	r4, r4, [sp, #60]
 199:Core/Src/main.c ****   RCC_PeriphCLKInitTypeDef PeriphClkInit = {0};
 160              		.loc 1 199 3 is_stmt 1 view .LVU34
 199:Core/Src/main.c ****   RCC_PeriphCLKInitTypeDef PeriphClkInit = {0};
 161              		.loc 1 199 22 is_stmt 0 view .LVU35
 162 002a CDE90544 		strd	r4, r4, [sp, #20]
 163 002e CDE90744 		strd	r4, r4, [sp, #28]
 200:Core/Src/main.c **** 
 164              		.loc 1 200 3 is_stmt 1 view .LVU36
 200:Core/Src/main.c **** 
 165              		.loc 1 200 28 is_stmt 0 view .LVU37
 166 0032 CDE90144 		strd	r4, r4, [sp, #4]
 198:Core/Src/main.c ****   RCC_ClkInitTypeDef RCC_ClkInitStruct = {0};
 167              		.loc 1 198 22 view .LVU38
 168 0036 0C94     		str	r4, [sp, #48]
 199:Core/Src/main.c ****   RCC_PeriphCLKInitTypeDef PeriphClkInit = {0};
 169              		.loc 1 199 22 view .LVU39
 170 0038 0494     		str	r4, [sp, #16]
 200:Core/Src/main.c **** 
 171              		.loc 1 200 28 view .LVU40
ARM GAS  C:\Users\WENHUA~1\AppData\Local\Temp\cc31D8p8.s 			page 9


 172 003a 0094     		str	r4, [sp]
 210:Core/Src/main.c ****   RCC_OscInitStruct.PLL.PLLSource = RCC_PLLSOURCE_HSE;
 173              		.loc 1 210 34 view .LVU41
 174 003c 1195     		str	r5, [sp, #68]
 200:Core/Src/main.c **** 
 175              		.loc 1 200 28 view .LVU42
 176 003e 0394     		str	r4, [sp, #12]
 205:Core/Src/main.c ****   RCC_OscInitStruct.HSEState = RCC_HSE_ON;
 177              		.loc 1 205 3 is_stmt 1 view .LVU43
 206:Core/Src/main.c ****   RCC_OscInitStruct.HSEPredivValue = RCC_HSE_PREDIV_DIV1;
 178              		.loc 1 206 3 view .LVU44
 207:Core/Src/main.c ****   RCC_OscInitStruct.LSEState = RCC_LSE_ON;
 179              		.loc 1 207 3 view .LVU45
 208:Core/Src/main.c ****   RCC_OscInitStruct.HSIState = RCC_HSI_ON;
 180              		.loc 1 208 3 view .LVU46
 209:Core/Src/main.c ****   RCC_OscInitStruct.PLL.PLLState = RCC_PLL_ON;
 181              		.loc 1 209 3 view .LVU47
 210:Core/Src/main.c ****   RCC_OscInitStruct.PLL.PLLSource = RCC_PLLSOURCE_HSE;
 182              		.loc 1 210 3 view .LVU48
 211:Core/Src/main.c ****   RCC_OscInitStruct.PLL.PLLMUL = RCC_PLL_MUL9;
 183              		.loc 1 211 3 view .LVU49
 212:Core/Src/main.c ****   if (HAL_RCC_OscConfig(&RCC_OscInitStruct) != HAL_OK)
 184              		.loc 1 212 3 view .LVU50
 213:Core/Src/main.c ****   {
 185              		.loc 1 213 3 view .LVU51
 213:Core/Src/main.c ****   {
 186              		.loc 1 213 7 is_stmt 0 view .LVU52
 187 0040 FFF7FEFF 		bl	HAL_RCC_OscConfig
 188              	.LVL12:
 219:Core/Src/main.c ****                               |RCC_CLOCKTYPE_PCLK1|RCC_CLOCKTYPE_PCLK2;
 189              		.loc 1 219 3 is_stmt 1 view .LVU53
 221:Core/Src/main.c ****   RCC_ClkInitStruct.AHBCLKDivider = RCC_SYSCLK_DIV1;
 190              		.loc 1 221 3 view .LVU54
 222:Core/Src/main.c ****   RCC_ClkInitStruct.APB1CLKDivider = RCC_HCLK_DIV2;
 191              		.loc 1 222 3 view .LVU55
 223:Core/Src/main.c ****   RCC_ClkInitStruct.APB2CLKDivider = RCC_HCLK_DIV1;
 192              		.loc 1 223 3 view .LVU56
 219:Core/Src/main.c ****                               |RCC_CLOCKTYPE_PCLK1|RCC_CLOCKTYPE_PCLK2;
 193              		.loc 1 219 31 is_stmt 0 view .LVU57
 194 0044 0F22     		movs	r2, #15
 195 0046 0223     		movs	r3, #2
 196 0048 CDE90423 		strd	r2, [sp, #16]
 197 004c 0022     		movs	r2, #0
 198 004e 4FF48063 		mov	r3, #1024
 226:Core/Src/main.c ****   {
 199              		.loc 1 226 7 view .LVU58
 200 0052 2946     		mov	r1, r5
 201 0054 04A8     		add	r0, sp, #16
 219:Core/Src/main.c ****                               |RCC_CLOCKTYPE_PCLK1|RCC_CLOCKTYPE_PCLK2;
 202              		.loc 1 219 31 view .LVU59
 203 0056 CDE90623 		strd	r2, [sp, #24]
 224:Core/Src/main.c **** 
 204              		.loc 1 224 3 is_stmt 1 view .LVU60
 226:Core/Src/main.c ****   {
 205              		.loc 1 226 3 view .LVU61
 224:Core/Src/main.c **** 
 206              		.loc 1 224 36 is_stmt 0 view .LVU62
ARM GAS  C:\Users\WENHUA~1\AppData\Local\Temp\cc31D8p8.s 			page 10


 207 005a 0894     		str	r4, [sp, #32]
 226:Core/Src/main.c ****   {
 208              		.loc 1 226 7 view .LVU63
 209 005c FFF7FEFF 		bl	HAL_RCC_ClockConfig
 210              	.LVL13:
 230:Core/Src/main.c ****   PeriphClkInit.RTCClockSelection = RCC_RTCCLKSOURCE_LSE;
 211              		.loc 1 230 3 is_stmt 1 view .LVU64
 231:Core/Src/main.c ****   if (HAL_RCCEx_PeriphCLKConfig(&PeriphClkInit) != HAL_OK)
 212              		.loc 1 231 3 view .LVU65
 230:Core/Src/main.c ****   PeriphClkInit.RTCClockSelection = RCC_RTCCLKSOURCE_LSE;
 213              		.loc 1 230 38 is_stmt 0 view .LVU66
 214 0060 0122     		movs	r2, #1
 215 0062 4FF48073 		mov	r3, #256
 232:Core/Src/main.c ****   {
 216              		.loc 1 232 7 view .LVU67
 217 0066 6846     		mov	r0, sp
 230:Core/Src/main.c ****   PeriphClkInit.RTCClockSelection = RCC_RTCCLKSOURCE_LSE;
 218              		.loc 1 230 38 view .LVU68
 219 0068 CDE90023 		strd	r2, [sp]
 232:Core/Src/main.c ****   {
 220              		.loc 1 232 3 is_stmt 1 view .LVU69
 232:Core/Src/main.c ****   {
 221              		.loc 1 232 7 is_stmt 0 view .LVU70
 222 006c FFF7FEFF 		bl	HAL_RCCEx_PeriphCLKConfig
 223              	.LVL14:
 236:Core/Src/main.c **** 
 224              		.loc 1 236 1 view .LVU71
 225 0070 15B0     		add	sp, sp, #84
 226              	.LCFI4:
 227              		.cfi_def_cfa_offset 12
 228              		@ sp needed
 229 0072 30BD     		pop	{r4, r5, pc}
 230              		.cfi_endproc
 231              	.LFE69:
 233              		.section	.rodata.EnterStandbyMode.str1.4,"aMS",%progbits,1
 234              		.align	2
 235              	.LC0:
 236 0000 456E7465 		.ascii	"Enter_Stop_Mode\012\015\000"
 236      725F5374 
 236      6F705F4D 
 236      6F64650A 
 236      0D00
 237 0012 0000     		.align	2
 238              	.LC1:
 239 0014 45786974 		.ascii	"Exit_Stop_Mode\012\015\000"
 239      5F53746F 
 239      705F4D6F 
 239      64650A0D 
 239      00
 240              		.section	.text.EnterStandbyMode,"ax",%progbits
 241              		.align	1
 242              		.p2align 2,,3
 243              		.global	EnterStandbyMode
 244              		.syntax unified
 245              		.thumb
 246              		.thumb_func
 248              	EnterStandbyMode:
ARM GAS  C:\Users\WENHUA~1\AppData\Local\Temp\cc31D8p8.s 			page 11


 249              	.LFB71:
 263:Core/Src/main.c **** 
 264:Core/Src/main.c **** /* USER CODE BEGIN 4 */
 265:Core/Src/main.c **** void EnterStandbyMode(void)
 266:Core/Src/main.c **** {
 250              		.loc 1 266 1 is_stmt 1 view -0
 251              		.cfi_startproc
 252              		@ args = 0, pretend = 0, frame = 0
 253              		@ frame_needed = 0, uses_anonymous_args = 0
 267:Core/Src/main.c ****   printf("Enter_Stop_Mode\n\r");
 254              		.loc 1 267 3 view .LVU73
 266:Core/Src/main.c ****   printf("Enter_Stop_Mode\n\r");
 255              		.loc 1 266 1 is_stmt 0 view .LVU74
 256 0000 38B5     		push	{r3, r4, r5, lr}
 257              	.LCFI5:
 258              		.cfi_def_cfa_offset 16
 259              		.cfi_offset 3, -16
 260              		.cfi_offset 4, -12
 261              		.cfi_offset 5, -8
 262              		.cfi_offset 14, -4
 263              		.loc 1 267 3 view .LVU75
 264 0002 2E48     		ldr	r0, .L8
 265 0004 FFF7FEFF 		bl	printf
 266              	.LVL15:
 268:Core/Src/main.c **** 
 269:Core/Src/main.c ****   /* wifi off */
 270:Core/Src/main.c ****   WIFI_PowerOnOff(POWER_OFF);
 267              		.loc 1 270 3 is_stmt 1 view .LVU76
 268 0008 0020     		movs	r0, #0
 269 000a FFF7FEFF 		bl	WIFI_PowerOnOff
 270              	.LVL16:
 271:Core/Src/main.c ****   /* display off */
 272:Core/Src/main.c ****   HUB75D_DispOnOff(DISP_TIME_OFF);
 271              		.loc 1 272 3 view .LVU77
 272 000e 0020     		movs	r0, #0
 273 0010 FFF7FEFF 		bl	HUB75D_DispOnOff
 274              	.LVL17:
 273:Core/Src/main.c ****   /* LED off */
 274:Core/Src/main.c ****   HAL_GPIO_WritePin(WORK_LED_GPIO_Port, WORK_LED_Pin, GPIO_PIN_SET);
 275              		.loc 1 274 3 view .LVU78
 276 0014 0122     		movs	r2, #1
 277 0016 4FF48051 		mov	r1, #4096
 278 001a 2948     		ldr	r0, .L8+4
 279 001c FFF7FEFF 		bl	HAL_GPIO_WritePin
 280              	.LVL18:
 275:Core/Src/main.c **** 
 276:Core/Src/main.c ****   HAL_PWR_EnterSTOPMode(PWR_LOWPOWERREGULATOR_ON, PWR_STOPENTRY_WFI);
 281              		.loc 1 276 3 view .LVU79
 282 0020 0121     		movs	r1, #1
 283 0022 0846     		mov	r0, r1
 284 0024 FFF7FEFF 		bl	HAL_PWR_EnterSTOPMode
 285              	.LVL19:
 277:Core/Src/main.c **** 
 278:Core/Src/main.c ****   HAL_Init();
 286              		.loc 1 278 3 view .LVU80
 287 0028 FFF7FEFF 		bl	HAL_Init
 288              	.LVL20:
ARM GAS  C:\Users\WENHUA~1\AppData\Local\Temp\cc31D8p8.s 			page 12


 279:Core/Src/main.c ****   /* Configure the system clock */
 280:Core/Src/main.c ****   SystemClock_Config();
 289              		.loc 1 280 3 view .LVU81
 290 002c FFF7FEFF 		bl	SystemClock_Config
 291              	.LVL21:
 281:Core/Src/main.c ****   /* Initialize all configured peripherals */
 282:Core/Src/main.c ****   MX_GPIO_Init();
 292              		.loc 1 282 3 view .LVU82
 293 0030 FFF7FEFF 		bl	MX_GPIO_Init
 294              	.LVL22:
 283:Core/Src/main.c ****   MX_DMA_Init();
 295              		.loc 1 283 3 view .LVU83
 296 0034 FFF7FEFF 		bl	MX_DMA_Init
 297              	.LVL23:
 284:Core/Src/main.c ****   MX_USART1_UART_Init();
 298              		.loc 1 284 3 view .LVU84
 299 0038 FFF7FEFF 		bl	MX_USART1_UART_Init
 300              	.LVL24:
 285:Core/Src/main.c ****   /* Initialize interrupts */
 286:Core/Src/main.c ****   MX_NVIC_Init();
 301              		.loc 1 286 3 view .LVU85
 302 003c FFF7FEFF 		bl	MX_NVIC_Init
 303              	.LVL25:
 287:Core/Src/main.c ****   HTU21D_I2cInit();
 304              		.loc 1 287 3 view .LVU86
 305 0040 FFF7FEFF 		bl	HTU21D_I2cInit
 306              	.LVL26:
 288:Core/Src/main.c ****   HAL_RTCEx_SetSecond_IT(&hrtc);
 307              		.loc 1 288 3 view .LVU87
 308 0044 1F48     		ldr	r0, .L8+8
 309 0046 FFF7FEFF 		bl	HAL_RTCEx_SetSecond_IT
 310              	.LVL27:
 289:Core/Src/main.c ****   GetClock();
 311              		.loc 1 289 3 view .LVU88
 312 004a FFF7FEFF 		bl	GetClock
 313              	.LVL28:
 290:Core/Src/main.c ****   HAL_Delay(200);
 314              		.loc 1 290 3 view .LVU89
 315 004e C820     		movs	r0, #200
 316 0050 FFF7FEFF 		bl	HAL_Delay
 317              	.LVL29:
 291:Core/Src/main.c ****   /* TH init */
 292:Core/Src/main.c ****   HTU21D_Init();
 318              		.loc 1 292 3 view .LVU90
 319 0054 FFF7FEFF 		bl	HTU21D_Init
 320              	.LVL30:
 293:Core/Src/main.c ****   HAL_Delay(10);
 321              		.loc 1 293 3 view .LVU91
 322 0058 0A20     		movs	r0, #10
 323 005a FFF7FEFF 		bl	HAL_Delay
 324              	.LVL31:
 294:Core/Src/main.c ****   HTU21D_Reset();
 325              		.loc 1 294 3 view .LVU92
 326 005e FFF7FEFF 		bl	HTU21D_Reset
 327              	.LVL32:
 295:Core/Src/main.c ****   HAL_Delay(100);
 328              		.loc 1 295 3 view .LVU93
ARM GAS  C:\Users\WENHUA~1\AppData\Local\Temp\cc31D8p8.s 			page 13


 329 0062 6420     		movs	r0, #100
 330 0064 FFF7FEFF 		bl	HAL_Delay
 331              	.LVL33:
 296:Core/Src/main.c ****   HTU21D_GetData();
 332              		.loc 1 296 3 view .LVU94
 297:Core/Src/main.c ****   /* wifi init */
 298:Core/Src/main.c ****   WIFI_PowerOnOff(POWER_ON);
 299:Core/Src/main.c ****   HAL_Delay(100);
 300:Core/Src/main.c ****   WIFI_Init();
 301:Core/Src/main.c ****   HAL_UART_Receive_DMA(&huart1, UsartType1.usartDMA_rxBuf, RECEIVELEN);
 333              		.loc 1 301 3 is_stmt 0 view .LVU95
 334 0068 174D     		ldr	r5, .L8+12
 296:Core/Src/main.c ****   HTU21D_GetData();
 335              		.loc 1 296 3 view .LVU96
 336 006a FFF7FEFF 		bl	HTU21D_GetData
 337              	.LVL34:
 298:Core/Src/main.c ****   HAL_Delay(100);
 338              		.loc 1 298 3 is_stmt 1 view .LVU97
 339 006e 0120     		movs	r0, #1
 340 0070 FFF7FEFF 		bl	WIFI_PowerOnOff
 341              	.LVL35:
 299:Core/Src/main.c ****   WIFI_Init();
 342              		.loc 1 299 3 view .LVU98
 343 0074 6420     		movs	r0, #100
 344 0076 FFF7FEFF 		bl	HAL_Delay
 345              	.LVL36:
 300:Core/Src/main.c ****   HAL_UART_Receive_DMA(&huart1, UsartType1.usartDMA_rxBuf, RECEIVELEN);
 346              		.loc 1 300 3 view .LVU99
 347 007a FFF7FEFF 		bl	WIFI_Init
 348              	.LVL37:
 349              		.loc 1 301 3 view .LVU100
 350 007e 1349     		ldr	r1, .L8+16
 351 0080 6422     		movs	r2, #100
 352 0082 2846     		mov	r0, r5
 353 0084 FFF7FEFF 		bl	HAL_UART_Receive_DMA
 354              	.LVL38:
 302:Core/Src/main.c ****   __HAL_UART_ENABLE_IT(&huart1, UART_IT_IDLE);
 355              		.loc 1 302 3 view .LVU101
 356 0088 2A68     		ldr	r2, [r5]
 303:Core/Src/main.c ****   //DISP power on
 304:Core/Src/main.c ****   HUB75D_DispOnOff(DISP_TIME_5MIN);
 305:Core/Src/main.c ****   HAL_Delay(100);
 306:Core/Src/main.c ****   MX_TIM4_Init();
 307:Core/Src/main.c ****   HAL_TIM_Base_Start(&htim4);
 357              		.loc 1 307 3 is_stmt 0 view .LVU102
 358 008a 114C     		ldr	r4, .L8+20
 302:Core/Src/main.c ****   __HAL_UART_ENABLE_IT(&huart1, UART_IT_IDLE);
 359              		.loc 1 302 3 view .LVU103
 360 008c D368     		ldr	r3, [r2, #12]
 304:Core/Src/main.c ****   HAL_Delay(100);
 361              		.loc 1 304 3 view .LVU104
 362 008e 4FF49670 		mov	r0, #300
 302:Core/Src/main.c ****   __HAL_UART_ENABLE_IT(&huart1, UART_IT_IDLE);
 363              		.loc 1 302 3 view .LVU105
 364 0092 43F01003 		orr	r3, r3, #16
 365 0096 D360     		str	r3, [r2, #12]
 304:Core/Src/main.c ****   HAL_Delay(100);
ARM GAS  C:\Users\WENHUA~1\AppData\Local\Temp\cc31D8p8.s 			page 14


 366              		.loc 1 304 3 is_stmt 1 view .LVU106
 367 0098 FFF7FEFF 		bl	HUB75D_DispOnOff
 368              	.LVL39:
 305:Core/Src/main.c ****   MX_TIM4_Init();
 369              		.loc 1 305 3 view .LVU107
 370 009c 6420     		movs	r0, #100
 371 009e FFF7FEFF 		bl	HAL_Delay
 372              	.LVL40:
 306:Core/Src/main.c ****   HAL_TIM_Base_Start(&htim4);
 373              		.loc 1 306 3 view .LVU108
 374 00a2 FFF7FEFF 		bl	MX_TIM4_Init
 375              	.LVL41:
 376              		.loc 1 307 3 view .LVU109
 377 00a6 2046     		mov	r0, r4
 378 00a8 FFF7FEFF 		bl	HAL_TIM_Base_Start
 379              	.LVL42:
 308:Core/Src/main.c ****   HAL_TIM_Base_Start_IT(&htim4);
 380              		.loc 1 308 3 view .LVU110
 381 00ac 2046     		mov	r0, r4
 382 00ae FFF7FEFF 		bl	HAL_TIM_Base_Start_IT
 383              	.LVL43:
 309:Core/Src/main.c **** 
 310:Core/Src/main.c ****   printf("Exit_Stop_Mode\n\r");
 384              		.loc 1 310 3 view .LVU111
 311:Core/Src/main.c **** }
 385              		.loc 1 311 1 is_stmt 0 view .LVU112
 386 00b2 BDE83840 		pop	{r3, r4, r5, lr}
 387              	.LCFI6:
 388              		.cfi_restore 14
 389              		.cfi_restore 5
 390              		.cfi_restore 4
 391              		.cfi_restore 3
 392              		.cfi_def_cfa_offset 0
 310:Core/Src/main.c **** }
 393              		.loc 1 310 3 view .LVU113
 394 00b6 0748     		ldr	r0, .L8+24
 395 00b8 FFF7FEBF 		b	printf
 396              	.LVL44:
 397              	.L9:
 398              		.align	2
 399              	.L8:
 400 00bc 00000000 		.word	.LC0
 401 00c0 000C0140 		.word	1073810432
 402 00c4 00000000 		.word	hrtc
 403 00c8 00000000 		.word	huart1
 404 00cc 04000000 		.word	UsartType1+4
 405 00d0 00000000 		.word	htim4
 406 00d4 14000000 		.word	.LC1
 407              		.cfi_endproc
 408              	.LFE71:
 410              		.section	.text.startup.main,"ax",%progbits
 411              		.align	1
 412              		.p2align 2,,3
 413              		.global	main
 414              		.syntax unified
 415              		.thumb
 416              		.thumb_func
ARM GAS  C:\Users\WENHUA~1\AppData\Local\Temp\cc31D8p8.s 			page 15


 418              	main:
 419              	.LFB68:
 107:Core/Src/main.c ****   /* USER CODE BEGIN 1 */
 420              		.loc 1 107 1 is_stmt 1 view -0
 421              		.cfi_startproc
 422              		@ Volatile: function does not return.
 423              		@ args = 0, pretend = 0, frame = 0
 424              		@ frame_needed = 0, uses_anonymous_args = 0
 115:Core/Src/main.c **** 
 425              		.loc 1 115 3 view .LVU115
 107:Core/Src/main.c ****   /* USER CODE BEGIN 1 */
 426              		.loc 1 107 1 is_stmt 0 view .LVU116
 427 0000 08B5     		push	{r3, lr}
 428              	.LCFI7:
 429              		.cfi_def_cfa_offset 8
 430              		.cfi_offset 3, -8
 431              		.cfi_offset 14, -4
 115:Core/Src/main.c **** 
 432              		.loc 1 115 3 view .LVU117
 433 0002 FFF7FEFF 		bl	HAL_Init
 434              	.LVL45:
 122:Core/Src/main.c **** 
 435              		.loc 1 122 3 is_stmt 1 view .LVU118
 436 0006 FFF7FEFF 		bl	SystemClock_Config
 437              	.LVL46:
 129:Core/Src/main.c ****   MX_DMA_Init();
 438              		.loc 1 129 3 view .LVU119
 439 000a FFF7FEFF 		bl	MX_GPIO_Init
 440              	.LVL47:
 130:Core/Src/main.c ****   MX_RTC_Init();
 441              		.loc 1 130 3 view .LVU120
 442 000e FFF7FEFF 		bl	MX_DMA_Init
 443              	.LVL48:
 131:Core/Src/main.c ****   MX_TIM4_Init();
 444              		.loc 1 131 3 view .LVU121
 445 0012 FFF7FEFF 		bl	MX_RTC_Init
 446              	.LVL49:
 132:Core/Src/main.c ****   MX_USART1_UART_Init();
 447              		.loc 1 132 3 view .LVU122
 448 0016 FFF7FEFF 		bl	MX_TIM4_Init
 449              	.LVL50:
 133:Core/Src/main.c **** 
 450              		.loc 1 133 3 view .LVU123
 451 001a FFF7FEFF 		bl	MX_USART1_UART_Init
 452              	.LVL51:
 136:Core/Src/main.c ****   /* USER CODE BEGIN 2 */
 453              		.loc 1 136 3 view .LVU124
 454 001e FFF7FEFF 		bl	MX_NVIC_Init
 455              	.LVL52:
 138:Core/Src/main.c ****   HAL_RTCEx_SetSecond_IT(&hrtc);
 456              		.loc 1 138 3 view .LVU125
 457 0022 FFF7FEFF 		bl	HTU21D_I2cInit
 458              	.LVL53:
 139:Core/Src/main.c ****   GetClock();
 459              		.loc 1 139 3 view .LVU126
 460 0026 3A48     		ldr	r0, .L24
 461 0028 FFF7FEFF 		bl	HAL_RTCEx_SetSecond_IT
ARM GAS  C:\Users\WENHUA~1\AppData\Local\Temp\cc31D8p8.s 			page 16


 462              	.LVL54:
 140:Core/Src/main.c ****   HAL_Delay(200);
 463              		.loc 1 140 3 view .LVU127
 464 002c FFF7FEFF 		bl	GetClock
 465              	.LVL55:
 141:Core/Src/main.c ****   //TH init
 466              		.loc 1 141 3 view .LVU128
 467 0030 C820     		movs	r0, #200
 468 0032 FFF7FEFF 		bl	HAL_Delay
 469              	.LVL56:
 143:Core/Src/main.c ****   HAL_Delay(10);
 470              		.loc 1 143 3 view .LVU129
 471 0036 FFF7FEFF 		bl	HTU21D_Init
 472              	.LVL57:
 144:Core/Src/main.c ****   HTU21D_Reset();
 473              		.loc 1 144 3 view .LVU130
 474 003a 0A20     		movs	r0, #10
 475 003c FFF7FEFF 		bl	HAL_Delay
 476              	.LVL58:
 145:Core/Src/main.c ****   HAL_Delay(100);
 477              		.loc 1 145 3 view .LVU131
 478 0040 FFF7FEFF 		bl	HTU21D_Reset
 479              	.LVL59:
 146:Core/Src/main.c ****   HTU21D_GetData();
 480              		.loc 1 146 3 view .LVU132
 481 0044 6420     		movs	r0, #100
 482 0046 FFF7FEFF 		bl	HAL_Delay
 483              	.LVL60:
 147:Core/Src/main.c ****   //UART WIFI init
 484              		.loc 1 147 3 view .LVU133
 153:Core/Src/main.c ****   __HAL_UART_ENABLE_IT(&huart1, UART_IT_IDLE);
 485              		.loc 1 153 3 is_stmt 0 view .LVU134
 486 004a 324E     		ldr	r6, .L24+4
 147:Core/Src/main.c ****   //UART WIFI init
 487              		.loc 1 147 3 view .LVU135
 488 004c FFF7FEFF 		bl	HTU21D_GetData
 489              	.LVL61:
 149:Core/Src/main.c ****   HAL_Delay(100);
 490              		.loc 1 149 3 is_stmt 1 view .LVU136
 491 0050 0120     		movs	r0, #1
 492 0052 FFF7FEFF 		bl	WIFI_PowerOnOff
 493              	.LVL62:
 150:Core/Src/main.c ****   WIFI_Init();
 494              		.loc 1 150 3 view .LVU137
 495 0056 6420     		movs	r0, #100
 496 0058 FFF7FEFF 		bl	HAL_Delay
 497              	.LVL63:
 151:Core/Src/main.c **** 
 498              		.loc 1 151 3 view .LVU138
 499 005c FFF7FEFF 		bl	WIFI_Init
 500              	.LVL64:
 153:Core/Src/main.c ****   __HAL_UART_ENABLE_IT(&huart1, UART_IT_IDLE);
 501              		.loc 1 153 3 view .LVU139
 502 0060 2D49     		ldr	r1, .L24+8
 503 0062 6422     		movs	r2, #100
 504 0064 3046     		mov	r0, r6
 505 0066 FFF7FEFF 		bl	HAL_UART_Receive_DMA
ARM GAS  C:\Users\WENHUA~1\AppData\Local\Temp\cc31D8p8.s 			page 17


 506              	.LVL65:
 154:Core/Src/main.c ****   //DISP power on
 507              		.loc 1 154 3 view .LVU140
 508 006a 3268     		ldr	r2, [r6]
 156:Core/Src/main.c ****   HAL_Delay(10);
 509              		.loc 1 156 3 is_stmt 0 view .LVU141
 510 006c 4FF49670 		mov	r0, #300
 154:Core/Src/main.c ****   //DISP power on
 511              		.loc 1 154 3 view .LVU142
 512 0070 D368     		ldr	r3, [r2, #12]
 513 0072 2A4C     		ldr	r4, .L24+12
 514 0074 43F01003 		orr	r3, r3, #16
 515 0078 D360     		str	r3, [r2, #12]
 156:Core/Src/main.c ****   HAL_Delay(10);
 516              		.loc 1 156 3 is_stmt 1 view .LVU143
 517 007a FFF7FEFF 		bl	HUB75D_DispOnOff
 518              	.LVL66:
 157:Core/Src/main.c ****   MX_TIM4_Init();
 519              		.loc 1 157 3 view .LVU144
 520 007e 0A20     		movs	r0, #10
 521 0080 FFF7FEFF 		bl	HAL_Delay
 522              	.LVL67:
 158:Core/Src/main.c ****   HAL_TIM_Base_Start(&htim4);
 523              		.loc 1 158 3 view .LVU145
 524 0084 FFF7FEFF 		bl	MX_TIM4_Init
 525              	.LVL68:
 159:Core/Src/main.c ****   HAL_TIM_Base_Start_IT(&htim4);
 526              		.loc 1 159 3 view .LVU146
 527 0088 2548     		ldr	r0, .L24+16
 528 008a FFF7FEFF 		bl	HAL_TIM_Base_Start
 529              	.LVL69:
 160:Core/Src/main.c ****   /* USER CODE END 2 */
 530              		.loc 1 160 3 view .LVU147
 531 008e 2448     		ldr	r0, .L24+16
 532 0090 FFF7FEFF 		bl	HAL_TIM_Base_Start_IT
 533              	.LVL70:
 172:Core/Src/main.c ****       HAL_UART_Receive_DMA(&huart1, UsartType1.usartDMA_rxBuf, RECEIVELEN);
 534              		.loc 1 172 7 is_stmt 0 view .LVU148
 535 0094 251D     		adds	r5, r4, #4
 536              	.L14:
 165:Core/Src/main.c ****   {
 537              		.loc 1 165 3 is_stmt 1 view .LVU149
 170:Core/Src/main.c ****       UsartType1.receive_flag = 0;
 538              		.loc 1 170 5 view .LVU150
 176:Core/Src/main.c ****       Set1sFlag(false);
 539              		.loc 1 176 5 view .LVU151
 170:Core/Src/main.c ****       UsartType1.receive_flag = 0;
 540              		.loc 1 170 9 is_stmt 0 view .LVU152
 541 0096 2378     		ldrb	r3, [r4]	@ zero_extendqisi2
 170:Core/Src/main.c ****       UsartType1.receive_flag = 0;
 542              		.loc 1 170 8 view .LVU153
 543 0098 DA07     		lsls	r2, r3, #31
 544 009a 1AD4     		bmi	.L21
 545              	.L11:
 176:Core/Src/main.c ****       Set1sFlag(false);
 546              		.loc 1 176 9 view .LVU154
 547 009c FFF7FEFF 		bl	Get1sFlag
ARM GAS  C:\Users\WENHUA~1\AppData\Local\Temp\cc31D8p8.s 			page 18


 548              	.LVL71:
 176:Core/Src/main.c ****       Set1sFlag(false);
 549              		.loc 1 176 8 view .LVU155
 550 00a0 0028     		cmp	r0, #0
 551 00a2 F8D0     		beq	.L14
 552              	.L12:
 177:Core/Src/main.c ****       WIFI_CtrDec();
 553              		.loc 1 177 7 is_stmt 1 view .LVU156
 554 00a4 0020     		movs	r0, #0
 555 00a6 FFF7FEFF 		bl	Set1sFlag
 556              	.LVL72:
 178:Core/Src/main.c ****       HTU21D_Sampling();
 557              		.loc 1 178 7 view .LVU157
 558 00aa FFF7FEFF 		bl	WIFI_CtrDec
 559              	.LVL73:
 179:Core/Src/main.c ****       if (ClockRun() == true) {
 560              		.loc 1 179 7 view .LVU158
 561 00ae FFF7FEFF 		bl	HTU21D_Sampling
 562              	.LVL74:
 180:Core/Src/main.c ****         CalculationLunarCalendar(GetTimeData());
 563              		.loc 1 180 7 view .LVU159
 180:Core/Src/main.c ****         CalculationLunarCalendar(GetTimeData());
 564              		.loc 1 180 11 is_stmt 0 view .LVU160
 565 00b2 FFF7FEFF 		bl	ClockRun
 566              	.LVL75:
 183:Core/Src/main.c ****       if (HUB75D_CtrDec() == true) {
 567              		.loc 1 183 7 is_stmt 1 view .LVU161
 180:Core/Src/main.c ****         CalculationLunarCalendar(GetTimeData());
 568              		.loc 1 180 10 is_stmt 0 view .LVU162
 569 00b6 E0B9     		cbnz	r0, .L22
 183:Core/Src/main.c ****       if (HUB75D_CtrDec() == true) {
 570              		.loc 1 183 7 view .LVU163
 571 00b8 FFF7FEFF 		bl	GetTimeData
 572              	.LVL76:
 573 00bc FFF7FEFF 		bl	HUB75D_CalculateCalendar
 574              	.LVL77:
 184:Core/Src/main.c ****         EnterStandbyMode();
 575              		.loc 1 184 7 is_stmt 1 view .LVU164
 184:Core/Src/main.c ****         EnterStandbyMode();
 576              		.loc 1 184 11 is_stmt 0 view .LVU165
 577 00c0 FFF7FEFF 		bl	HUB75D_CtrDec
 578              	.LVL78:
 184:Core/Src/main.c ****         EnterStandbyMode();
 579              		.loc 1 184 10 view .LVU166
 580 00c4 0028     		cmp	r0, #0
 581 00c6 E6D0     		beq	.L14
 185:Core/Src/main.c ****       }
 582              		.loc 1 185 9 is_stmt 1 view .LVU167
 583 00c8 FFF7FEFF 		bl	EnterStandbyMode
 584              	.LVL79:
 585              	.L23:
 165:Core/Src/main.c ****   {
 586              		.loc 1 165 3 view .LVU168
 170:Core/Src/main.c ****       UsartType1.receive_flag = 0;
 587              		.loc 1 170 5 view .LVU169
 176:Core/Src/main.c ****       Set1sFlag(false);
 588              		.loc 1 176 5 view .LVU170
ARM GAS  C:\Users\WENHUA~1\AppData\Local\Temp\cc31D8p8.s 			page 19


 170:Core/Src/main.c ****       UsartType1.receive_flag = 0;
 589              		.loc 1 170 9 is_stmt 0 view .LVU171
 590 00cc 2378     		ldrb	r3, [r4]	@ zero_extendqisi2
 170:Core/Src/main.c ****       UsartType1.receive_flag = 0;
 591              		.loc 1 170 8 view .LVU172
 592 00ce DA07     		lsls	r2, r3, #31
 593 00d0 E4D5     		bpl	.L11
 594              	.L21:
 171:Core/Src/main.c ****       WIFI_ReceiveProcess(UsartType1.usartDMA_rxBuf);
 595              		.loc 1 171 7 is_stmt 1 view .LVU173
 171:Core/Src/main.c ****       WIFI_ReceiveProcess(UsartType1.usartDMA_rxBuf);
 596              		.loc 1 171 31 is_stmt 0 view .LVU174
 597 00d2 6FF30003 		bfc	r3, #0, #1
 172:Core/Src/main.c ****       HAL_UART_Receive_DMA(&huart1, UsartType1.usartDMA_rxBuf, RECEIVELEN);
 598              		.loc 1 172 7 view .LVU175
 599 00d6 2846     		mov	r0, r5
 171:Core/Src/main.c ****       WIFI_ReceiveProcess(UsartType1.usartDMA_rxBuf);
 600              		.loc 1 171 31 view .LVU176
 601 00d8 2370     		strb	r3, [r4]
 172:Core/Src/main.c ****       HAL_UART_Receive_DMA(&huart1, UsartType1.usartDMA_rxBuf, RECEIVELEN);
 602              		.loc 1 172 7 is_stmt 1 view .LVU177
 603 00da FFF7FEFF 		bl	WIFI_ReceiveProcess
 604              	.LVL80:
 173:Core/Src/main.c ****     }
 605              		.loc 1 173 7 view .LVU178
 606 00de 6422     		movs	r2, #100
 607 00e0 2946     		mov	r1, r5
 608 00e2 3046     		mov	r0, r6
 609 00e4 FFF7FEFF 		bl	HAL_UART_Receive_DMA
 610              	.LVL81:
 176:Core/Src/main.c ****       Set1sFlag(false);
 611              		.loc 1 176 5 view .LVU179
 176:Core/Src/main.c ****       Set1sFlag(false);
 612              		.loc 1 176 9 is_stmt 0 view .LVU180
 613 00e8 FFF7FEFF 		bl	Get1sFlag
 614              	.LVL82:
 176:Core/Src/main.c ****       Set1sFlag(false);
 615              		.loc 1 176 8 view .LVU181
 616 00ec 0028     		cmp	r0, #0
 617 00ee D2D0     		beq	.L14
 618 00f0 D8E7     		b	.L12
 619              	.L22:
 181:Core/Src/main.c ****       }
 620              		.loc 1 181 9 is_stmt 1 view .LVU182
 621 00f2 FFF7FEFF 		bl	GetTimeData
 622              	.LVL83:
 623 00f6 FFF7FEFF 		bl	CalculationLunarCalendar
 624              	.LVL84:
 183:Core/Src/main.c ****       if (HUB75D_CtrDec() == true) {
 625              		.loc 1 183 7 view .LVU183
 626 00fa FFF7FEFF 		bl	GetTimeData
 627              	.LVL85:
 628 00fe FFF7FEFF 		bl	HUB75D_CalculateCalendar
 629              	.LVL86:
 184:Core/Src/main.c ****         EnterStandbyMode();
 630              		.loc 1 184 7 view .LVU184
 184:Core/Src/main.c ****         EnterStandbyMode();
ARM GAS  C:\Users\WENHUA~1\AppData\Local\Temp\cc31D8p8.s 			page 20


 631              		.loc 1 184 11 is_stmt 0 view .LVU185
 632 0102 FFF7FEFF 		bl	HUB75D_CtrDec
 633              	.LVL87:
 184:Core/Src/main.c ****         EnterStandbyMode();
 634              		.loc 1 184 10 view .LVU186
 635 0106 0028     		cmp	r0, #0
 636 0108 C5D0     		beq	.L14
 185:Core/Src/main.c ****       }
 637              		.loc 1 185 9 is_stmt 1 view .LVU187
 638 010a FFF7FEFF 		bl	EnterStandbyMode
 639              	.LVL88:
 640 010e DDE7     		b	.L23
 641              	.L25:
 642              		.align	2
 643              	.L24:
 644 0110 00000000 		.word	hrtc
 645 0114 00000000 		.word	huart1
 646 0118 04000000 		.word	UsartType1+4
 647 011c 00000000 		.word	UsartType1
 648 0120 00000000 		.word	htim4
 649              		.cfi_endproc
 650              	.LFE68:
 652              		.section	.text.HAL_GPIO_EXTI_Callback,"ax",%progbits
 653              		.align	1
 654              		.p2align 2,,3
 655              		.global	HAL_GPIO_EXTI_Callback
 656              		.syntax unified
 657              		.thumb
 658              		.thumb_func
 660              	HAL_GPIO_EXTI_Callback:
 661              	.LVL89:
 662              	.LFB72:
 312:Core/Src/main.c **** 
 313:Core/Src/main.c **** void HAL_GPIO_EXTI_Callback(uint16_t GPIO_Pin)
 314:Core/Src/main.c **** {
 663              		.loc 1 314 1 view -0
 664              		.cfi_startproc
 665              		@ args = 0, pretend = 0, frame = 0
 666              		@ frame_needed = 0, uses_anonymous_args = 0
 667              		@ link register save eliminated.
 315:Core/Src/main.c ****   if (GPIO_Pin == GPIO_PIN_0) {
 668              		.loc 1 315 3 view .LVU189
 669              		.loc 1 315 6 is_stmt 0 view .LVU190
 670 0000 0128     		cmp	r0, #1
 671 0002 00D0     		beq	.L28
 316:Core/Src/main.c ****     HUB75D_SetDispOffCtr(DISP_TIME_5MIN);
 317:Core/Src/main.c ****     //asm("nop");
 318:Core/Src/main.c ****   }
 319:Core/Src/main.c **** }
 672              		.loc 1 319 1 view .LVU191
 673 0004 7047     		bx	lr
 674              	.L28:
 316:Core/Src/main.c ****     HUB75D_SetDispOffCtr(DISP_TIME_5MIN);
 675              		.loc 1 316 5 is_stmt 1 view .LVU192
 676 0006 4FF49670 		mov	r0, #300
 677              	.LVL90:
 316:Core/Src/main.c ****     HUB75D_SetDispOffCtr(DISP_TIME_5MIN);
ARM GAS  C:\Users\WENHUA~1\AppData\Local\Temp\cc31D8p8.s 			page 21


 678              		.loc 1 316 5 is_stmt 0 view .LVU193
 679 000a FFF7FEBF 		b	HUB75D_SetDispOffCtr
 680              	.LVL91:
 681              		.cfi_endproc
 682              	.LFE72:
 684 000e 00BF     		.section	.text.Error_Handler,"ax",%progbits
 685              		.align	1
 686              		.p2align 2,,3
 687              		.global	Error_Handler
 688              		.syntax unified
 689              		.thumb
 690              		.thumb_func
 692              	Error_Handler:
 693              	.LFB73:
 320:Core/Src/main.c **** /* USER CODE END 4 */
 321:Core/Src/main.c **** 
 322:Core/Src/main.c **** /**
 323:Core/Src/main.c ****   * @brief  This function is executed in case of error occurrence.
 324:Core/Src/main.c ****   * @retval None
 325:Core/Src/main.c ****   */
 326:Core/Src/main.c **** void Error_Handler(void)
 327:Core/Src/main.c **** {
 694              		.loc 1 327 1 is_stmt 1 view -0
 695              		.cfi_startproc
 696              		@ args = 0, pretend = 0, frame = 0
 697              		@ frame_needed = 0, uses_anonymous_args = 0
 698              		@ link register save eliminated.
 328:Core/Src/main.c ****   /* USER CODE BEGIN Error_Handler_Debug */
 329:Core/Src/main.c ****   /* User can add his own implementation to report the HAL error return state */
 330:Core/Src/main.c **** 
 331:Core/Src/main.c ****   /* USER CODE END Error_Handler_Debug */
 332:Core/Src/main.c **** }
 699              		.loc 1 332 1 view .LVU195
 700 0000 7047     		bx	lr
 701              		.cfi_endproc
 702              	.LFE73:
 704 0002 00BF     		.section	.text.assert_failed,"ax",%progbits
 705              		.align	1
 706              		.p2align 2,,3
 707              		.global	assert_failed
 708              		.syntax unified
 709              		.thumb
 710              		.thumb_func
 712              	assert_failed:
 713              	.LVL92:
 714              	.LFB74:
 333:Core/Src/main.c **** 
 334:Core/Src/main.c **** #ifdef  USE_FULL_ASSERT
 335:Core/Src/main.c **** /**
 336:Core/Src/main.c ****   * @brief  Reports the name of the source file and the source line number
 337:Core/Src/main.c ****   *         where the assert_param error has occurred.
 338:Core/Src/main.c ****   * @param  file: pointer to the source file name
 339:Core/Src/main.c ****   * @param  line: assert_param error line source number
 340:Core/Src/main.c ****   * @retval None
 341:Core/Src/main.c ****   */
 342:Core/Src/main.c **** void assert_failed(uint8_t *file, uint32_t line)
 343:Core/Src/main.c **** {
ARM GAS  C:\Users\WENHUA~1\AppData\Local\Temp\cc31D8p8.s 			page 22


 715              		.loc 1 343 1 view -0
 716              		.cfi_startproc
 717              		@ args = 0, pretend = 0, frame = 0
 718              		@ frame_needed = 0, uses_anonymous_args = 0
 719              		@ link register save eliminated.
 344:Core/Src/main.c ****   /* USER CODE BEGIN 6 */
 345:Core/Src/main.c ****   /* User can add his own implementation to report the file name and line number,
 346:Core/Src/main.c ****      tex: printf("Wrong parameters value: file %s on line %d\r\n", file, line) */
 347:Core/Src/main.c ****   /* USER CODE END 6 */
 348:Core/Src/main.c **** }
 720              		.loc 1 348 1 view .LVU197
 721 0000 7047     		bx	lr
 722              		.cfi_endproc
 723              	.LFE74:
 725 0002 00BF     		.text
 726              	.Letext0:
 727              		.file 2 "d:\\program files (x86)\\gnu arm embedded toolchain\\10 2021.10\\arm-none-eabi\\include\\
 728              		.file 3 "d:\\program files (x86)\\gnu arm embedded toolchain\\10 2021.10\\arm-none-eabi\\include\\
 729              		.file 4 "Drivers/CMSIS/Device/ST/STM32F1xx/Include/stm32f103xb.h"
 730              		.file 5 "Drivers/STM32F1xx_HAL_Driver/Inc/stm32f1xx_hal_def.h"
 731              		.file 6 "Drivers/STM32F1xx_HAL_Driver/Inc/stm32f1xx_hal_rcc.h"
 732              		.file 7 "Drivers/STM32F1xx_HAL_Driver/Inc/stm32f1xx_hal_rcc_ex.h"
 733              		.file 8 "Drivers/STM32F1xx_HAL_Driver/Inc/stm32f1xx_hal_gpio.h"
 734              		.file 9 "Drivers/STM32F1xx_HAL_Driver/Inc/stm32f1xx_hal_dma.h"
 735              		.file 10 "Drivers/STM32F1xx_HAL_Driver/Inc/stm32f1xx_hal_rtc.h"
 736              		.file 11 "Drivers/STM32F1xx_HAL_Driver/Inc/stm32f1xx_hal_tim.h"
 737              		.file 12 "Drivers/STM32F1xx_HAL_Driver/Inc/stm32f1xx_hal_uart.h"
 738              		.file 13 "Core/Inc/rtc.h"
 739              		.file 14 "Core/Inc/tim.h"
 740              		.file 15 "Core/Inc/usart.h"
 741              		.file 16 "user/inc/hub75d.h"
 742              		.file 17 "user/inc/emw3060_at.h"
 743              		.file 18 "d:\\program files (x86)\\gnu arm embedded toolchain\\10 2021.10\\arm-none-eabi\\include\
 744              		.file 19 "Drivers/STM32F1xx_HAL_Driver/Inc/stm32f1xx_hal_pwr.h"
 745              		.file 20 "Drivers/STM32F1xx_HAL_Driver/Inc/stm32f1xx_hal.h"
 746              		.file 21 "Core/Inc/gpio.h"
 747              		.file 22 "Core/Inc/dma.h"
 748              		.file 23 "user/inc/htu21d.h"
 749              		.file 24 "Drivers/STM32F1xx_HAL_Driver/Inc/stm32f1xx_hal_rtc_ex.h"
 750              		.file 25 "user/inc/time.h"
 751              		.file 26 "Drivers/STM32F1xx_HAL_Driver/Inc/stm32f1xx_hal_cortex.h"
 752              		.file 27 "user/inc/lunar_calendar.h"
ARM GAS  C:\Users\WENHUA~1\AppData\Local\Temp\cc31D8p8.s 			page 23

