ARM GAS  C:\Users\WENHUA~1\AppData\Local\Temp\ccQSIM2h.s 			page 1


   1              		.cpu cortex-m3
   2              		.arch armv7-m
   3              		.fpu softvfp
   4              		.eabi_attribute 20, 1
   5              		.eabi_attribute 21, 1
   6              		.eabi_attribute 23, 3
   7              		.eabi_attribute 24, 1
   8              		.eabi_attribute 25, 1
   9              		.eabi_attribute 26, 1
  10              		.eabi_attribute 30, 2
  11              		.eabi_attribute 34, 1
  12              		.eabi_attribute 18, 4
  13              		.file	"stm32f1xx_hal_dma.c"
  14              		.text
  15              	.Ltext0:
  16              		.cfi_sections	.debug_frame
  17              		.section	.rodata.HAL_DMA_Init.str1.4,"aMS",%progbits,1
  18              		.align	2
  19              	.LC0:
  20 0000 44726976 		.ascii	"Drivers/STM32F1xx_HAL_Driver/Src/stm32f1xx_hal_dma."
  20      6572732F 
  20      53544D33 
  20      32463178 
  20      785F4841 
  21 0033 6300     		.ascii	"c\000"
  22              		.section	.text.HAL_DMA_Init,"ax",%progbits
  23              		.align	1
  24              		.p2align 2,,3
  25              		.global	HAL_DMA_Init
  26              		.syntax unified
  27              		.thumb
  28              		.thumb_func
  30              	HAL_DMA_Init:
  31              	.LVL0:
  32              	.LFB65:
  33              		.file 1 "Drivers/STM32F1xx_HAL_Driver/Src/stm32f1xx_hal_dma.c"
   1:Drivers/STM32F1xx_HAL_Driver/Src/stm32f1xx_hal_dma.c **** /**
   2:Drivers/STM32F1xx_HAL_Driver/Src/stm32f1xx_hal_dma.c ****   ******************************************************************************
   3:Drivers/STM32F1xx_HAL_Driver/Src/stm32f1xx_hal_dma.c ****   * @file    stm32f1xx_hal_dma.c
   4:Drivers/STM32F1xx_HAL_Driver/Src/stm32f1xx_hal_dma.c ****   * @author  MCD Application Team
   5:Drivers/STM32F1xx_HAL_Driver/Src/stm32f1xx_hal_dma.c ****   * @brief   DMA HAL module driver.
   6:Drivers/STM32F1xx_HAL_Driver/Src/stm32f1xx_hal_dma.c ****   *         This file provides firmware functions to manage the following
   7:Drivers/STM32F1xx_HAL_Driver/Src/stm32f1xx_hal_dma.c ****   *         functionalities of the Direct Memory Access (DMA) peripheral:
   8:Drivers/STM32F1xx_HAL_Driver/Src/stm32f1xx_hal_dma.c ****   *           + Initialization and de-initialization functions
   9:Drivers/STM32F1xx_HAL_Driver/Src/stm32f1xx_hal_dma.c ****   *           + IO operation functions
  10:Drivers/STM32F1xx_HAL_Driver/Src/stm32f1xx_hal_dma.c ****   *           + Peripheral State and errors functions
  11:Drivers/STM32F1xx_HAL_Driver/Src/stm32f1xx_hal_dma.c ****   @verbatim
  12:Drivers/STM32F1xx_HAL_Driver/Src/stm32f1xx_hal_dma.c ****   ==============================================================================
  13:Drivers/STM32F1xx_HAL_Driver/Src/stm32f1xx_hal_dma.c ****                         ##### How to use this driver #####
  14:Drivers/STM32F1xx_HAL_Driver/Src/stm32f1xx_hal_dma.c ****   ==============================================================================
  15:Drivers/STM32F1xx_HAL_Driver/Src/stm32f1xx_hal_dma.c ****   [..]
  16:Drivers/STM32F1xx_HAL_Driver/Src/stm32f1xx_hal_dma.c ****    (#) Enable and configure the peripheral to be connected to the DMA Channel
  17:Drivers/STM32F1xx_HAL_Driver/Src/stm32f1xx_hal_dma.c ****        (except for internal SRAM / FLASH memories: no initialization is 
  18:Drivers/STM32F1xx_HAL_Driver/Src/stm32f1xx_hal_dma.c ****        necessary). Please refer to the Reference manual for connection between peripherals
  19:Drivers/STM32F1xx_HAL_Driver/Src/stm32f1xx_hal_dma.c ****        and DMA requests.
  20:Drivers/STM32F1xx_HAL_Driver/Src/stm32f1xx_hal_dma.c **** 
  21:Drivers/STM32F1xx_HAL_Driver/Src/stm32f1xx_hal_dma.c ****    (#) For a given Channel, program the required configuration through the following parameters:
ARM GAS  C:\Users\WENHUA~1\AppData\Local\Temp\ccQSIM2h.s 			page 2


  22:Drivers/STM32F1xx_HAL_Driver/Src/stm32f1xx_hal_dma.c ****        Channel request, Transfer Direction, Source and Destination data formats,
  23:Drivers/STM32F1xx_HAL_Driver/Src/stm32f1xx_hal_dma.c ****        Circular or Normal mode, Channel Priority level, Source and Destination Increment mode
  24:Drivers/STM32F1xx_HAL_Driver/Src/stm32f1xx_hal_dma.c ****        using HAL_DMA_Init() function.
  25:Drivers/STM32F1xx_HAL_Driver/Src/stm32f1xx_hal_dma.c **** 
  26:Drivers/STM32F1xx_HAL_Driver/Src/stm32f1xx_hal_dma.c ****    (#) Use HAL_DMA_GetState() function to return the DMA state and HAL_DMA_GetError() in case of er
  27:Drivers/STM32F1xx_HAL_Driver/Src/stm32f1xx_hal_dma.c ****        detection.
  28:Drivers/STM32F1xx_HAL_Driver/Src/stm32f1xx_hal_dma.c ****                     
  29:Drivers/STM32F1xx_HAL_Driver/Src/stm32f1xx_hal_dma.c ****    (#) Use HAL_DMA_Abort() function to abort the current transfer
  30:Drivers/STM32F1xx_HAL_Driver/Src/stm32f1xx_hal_dma.c ****                    
  31:Drivers/STM32F1xx_HAL_Driver/Src/stm32f1xx_hal_dma.c ****      -@-   In Memory-to-Memory transfer mode, Circular mode is not allowed.
  32:Drivers/STM32F1xx_HAL_Driver/Src/stm32f1xx_hal_dma.c ****      *** Polling mode IO operation ***
  33:Drivers/STM32F1xx_HAL_Driver/Src/stm32f1xx_hal_dma.c ****      =================================
  34:Drivers/STM32F1xx_HAL_Driver/Src/stm32f1xx_hal_dma.c ****     [..]
  35:Drivers/STM32F1xx_HAL_Driver/Src/stm32f1xx_hal_dma.c ****           (+) Use HAL_DMA_Start() to start DMA transfer after the configuration of Source
  36:Drivers/STM32F1xx_HAL_Driver/Src/stm32f1xx_hal_dma.c ****               address and destination address and the Length of data to be transferred
  37:Drivers/STM32F1xx_HAL_Driver/Src/stm32f1xx_hal_dma.c ****           (+) Use HAL_DMA_PollForTransfer() to poll for the end of current transfer, in this
  38:Drivers/STM32F1xx_HAL_Driver/Src/stm32f1xx_hal_dma.c ****               case a fixed Timeout can be configured by User depending from his application.
  39:Drivers/STM32F1xx_HAL_Driver/Src/stm32f1xx_hal_dma.c **** 
  40:Drivers/STM32F1xx_HAL_Driver/Src/stm32f1xx_hal_dma.c ****      *** Interrupt mode IO operation ***
  41:Drivers/STM32F1xx_HAL_Driver/Src/stm32f1xx_hal_dma.c ****      ===================================
  42:Drivers/STM32F1xx_HAL_Driver/Src/stm32f1xx_hal_dma.c ****     [..]
  43:Drivers/STM32F1xx_HAL_Driver/Src/stm32f1xx_hal_dma.c ****           (+) Configure the DMA interrupt priority using HAL_NVIC_SetPriority()
  44:Drivers/STM32F1xx_HAL_Driver/Src/stm32f1xx_hal_dma.c ****           (+) Enable the DMA IRQ handler using HAL_NVIC_EnableIRQ()
  45:Drivers/STM32F1xx_HAL_Driver/Src/stm32f1xx_hal_dma.c ****           (+) Use HAL_DMA_Start_IT() to start DMA transfer after the configuration of
  46:Drivers/STM32F1xx_HAL_Driver/Src/stm32f1xx_hal_dma.c ****               Source address and destination address and the Length of data to be transferred.
  47:Drivers/STM32F1xx_HAL_Driver/Src/stm32f1xx_hal_dma.c ****               In this case the DMA interrupt is configured
  48:Drivers/STM32F1xx_HAL_Driver/Src/stm32f1xx_hal_dma.c ****           (+) Use HAL_DMA_IRQHandler() called under DMA_IRQHandler() Interrupt subroutine
  49:Drivers/STM32F1xx_HAL_Driver/Src/stm32f1xx_hal_dma.c ****           (+) At the end of data transfer HAL_DMA_IRQHandler() function is executed and user can
  50:Drivers/STM32F1xx_HAL_Driver/Src/stm32f1xx_hal_dma.c ****               add his own function by customization of function pointer XferCpltCallback and
  51:Drivers/STM32F1xx_HAL_Driver/Src/stm32f1xx_hal_dma.c ****               XferErrorCallback (i.e. a member of DMA handle structure).
  52:Drivers/STM32F1xx_HAL_Driver/Src/stm32f1xx_hal_dma.c **** 
  53:Drivers/STM32F1xx_HAL_Driver/Src/stm32f1xx_hal_dma.c ****      *** DMA HAL driver macros list ***
  54:Drivers/STM32F1xx_HAL_Driver/Src/stm32f1xx_hal_dma.c ****      ============================================= 
  55:Drivers/STM32F1xx_HAL_Driver/Src/stm32f1xx_hal_dma.c ****       [..]
  56:Drivers/STM32F1xx_HAL_Driver/Src/stm32f1xx_hal_dma.c ****        Below the list of most used macros in DMA HAL driver.
  57:Drivers/STM32F1xx_HAL_Driver/Src/stm32f1xx_hal_dma.c **** 
  58:Drivers/STM32F1xx_HAL_Driver/Src/stm32f1xx_hal_dma.c ****        (+) __HAL_DMA_ENABLE: Enable the specified DMA Channel.
  59:Drivers/STM32F1xx_HAL_Driver/Src/stm32f1xx_hal_dma.c ****        (+) __HAL_DMA_DISABLE: Disable the specified DMA Channel.
  60:Drivers/STM32F1xx_HAL_Driver/Src/stm32f1xx_hal_dma.c ****        (+) __HAL_DMA_GET_FLAG: Get the DMA Channel pending flags.
  61:Drivers/STM32F1xx_HAL_Driver/Src/stm32f1xx_hal_dma.c ****        (+) __HAL_DMA_CLEAR_FLAG: Clear the DMA Channel pending flags.
  62:Drivers/STM32F1xx_HAL_Driver/Src/stm32f1xx_hal_dma.c ****        (+) __HAL_DMA_ENABLE_IT: Enable the specified DMA Channel interrupts.
  63:Drivers/STM32F1xx_HAL_Driver/Src/stm32f1xx_hal_dma.c ****        (+) __HAL_DMA_DISABLE_IT: Disable the specified DMA Channel interrupts.
  64:Drivers/STM32F1xx_HAL_Driver/Src/stm32f1xx_hal_dma.c ****        (+) __HAL_DMA_GET_IT_SOURCE: Check whether the specified DMA Channel interrupt has occurred 
  65:Drivers/STM32F1xx_HAL_Driver/Src/stm32f1xx_hal_dma.c **** 
  66:Drivers/STM32F1xx_HAL_Driver/Src/stm32f1xx_hal_dma.c ****      [..] 
  67:Drivers/STM32F1xx_HAL_Driver/Src/stm32f1xx_hal_dma.c ****       (@) You can refer to the DMA HAL driver header file for more useful macros  
  68:Drivers/STM32F1xx_HAL_Driver/Src/stm32f1xx_hal_dma.c **** 
  69:Drivers/STM32F1xx_HAL_Driver/Src/stm32f1xx_hal_dma.c ****   @endverbatim
  70:Drivers/STM32F1xx_HAL_Driver/Src/stm32f1xx_hal_dma.c ****   ******************************************************************************
  71:Drivers/STM32F1xx_HAL_Driver/Src/stm32f1xx_hal_dma.c ****   * @attention
  72:Drivers/STM32F1xx_HAL_Driver/Src/stm32f1xx_hal_dma.c ****   *
  73:Drivers/STM32F1xx_HAL_Driver/Src/stm32f1xx_hal_dma.c ****   * <h2><center>&copy; Copyright (c) 2016 STMicroelectronics.
  74:Drivers/STM32F1xx_HAL_Driver/Src/stm32f1xx_hal_dma.c ****   * All rights reserved.</center></h2>
  75:Drivers/STM32F1xx_HAL_Driver/Src/stm32f1xx_hal_dma.c ****   *
  76:Drivers/STM32F1xx_HAL_Driver/Src/stm32f1xx_hal_dma.c ****   * This software component is licensed by ST under BSD 3-Clause license,
  77:Drivers/STM32F1xx_HAL_Driver/Src/stm32f1xx_hal_dma.c ****   * the "License"; You may not use this file except in compliance with the
  78:Drivers/STM32F1xx_HAL_Driver/Src/stm32f1xx_hal_dma.c ****   * License. You may obtain a copy of the License at:
ARM GAS  C:\Users\WENHUA~1\AppData\Local\Temp\ccQSIM2h.s 			page 3


  79:Drivers/STM32F1xx_HAL_Driver/Src/stm32f1xx_hal_dma.c ****   *                        opensource.org/licenses/BSD-3-Clause
  80:Drivers/STM32F1xx_HAL_Driver/Src/stm32f1xx_hal_dma.c ****   *
  81:Drivers/STM32F1xx_HAL_Driver/Src/stm32f1xx_hal_dma.c ****   ******************************************************************************
  82:Drivers/STM32F1xx_HAL_Driver/Src/stm32f1xx_hal_dma.c ****   */
  83:Drivers/STM32F1xx_HAL_Driver/Src/stm32f1xx_hal_dma.c **** 
  84:Drivers/STM32F1xx_HAL_Driver/Src/stm32f1xx_hal_dma.c **** /* Includes ------------------------------------------------------------------*/
  85:Drivers/STM32F1xx_HAL_Driver/Src/stm32f1xx_hal_dma.c **** #include "stm32f1xx_hal.h"
  86:Drivers/STM32F1xx_HAL_Driver/Src/stm32f1xx_hal_dma.c **** 
  87:Drivers/STM32F1xx_HAL_Driver/Src/stm32f1xx_hal_dma.c **** /** @addtogroup STM32F1xx_HAL_Driver
  88:Drivers/STM32F1xx_HAL_Driver/Src/stm32f1xx_hal_dma.c ****   * @{
  89:Drivers/STM32F1xx_HAL_Driver/Src/stm32f1xx_hal_dma.c ****   */
  90:Drivers/STM32F1xx_HAL_Driver/Src/stm32f1xx_hal_dma.c **** 
  91:Drivers/STM32F1xx_HAL_Driver/Src/stm32f1xx_hal_dma.c **** /** @defgroup DMA DMA
  92:Drivers/STM32F1xx_HAL_Driver/Src/stm32f1xx_hal_dma.c ****   * @brief DMA HAL module driver
  93:Drivers/STM32F1xx_HAL_Driver/Src/stm32f1xx_hal_dma.c ****   * @{
  94:Drivers/STM32F1xx_HAL_Driver/Src/stm32f1xx_hal_dma.c ****   */
  95:Drivers/STM32F1xx_HAL_Driver/Src/stm32f1xx_hal_dma.c **** 
  96:Drivers/STM32F1xx_HAL_Driver/Src/stm32f1xx_hal_dma.c **** #ifdef HAL_DMA_MODULE_ENABLED
  97:Drivers/STM32F1xx_HAL_Driver/Src/stm32f1xx_hal_dma.c **** 
  98:Drivers/STM32F1xx_HAL_Driver/Src/stm32f1xx_hal_dma.c **** /* Private typedef -----------------------------------------------------------*/
  99:Drivers/STM32F1xx_HAL_Driver/Src/stm32f1xx_hal_dma.c **** /* Private define ------------------------------------------------------------*/
 100:Drivers/STM32F1xx_HAL_Driver/Src/stm32f1xx_hal_dma.c **** /* Private macro -------------------------------------------------------------*/
 101:Drivers/STM32F1xx_HAL_Driver/Src/stm32f1xx_hal_dma.c **** /* Private variables ---------------------------------------------------------*/
 102:Drivers/STM32F1xx_HAL_Driver/Src/stm32f1xx_hal_dma.c **** /* Private function prototypes -----------------------------------------------*/
 103:Drivers/STM32F1xx_HAL_Driver/Src/stm32f1xx_hal_dma.c **** /** @defgroup DMA_Private_Functions DMA Private Functions
 104:Drivers/STM32F1xx_HAL_Driver/Src/stm32f1xx_hal_dma.c ****   * @{
 105:Drivers/STM32F1xx_HAL_Driver/Src/stm32f1xx_hal_dma.c ****   */
 106:Drivers/STM32F1xx_HAL_Driver/Src/stm32f1xx_hal_dma.c **** static void DMA_SetConfig(DMA_HandleTypeDef *hdma, uint32_t SrcAddress, uint32_t DstAddress, uint32
 107:Drivers/STM32F1xx_HAL_Driver/Src/stm32f1xx_hal_dma.c **** /**
 108:Drivers/STM32F1xx_HAL_Driver/Src/stm32f1xx_hal_dma.c ****   * @}
 109:Drivers/STM32F1xx_HAL_Driver/Src/stm32f1xx_hal_dma.c ****   */
 110:Drivers/STM32F1xx_HAL_Driver/Src/stm32f1xx_hal_dma.c **** 
 111:Drivers/STM32F1xx_HAL_Driver/Src/stm32f1xx_hal_dma.c **** /* Exported functions ---------------------------------------------------------*/
 112:Drivers/STM32F1xx_HAL_Driver/Src/stm32f1xx_hal_dma.c **** 
 113:Drivers/STM32F1xx_HAL_Driver/Src/stm32f1xx_hal_dma.c **** /** @defgroup DMA_Exported_Functions DMA Exported Functions
 114:Drivers/STM32F1xx_HAL_Driver/Src/stm32f1xx_hal_dma.c ****   * @{
 115:Drivers/STM32F1xx_HAL_Driver/Src/stm32f1xx_hal_dma.c ****   */
 116:Drivers/STM32F1xx_HAL_Driver/Src/stm32f1xx_hal_dma.c **** 
 117:Drivers/STM32F1xx_HAL_Driver/Src/stm32f1xx_hal_dma.c **** /** @defgroup DMA_Exported_Functions_Group1 Initialization and de-initialization functions
 118:Drivers/STM32F1xx_HAL_Driver/Src/stm32f1xx_hal_dma.c ****   *  @brief   Initialization and de-initialization functions 
 119:Drivers/STM32F1xx_HAL_Driver/Src/stm32f1xx_hal_dma.c ****   *
 120:Drivers/STM32F1xx_HAL_Driver/Src/stm32f1xx_hal_dma.c **** @verbatim
 121:Drivers/STM32F1xx_HAL_Driver/Src/stm32f1xx_hal_dma.c ****  ===============================================================================
 122:Drivers/STM32F1xx_HAL_Driver/Src/stm32f1xx_hal_dma.c ****              ##### Initialization and de-initialization functions  #####
 123:Drivers/STM32F1xx_HAL_Driver/Src/stm32f1xx_hal_dma.c ****  ===============================================================================
 124:Drivers/STM32F1xx_HAL_Driver/Src/stm32f1xx_hal_dma.c ****     [..]
 125:Drivers/STM32F1xx_HAL_Driver/Src/stm32f1xx_hal_dma.c ****     This section provides functions allowing to initialize the DMA Channel source
 126:Drivers/STM32F1xx_HAL_Driver/Src/stm32f1xx_hal_dma.c ****     and destination addresses, incrementation and data sizes, transfer direction, 
 127:Drivers/STM32F1xx_HAL_Driver/Src/stm32f1xx_hal_dma.c ****     circular/normal mode selection, memory-to-memory mode selection and Channel priority value.
 128:Drivers/STM32F1xx_HAL_Driver/Src/stm32f1xx_hal_dma.c ****     [..]
 129:Drivers/STM32F1xx_HAL_Driver/Src/stm32f1xx_hal_dma.c ****     The HAL_DMA_Init() function follows the DMA configuration procedures as described in
 130:Drivers/STM32F1xx_HAL_Driver/Src/stm32f1xx_hal_dma.c ****     reference manual.  
 131:Drivers/STM32F1xx_HAL_Driver/Src/stm32f1xx_hal_dma.c **** 
 132:Drivers/STM32F1xx_HAL_Driver/Src/stm32f1xx_hal_dma.c **** @endverbatim
 133:Drivers/STM32F1xx_HAL_Driver/Src/stm32f1xx_hal_dma.c ****   * @{
 134:Drivers/STM32F1xx_HAL_Driver/Src/stm32f1xx_hal_dma.c ****   */
 135:Drivers/STM32F1xx_HAL_Driver/Src/stm32f1xx_hal_dma.c **** 
ARM GAS  C:\Users\WENHUA~1\AppData\Local\Temp\ccQSIM2h.s 			page 4


 136:Drivers/STM32F1xx_HAL_Driver/Src/stm32f1xx_hal_dma.c **** /**
 137:Drivers/STM32F1xx_HAL_Driver/Src/stm32f1xx_hal_dma.c ****   * @brief  Initialize the DMA according to the specified
 138:Drivers/STM32F1xx_HAL_Driver/Src/stm32f1xx_hal_dma.c ****   *         parameters in the DMA_InitTypeDef and initialize the associated handle.
 139:Drivers/STM32F1xx_HAL_Driver/Src/stm32f1xx_hal_dma.c ****   * @param  hdma: Pointer to a DMA_HandleTypeDef structure that contains
 140:Drivers/STM32F1xx_HAL_Driver/Src/stm32f1xx_hal_dma.c ****   *               the configuration information for the specified DMA Channel.
 141:Drivers/STM32F1xx_HAL_Driver/Src/stm32f1xx_hal_dma.c ****   * @retval HAL status
 142:Drivers/STM32F1xx_HAL_Driver/Src/stm32f1xx_hal_dma.c ****   */
 143:Drivers/STM32F1xx_HAL_Driver/Src/stm32f1xx_hal_dma.c **** HAL_StatusTypeDef HAL_DMA_Init(DMA_HandleTypeDef *hdma)
 144:Drivers/STM32F1xx_HAL_Driver/Src/stm32f1xx_hal_dma.c **** {
  34              		.loc 1 144 1 view -0
  35              		.cfi_startproc
  36              		@ args = 0, pretend = 0, frame = 0
  37              		@ frame_needed = 0, uses_anonymous_args = 0
 145:Drivers/STM32F1xx_HAL_Driver/Src/stm32f1xx_hal_dma.c ****   uint32_t tmp = 0U;
  38              		.loc 1 145 3 view .LVU1
 146:Drivers/STM32F1xx_HAL_Driver/Src/stm32f1xx_hal_dma.c **** 
 147:Drivers/STM32F1xx_HAL_Driver/Src/stm32f1xx_hal_dma.c ****   /* Check the DMA handle allocation */
 148:Drivers/STM32F1xx_HAL_Driver/Src/stm32f1xx_hal_dma.c ****   if(hdma == NULL)
  39              		.loc 1 148 3 view .LVU2
  40              		.loc 1 148 5 is_stmt 0 view .LVU3
  41 0000 0028     		cmp	r0, #0
  42 0002 00F09880 		beq	.L11
 149:Drivers/STM32F1xx_HAL_Driver/Src/stm32f1xx_hal_dma.c ****   {
 150:Drivers/STM32F1xx_HAL_Driver/Src/stm32f1xx_hal_dma.c ****     return HAL_ERROR;
 151:Drivers/STM32F1xx_HAL_Driver/Src/stm32f1xx_hal_dma.c ****   }
 152:Drivers/STM32F1xx_HAL_Driver/Src/stm32f1xx_hal_dma.c **** 
 153:Drivers/STM32F1xx_HAL_Driver/Src/stm32f1xx_hal_dma.c ****   /* Check the parameters */
 154:Drivers/STM32F1xx_HAL_Driver/Src/stm32f1xx_hal_dma.c ****   assert_param(IS_DMA_ALL_INSTANCE(hdma->Instance));
  43              		.loc 1 154 3 view .LVU4
  44 0006 0368     		ldr	r3, [r0]
  45 0008 4C4A     		ldr	r2, .L54
 144:Drivers/STM32F1xx_HAL_Driver/Src/stm32f1xx_hal_dma.c ****   uint32_t tmp = 0U;
  46              		.loc 1 144 1 view .LVU5
  47 000a 70B5     		push	{r4, r5, r6, lr}
  48              	.LCFI0:
  49              		.cfi_def_cfa_offset 16
  50              		.cfi_offset 4, -16
  51              		.cfi_offset 5, -12
  52              		.cfi_offset 6, -8
  53              		.cfi_offset 14, -4
  54              		.loc 1 154 3 view .LVU6
  55 000c 9342     		cmp	r3, r2
  56 000e 0446     		mov	r4, r0
  57              		.loc 1 154 3 is_stmt 1 view .LVU7
  58 0010 15D0     		beq	.L3
  59              		.loc 1 154 3 is_stmt 0 discriminator 1 view .LVU8
  60 0012 1432     		adds	r2, r2, #20
  61 0014 9342     		cmp	r3, r2
  62 0016 12D0     		beq	.L3
  63              		.loc 1 154 3 discriminator 2 view .LVU9
  64 0018 1432     		adds	r2, r2, #20
  65 001a 9342     		cmp	r3, r2
  66 001c 0FD0     		beq	.L3
  67              		.loc 1 154 3 discriminator 3 view .LVU10
  68 001e 1432     		adds	r2, r2, #20
  69 0020 9342     		cmp	r3, r2
  70 0022 0CD0     		beq	.L3
ARM GAS  C:\Users\WENHUA~1\AppData\Local\Temp\ccQSIM2h.s 			page 5


  71              		.loc 1 154 3 discriminator 4 view .LVU11
  72 0024 1432     		adds	r2, r2, #20
  73 0026 9342     		cmp	r3, r2
  74 0028 09D0     		beq	.L3
  75              		.loc 1 154 3 discriminator 5 view .LVU12
  76 002a 1432     		adds	r2, r2, #20
  77 002c 9342     		cmp	r3, r2
  78 002e 06D0     		beq	.L3
  79              		.loc 1 154 3 discriminator 6 view .LVU13
  80 0030 1432     		adds	r2, r2, #20
  81 0032 9342     		cmp	r3, r2
  82 0034 03D0     		beq	.L3
  83              		.loc 1 154 3 discriminator 7 view .LVU14
  84 0036 9A21     		movs	r1, #154
  85 0038 4148     		ldr	r0, .L54+4
  86              	.LVL1:
  87              		.loc 1 154 3 discriminator 7 view .LVU15
  88 003a FFF7FEFF 		bl	assert_failed
  89              	.LVL2:
  90              	.L3:
 155:Drivers/STM32F1xx_HAL_Driver/Src/stm32f1xx_hal_dma.c ****   assert_param(IS_DMA_DIRECTION(hdma->Init.Direction));
  91              		.loc 1 155 3 is_stmt 1 view .LVU16
  92 003e 6368     		ldr	r3, [r4, #4]
  93 0040 33F01002 		bics	r2, r3, #16
  94 0044 4DD1     		bne	.L47
  95              	.L4:
 156:Drivers/STM32F1xx_HAL_Driver/Src/stm32f1xx_hal_dma.c ****   assert_param(IS_DMA_PERIPHERAL_INC_STATE(hdma->Init.PeriphInc));
  96              		.loc 1 156 3 view .LVU17
  97 0046 A368     		ldr	r3, [r4, #8]
  98 0048 33F04003 		bics	r3, r3, #64
  99 004c 54D1     		bne	.L48
 100              	.L5:
 157:Drivers/STM32F1xx_HAL_Driver/Src/stm32f1xx_hal_dma.c ****   assert_param(IS_DMA_MEMORY_INC_STATE(hdma->Init.MemInc));
 101              		.loc 1 157 3 view .LVU18
 102 004e E368     		ldr	r3, [r4, #12]
 103 0050 33F08003 		bics	r3, r3, #128
 104 0054 58D1     		bne	.L49
 105              	.L6:
 158:Drivers/STM32F1xx_HAL_Driver/Src/stm32f1xx_hal_dma.c ****   assert_param(IS_DMA_PERIPHERAL_DATA_SIZE(hdma->Init.PeriphDataAlignment));
 106              		.loc 1 158 3 view .LVU19
 107 0056 2369     		ldr	r3, [r4, #16]
 108 0058 33F48072 		bics	r2, r3, #256
 109 005c 02D0     		beq	.L7
 110              		.loc 1 158 3 is_stmt 0 discriminator 2 view .LVU20
 111 005e B3F5007F 		cmp	r3, #512
 112 0062 56D1     		bne	.L50
 113              	.L7:
 159:Drivers/STM32F1xx_HAL_Driver/Src/stm32f1xx_hal_dma.c ****   assert_param(IS_DMA_MEMORY_DATA_SIZE(hdma->Init.MemDataAlignment));
 114              		.loc 1 159 3 is_stmt 1 view .LVU21
 115 0064 6369     		ldr	r3, [r4, #20]
 116 0066 33F48062 		bics	r2, r3, #1024
 117 006a 02D0     		beq	.L8
 118              	.L52:
 119              		.loc 1 159 3 is_stmt 0 discriminator 2 view .LVU22
 120 006c B3F5006F 		cmp	r3, #2048
 121 0070 58D1     		bne	.L51
 122              	.L8:
ARM GAS  C:\Users\WENHUA~1\AppData\Local\Temp\ccQSIM2h.s 			page 6


 160:Drivers/STM32F1xx_HAL_Driver/Src/stm32f1xx_hal_dma.c ****   assert_param(IS_DMA_MODE(hdma->Init.Mode));
 123              		.loc 1 160 3 is_stmt 1 view .LVU23
 124 0072 A369     		ldr	r3, [r4, #24]
 125 0074 33F02003 		bics	r3, r3, #32
 126 0078 03D0     		beq	.L9
 127              	.L53:
 128              		.loc 1 160 3 is_stmt 0 discriminator 2 view .LVU24
 129 007a A021     		movs	r1, #160
 130 007c 3048     		ldr	r0, .L54+4
 131 007e FFF7FEFF 		bl	assert_failed
 132              	.LVL3:
 133              	.L9:
 161:Drivers/STM32F1xx_HAL_Driver/Src/stm32f1xx_hal_dma.c ****   assert_param(IS_DMA_PRIORITY(hdma->Init.Priority));
 134              		.loc 1 161 3 is_stmt 1 view .LVU25
 135 0082 E069     		ldr	r0, [r4, #28]
 136 0084 30F44053 		bics	r3, r0, #12288
 137 0088 04D0     		beq	.L10
 138              		.loc 1 161 3 is_stmt 0 discriminator 4 view .LVU26
 139 008a 2D48     		ldr	r0, .L54+4
 140 008c A121     		movs	r1, #161
 141 008e FFF7FEFF 		bl	assert_failed
 142              	.LVL4:
 162:Drivers/STM32F1xx_HAL_Driver/Src/stm32f1xx_hal_dma.c **** 
 163:Drivers/STM32F1xx_HAL_Driver/Src/stm32f1xx_hal_dma.c **** #if defined (DMA2)
 164:Drivers/STM32F1xx_HAL_Driver/Src/stm32f1xx_hal_dma.c ****   /* calculation of the channel index */
 165:Drivers/STM32F1xx_HAL_Driver/Src/stm32f1xx_hal_dma.c ****   if ((uint32_t)(hdma->Instance) < (uint32_t)(DMA2_Channel1))
 166:Drivers/STM32F1xx_HAL_Driver/Src/stm32f1xx_hal_dma.c ****   {
 167:Drivers/STM32F1xx_HAL_Driver/Src/stm32f1xx_hal_dma.c ****     /* DMA1 */
 168:Drivers/STM32F1xx_HAL_Driver/Src/stm32f1xx_hal_dma.c ****     hdma->ChannelIndex = (((uint32_t)hdma->Instance - (uint32_t)DMA1_Channel1) / ((uint32_t)DMA1_Ch
 169:Drivers/STM32F1xx_HAL_Driver/Src/stm32f1xx_hal_dma.c ****     hdma->DmaBaseAddress = DMA1;
 170:Drivers/STM32F1xx_HAL_Driver/Src/stm32f1xx_hal_dma.c ****   }
 171:Drivers/STM32F1xx_HAL_Driver/Src/stm32f1xx_hal_dma.c ****   else 
 172:Drivers/STM32F1xx_HAL_Driver/Src/stm32f1xx_hal_dma.c ****   {
 173:Drivers/STM32F1xx_HAL_Driver/Src/stm32f1xx_hal_dma.c ****     /* DMA2 */
 174:Drivers/STM32F1xx_HAL_Driver/Src/stm32f1xx_hal_dma.c ****     hdma->ChannelIndex = (((uint32_t)hdma->Instance - (uint32_t)DMA2_Channel1) / ((uint32_t)DMA2_Ch
 175:Drivers/STM32F1xx_HAL_Driver/Src/stm32f1xx_hal_dma.c ****     hdma->DmaBaseAddress = DMA2;
 176:Drivers/STM32F1xx_HAL_Driver/Src/stm32f1xx_hal_dma.c ****   }
 177:Drivers/STM32F1xx_HAL_Driver/Src/stm32f1xx_hal_dma.c **** #else
 178:Drivers/STM32F1xx_HAL_Driver/Src/stm32f1xx_hal_dma.c ****   /* DMA1 */
 179:Drivers/STM32F1xx_HAL_Driver/Src/stm32f1xx_hal_dma.c ****   hdma->ChannelIndex = (((uint32_t)hdma->Instance - (uint32_t)DMA1_Channel1) / ((uint32_t)DMA1_Chan
 180:Drivers/STM32F1xx_HAL_Driver/Src/stm32f1xx_hal_dma.c ****   hdma->DmaBaseAddress = DMA1;
 181:Drivers/STM32F1xx_HAL_Driver/Src/stm32f1xx_hal_dma.c **** #endif /* DMA2 */
 182:Drivers/STM32F1xx_HAL_Driver/Src/stm32f1xx_hal_dma.c **** 
 183:Drivers/STM32F1xx_HAL_Driver/Src/stm32f1xx_hal_dma.c ****   /* Change DMA peripheral state */
 184:Drivers/STM32F1xx_HAL_Driver/Src/stm32f1xx_hal_dma.c ****   hdma->State = HAL_DMA_STATE_BUSY;
 185:Drivers/STM32F1xx_HAL_Driver/Src/stm32f1xx_hal_dma.c **** 
 186:Drivers/STM32F1xx_HAL_Driver/Src/stm32f1xx_hal_dma.c ****   /* Get the CR register value */
 187:Drivers/STM32F1xx_HAL_Driver/Src/stm32f1xx_hal_dma.c ****   tmp = hdma->Instance->CCR;
 188:Drivers/STM32F1xx_HAL_Driver/Src/stm32f1xx_hal_dma.c **** 
 189:Drivers/STM32F1xx_HAL_Driver/Src/stm32f1xx_hal_dma.c ****   /* Clear PL, MSIZE, PSIZE, MINC, PINC, CIRC and DIR bits */
 190:Drivers/STM32F1xx_HAL_Driver/Src/stm32f1xx_hal_dma.c ****   tmp &= ((uint32_t)~(DMA_CCR_PL    | DMA_CCR_MSIZE  | DMA_CCR_PSIZE  | \
 191:Drivers/STM32F1xx_HAL_Driver/Src/stm32f1xx_hal_dma.c ****                       DMA_CCR_MINC  | DMA_CCR_PINC   | DMA_CCR_CIRC   | \
 192:Drivers/STM32F1xx_HAL_Driver/Src/stm32f1xx_hal_dma.c ****                       DMA_CCR_DIR));
 193:Drivers/STM32F1xx_HAL_Driver/Src/stm32f1xx_hal_dma.c **** 
 194:Drivers/STM32F1xx_HAL_Driver/Src/stm32f1xx_hal_dma.c ****   /* Prepare the DMA Channel configuration */
 195:Drivers/STM32F1xx_HAL_Driver/Src/stm32f1xx_hal_dma.c ****   tmp |=  hdma->Init.Direction        |
 196:Drivers/STM32F1xx_HAL_Driver/Src/stm32f1xx_hal_dma.c ****           hdma->Init.PeriphInc           | hdma->Init.MemInc           |
ARM GAS  C:\Users\WENHUA~1\AppData\Local\Temp\ccQSIM2h.s 			page 7


 197:Drivers/STM32F1xx_HAL_Driver/Src/stm32f1xx_hal_dma.c ****           hdma->Init.PeriphDataAlignment | hdma->Init.MemDataAlignment |
 198:Drivers/STM32F1xx_HAL_Driver/Src/stm32f1xx_hal_dma.c ****           hdma->Init.Mode                | hdma->Init.Priority;
 143              		.loc 1 198 54 discriminator 4 view .LVU27
 144 0092 E069     		ldr	r0, [r4, #28]
 145              	.L10:
 179:Drivers/STM32F1xx_HAL_Driver/Src/stm32f1xx_hal_dma.c ****   hdma->DmaBaseAddress = DMA1;
 146              		.loc 1 179 3 is_stmt 1 view .LVU28
 179:Drivers/STM32F1xx_HAL_Driver/Src/stm32f1xx_hal_dma.c ****   hdma->DmaBaseAddress = DMA1;
 147              		.loc 1 179 40 is_stmt 0 view .LVU29
 148 0094 2168     		ldr	r1, [r4]
 179:Drivers/STM32F1xx_HAL_Driver/Src/stm32f1xx_hal_dma.c ****   hdma->DmaBaseAddress = DMA1;
 149              		.loc 1 179 51 view .LVU30
 150 0096 2B4A     		ldr	r2, .L54+8
 179:Drivers/STM32F1xx_HAL_Driver/Src/stm32f1xx_hal_dma.c ****   hdma->DmaBaseAddress = DMA1;
 151              		.loc 1 179 78 view .LVU31
 152 0098 2B4B     		ldr	r3, .L54+12
 179:Drivers/STM32F1xx_HAL_Driver/Src/stm32f1xx_hal_dma.c ****   hdma->DmaBaseAddress = DMA1;
 153              		.loc 1 179 51 view .LVU32
 154 009a 0A44     		add	r2, r2, r1
 179:Drivers/STM32F1xx_HAL_Driver/Src/stm32f1xx_hal_dma.c ****   hdma->DmaBaseAddress = DMA1;
 155              		.loc 1 179 78 view .LVU33
 156 009c A3FB0232 		umull	r3, r2, r3, r2
 157 00a0 1209     		lsrs	r2, r2, #4
 199:Drivers/STM32F1xx_HAL_Driver/Src/stm32f1xx_hal_dma.c **** 
 200:Drivers/STM32F1xx_HAL_Driver/Src/stm32f1xx_hal_dma.c ****   /* Write to DMA Channel CR register */
 201:Drivers/STM32F1xx_HAL_Driver/Src/stm32f1xx_hal_dma.c ****   hdma->Instance->CCR = tmp;
 202:Drivers/STM32F1xx_HAL_Driver/Src/stm32f1xx_hal_dma.c **** 
 203:Drivers/STM32F1xx_HAL_Driver/Src/stm32f1xx_hal_dma.c ****   /* Initialise the error code */
 204:Drivers/STM32F1xx_HAL_Driver/Src/stm32f1xx_hal_dma.c ****   hdma->ErrorCode = HAL_DMA_ERROR_NONE;
 205:Drivers/STM32F1xx_HAL_Driver/Src/stm32f1xx_hal_dma.c **** 
 206:Drivers/STM32F1xx_HAL_Driver/Src/stm32f1xx_hal_dma.c ****   /* Initialize the DMA state*/
 207:Drivers/STM32F1xx_HAL_Driver/Src/stm32f1xx_hal_dma.c ****   hdma->State = HAL_DMA_STATE_READY;
 208:Drivers/STM32F1xx_HAL_Driver/Src/stm32f1xx_hal_dma.c ****   /* Allocate lock resource and initialize it */
 209:Drivers/STM32F1xx_HAL_Driver/Src/stm32f1xx_hal_dma.c ****   hdma->Lock = HAL_UNLOCKED;
 158              		.loc 1 209 14 view .LVU34
 159 00a2 4FF4807E 		mov	lr, #256
 179:Drivers/STM32F1xx_HAL_Driver/Src/stm32f1xx_hal_dma.c ****   hdma->DmaBaseAddress = DMA1;
 160              		.loc 1 179 133 view .LVU35
 161 00a6 9200     		lsls	r2, r2, #2
 187:Drivers/STM32F1xx_HAL_Driver/Src/stm32f1xx_hal_dma.c **** 
 162              		.loc 1 187 7 view .LVU36
 163 00a8 0D68     		ldr	r5, [r1]
 164              	.LVL5:
 179:Drivers/STM32F1xx_HAL_Driver/Src/stm32f1xx_hal_dma.c ****   hdma->DmaBaseAddress = DMA1;
 165              		.loc 1 179 22 view .LVU37
 166 00aa 2264     		str	r2, [r4, #64]
 204:Drivers/STM32F1xx_HAL_Driver/Src/stm32f1xx_hal_dma.c **** 
 167              		.loc 1 204 19 view .LVU38
 168 00ac 0022     		movs	r2, #0
 169 00ae 6368     		ldr	r3, [r4, #4]
 190:Drivers/STM32F1xx_HAL_Driver/Src/stm32f1xx_hal_dma.c ****                       DMA_CCR_MINC  | DMA_CCR_PINC   | DMA_CCR_CIRC   | \
 170              		.loc 1 190 7 view .LVU39
 171 00b0 25F47F5C 		bic	ip, r5, #16320
 172 00b4 A568     		ldr	r5, [r4, #8]
 173 00b6 2CF0300C 		bic	ip, ip, #48
 174 00ba 2B43     		orrs	r3, r3, r5
 175 00bc E568     		ldr	r5, [r4, #12]
ARM GAS  C:\Users\WENHUA~1\AppData\Local\Temp\ccQSIM2h.s 			page 8


 180:Drivers/STM32F1xx_HAL_Driver/Src/stm32f1xx_hal_dma.c **** #endif /* DMA2 */
 176              		.loc 1 180 24 view .LVU40
 177 00be 234E     		ldr	r6, .L54+16
 178 00c0 2B43     		orrs	r3, r3, r5
 179 00c2 2569     		ldr	r5, [r4, #16]
 180 00c4 E663     		str	r6, [r4, #60]
 180:Drivers/STM32F1xx_HAL_Driver/Src/stm32f1xx_hal_dma.c **** #endif /* DMA2 */
 181              		.loc 1 180 3 is_stmt 1 view .LVU41
 184:Drivers/STM32F1xx_HAL_Driver/Src/stm32f1xx_hal_dma.c **** 
 182              		.loc 1 184 3 view .LVU42
 187:Drivers/STM32F1xx_HAL_Driver/Src/stm32f1xx_hal_dma.c **** 
 183              		.loc 1 187 3 view .LVU43
 190:Drivers/STM32F1xx_HAL_Driver/Src/stm32f1xx_hal_dma.c ****                       DMA_CCR_MINC  | DMA_CCR_PINC   | DMA_CCR_CIRC   | \
 184              		.loc 1 190 3 view .LVU44
 195:Drivers/STM32F1xx_HAL_Driver/Src/stm32f1xx_hal_dma.c ****           hdma->Init.PeriphInc           | hdma->Init.MemInc           |
 185              		.loc 1 195 3 view .LVU45
 186 00c6 2B43     		orrs	r3, r3, r5
 187 00c8 6569     		ldr	r5, [r4, #20]
 188 00ca 2B43     		orrs	r3, r3, r5
 189 00cc A569     		ldr	r5, [r4, #24]
 190 00ce 2B43     		orrs	r3, r3, r5
 191 00d0 43EA0C03 		orr	r3, r3, ip
 195:Drivers/STM32F1xx_HAL_Driver/Src/stm32f1xx_hal_dma.c ****           hdma->Init.PeriphInc           | hdma->Init.MemInc           |
 192              		.loc 1 195 7 is_stmt 0 view .LVU46
 193 00d4 0343     		orrs	r3, r3, r0
 194              	.LVL6:
 201:Drivers/STM32F1xx_HAL_Driver/Src/stm32f1xx_hal_dma.c **** 
 195              		.loc 1 201 3 is_stmt 1 view .LVU47
 201:Drivers/STM32F1xx_HAL_Driver/Src/stm32f1xx_hal_dma.c **** 
 196              		.loc 1 201 23 is_stmt 0 view .LVU48
 197 00d6 0B60     		str	r3, [r1]
 204:Drivers/STM32F1xx_HAL_Driver/Src/stm32f1xx_hal_dma.c **** 
 198              		.loc 1 204 3 is_stmt 1 view .LVU49
 199              		.loc 1 209 14 is_stmt 0 view .LVU50
 200 00d8 A4F820E0 		strh	lr, [r4, #32]	@ movhi
 210:Drivers/STM32F1xx_HAL_Driver/Src/stm32f1xx_hal_dma.c **** 
 211:Drivers/STM32F1xx_HAL_Driver/Src/stm32f1xx_hal_dma.c ****   return HAL_OK;
 201              		.loc 1 211 10 view .LVU51
 202 00dc 1046     		mov	r0, r2
 204:Drivers/STM32F1xx_HAL_Driver/Src/stm32f1xx_hal_dma.c **** 
 203              		.loc 1 204 19 view .LVU52
 204 00de A263     		str	r2, [r4, #56]
 207:Drivers/STM32F1xx_HAL_Driver/Src/stm32f1xx_hal_dma.c ****   /* Allocate lock resource and initialize it */
 205              		.loc 1 207 3 is_stmt 1 view .LVU53
 209:Drivers/STM32F1xx_HAL_Driver/Src/stm32f1xx_hal_dma.c **** 
 206              		.loc 1 209 3 view .LVU54
 207              		.loc 1 211 3 view .LVU55
 212:Drivers/STM32F1xx_HAL_Driver/Src/stm32f1xx_hal_dma.c **** }
 208              		.loc 1 212 1 is_stmt 0 view .LVU56
 209 00e0 70BD     		pop	{r4, r5, r6, pc}
 210              	.LVL7:
 211              	.L47:
 155:Drivers/STM32F1xx_HAL_Driver/Src/stm32f1xx_hal_dma.c ****   assert_param(IS_DMA_PERIPHERAL_INC_STATE(hdma->Init.PeriphInc));
 212              		.loc 1 155 3 discriminator 2 view .LVU57
 213 00e2 B3F5804F 		cmp	r3, #16384
 214 00e6 AED0     		beq	.L4
 155:Drivers/STM32F1xx_HAL_Driver/Src/stm32f1xx_hal_dma.c ****   assert_param(IS_DMA_PERIPHERAL_INC_STATE(hdma->Init.PeriphInc));
ARM GAS  C:\Users\WENHUA~1\AppData\Local\Temp\ccQSIM2h.s 			page 9


 215              		.loc 1 155 3 discriminator 3 view .LVU58
 216 00e8 9B21     		movs	r1, #155
 217 00ea 1548     		ldr	r0, .L54+4
 218 00ec FFF7FEFF 		bl	assert_failed
 219              	.LVL8:
 156:Drivers/STM32F1xx_HAL_Driver/Src/stm32f1xx_hal_dma.c ****   assert_param(IS_DMA_MEMORY_INC_STATE(hdma->Init.MemInc));
 220              		.loc 1 156 3 is_stmt 1 discriminator 3 view .LVU59
 221 00f0 A368     		ldr	r3, [r4, #8]
 222 00f2 33F04003 		bics	r3, r3, #64
 223 00f6 AAD0     		beq	.L5
 224              	.L48:
 156:Drivers/STM32F1xx_HAL_Driver/Src/stm32f1xx_hal_dma.c ****   assert_param(IS_DMA_MEMORY_INC_STATE(hdma->Init.MemInc));
 225              		.loc 1 156 3 is_stmt 0 discriminator 2 view .LVU60
 226 00f8 9C21     		movs	r1, #156
 227 00fa 1148     		ldr	r0, .L54+4
 228 00fc FFF7FEFF 		bl	assert_failed
 229              	.LVL9:
 157:Drivers/STM32F1xx_HAL_Driver/Src/stm32f1xx_hal_dma.c ****   assert_param(IS_DMA_PERIPHERAL_DATA_SIZE(hdma->Init.PeriphDataAlignment));
 230              		.loc 1 157 3 is_stmt 1 discriminator 2 view .LVU61
 231 0100 E368     		ldr	r3, [r4, #12]
 232 0102 33F08003 		bics	r3, r3, #128
 233 0106 A6D0     		beq	.L6
 234              	.L49:
 157:Drivers/STM32F1xx_HAL_Driver/Src/stm32f1xx_hal_dma.c ****   assert_param(IS_DMA_PERIPHERAL_DATA_SIZE(hdma->Init.PeriphDataAlignment));
 235              		.loc 1 157 3 is_stmt 0 discriminator 2 view .LVU62
 236 0108 9D21     		movs	r1, #157
 237 010a 0D48     		ldr	r0, .L54+4
 238 010c FFF7FEFF 		bl	assert_failed
 239              	.LVL10:
 240 0110 A1E7     		b	.L6
 241              	.L50:
 158:Drivers/STM32F1xx_HAL_Driver/Src/stm32f1xx_hal_dma.c ****   assert_param(IS_DMA_MEMORY_DATA_SIZE(hdma->Init.MemDataAlignment));
 242              		.loc 1 158 3 discriminator 3 view .LVU63
 243 0112 9E21     		movs	r1, #158
 244 0114 0A48     		ldr	r0, .L54+4
 245 0116 FFF7FEFF 		bl	assert_failed
 246              	.LVL11:
 159:Drivers/STM32F1xx_HAL_Driver/Src/stm32f1xx_hal_dma.c ****   assert_param(IS_DMA_MODE(hdma->Init.Mode));
 247              		.loc 1 159 3 is_stmt 1 discriminator 3 view .LVU64
 248 011a 6369     		ldr	r3, [r4, #20]
 249 011c 33F48062 		bics	r2, r3, #1024
 250 0120 A7D0     		beq	.L8
 251 0122 A3E7     		b	.L52
 252              	.L51:
 159:Drivers/STM32F1xx_HAL_Driver/Src/stm32f1xx_hal_dma.c ****   assert_param(IS_DMA_MODE(hdma->Init.Mode));
 253              		.loc 1 159 3 is_stmt 0 discriminator 3 view .LVU65
 254 0124 9F21     		movs	r1, #159
 255 0126 0648     		ldr	r0, .L54+4
 256 0128 FFF7FEFF 		bl	assert_failed
 257              	.LVL12:
 160:Drivers/STM32F1xx_HAL_Driver/Src/stm32f1xx_hal_dma.c ****   assert_param(IS_DMA_PRIORITY(hdma->Init.Priority));
 258              		.loc 1 160 3 is_stmt 1 discriminator 3 view .LVU66
 259 012c A369     		ldr	r3, [r4, #24]
 260 012e 33F02003 		bics	r3, r3, #32
 261 0132 A6D0     		beq	.L9
 262 0134 A1E7     		b	.L53
 263              	.LVL13:
ARM GAS  C:\Users\WENHUA~1\AppData\Local\Temp\ccQSIM2h.s 			page 10


 264              	.L11:
 265              	.LCFI1:
 266              		.cfi_def_cfa_offset 0
 267              		.cfi_restore 4
 268              		.cfi_restore 5
 269              		.cfi_restore 6
 270              		.cfi_restore 14
 150:Drivers/STM32F1xx_HAL_Driver/Src/stm32f1xx_hal_dma.c ****   }
 271              		.loc 1 150 12 is_stmt 0 view .LVU67
 272 0136 0120     		movs	r0, #1
 273              	.LVL14:
 274              		.loc 1 212 1 view .LVU68
 275 0138 7047     		bx	lr
 276              	.L55:
 277 013a 00BF     		.align	2
 278              	.L54:
 279 013c 08000240 		.word	1073872904
 280 0140 00000000 		.word	.LC0
 281 0144 F8FFFDBF 		.word	-1073872904
 282 0148 CDCCCCCC 		.word	-858993459
 283 014c 00000240 		.word	1073872896
 284              		.cfi_endproc
 285              	.LFE65:
 287              		.section	.text.HAL_DMA_DeInit,"ax",%progbits
 288              		.align	1
 289              		.p2align 2,,3
 290              		.global	HAL_DMA_DeInit
 291              		.syntax unified
 292              		.thumb
 293              		.thumb_func
 295              	HAL_DMA_DeInit:
 296              	.LVL15:
 297              	.LFB66:
 213:Drivers/STM32F1xx_HAL_Driver/Src/stm32f1xx_hal_dma.c **** 
 214:Drivers/STM32F1xx_HAL_Driver/Src/stm32f1xx_hal_dma.c **** /**
 215:Drivers/STM32F1xx_HAL_Driver/Src/stm32f1xx_hal_dma.c ****   * @brief  DeInitialize the DMA peripheral.
 216:Drivers/STM32F1xx_HAL_Driver/Src/stm32f1xx_hal_dma.c ****   * @param  hdma: pointer to a DMA_HandleTypeDef structure that contains
 217:Drivers/STM32F1xx_HAL_Driver/Src/stm32f1xx_hal_dma.c ****   *               the configuration information for the specified DMA Channel.
 218:Drivers/STM32F1xx_HAL_Driver/Src/stm32f1xx_hal_dma.c ****   * @retval HAL status
 219:Drivers/STM32F1xx_HAL_Driver/Src/stm32f1xx_hal_dma.c ****   */
 220:Drivers/STM32F1xx_HAL_Driver/Src/stm32f1xx_hal_dma.c **** HAL_StatusTypeDef HAL_DMA_DeInit(DMA_HandleTypeDef *hdma)
 221:Drivers/STM32F1xx_HAL_Driver/Src/stm32f1xx_hal_dma.c **** {
 298              		.loc 1 221 1 is_stmt 1 view -0
 299              		.cfi_startproc
 300              		@ args = 0, pretend = 0, frame = 0
 301              		@ frame_needed = 0, uses_anonymous_args = 0
 222:Drivers/STM32F1xx_HAL_Driver/Src/stm32f1xx_hal_dma.c ****   /* Check the DMA handle allocation */
 223:Drivers/STM32F1xx_HAL_Driver/Src/stm32f1xx_hal_dma.c ****   if(hdma == NULL)
 302              		.loc 1 223 3 view .LVU70
 303              		.loc 1 223 5 is_stmt 0 view .LVU71
 304 0000 0028     		cmp	r0, #0
 305 0002 3BD0     		beq	.L59
 221:Drivers/STM32F1xx_HAL_Driver/Src/stm32f1xx_hal_dma.c ****   /* Check the DMA handle allocation */
 306              		.loc 1 221 1 view .LVU72
 307 0004 38B5     		push	{r3, r4, r5, lr}
 308              	.LCFI2:
 309              		.cfi_def_cfa_offset 16
ARM GAS  C:\Users\WENHUA~1\AppData\Local\Temp\ccQSIM2h.s 			page 11


 310              		.cfi_offset 3, -16
 311              		.cfi_offset 4, -12
 312              		.cfi_offset 5, -8
 313              		.cfi_offset 14, -4
 224:Drivers/STM32F1xx_HAL_Driver/Src/stm32f1xx_hal_dma.c ****   {
 225:Drivers/STM32F1xx_HAL_Driver/Src/stm32f1xx_hal_dma.c ****     return HAL_ERROR;
 226:Drivers/STM32F1xx_HAL_Driver/Src/stm32f1xx_hal_dma.c ****   }
 227:Drivers/STM32F1xx_HAL_Driver/Src/stm32f1xx_hal_dma.c **** 
 228:Drivers/STM32F1xx_HAL_Driver/Src/stm32f1xx_hal_dma.c ****   /* Check the parameters */
 229:Drivers/STM32F1xx_HAL_Driver/Src/stm32f1xx_hal_dma.c ****   assert_param(IS_DMA_ALL_INSTANCE(hdma->Instance));
 314              		.loc 1 229 3 view .LVU73
 315 0006 0268     		ldr	r2, [r0]
 316 0008 1D4B     		ldr	r3, .L64
 317 000a 0446     		mov	r4, r0
 318              		.loc 1 229 3 is_stmt 1 view .LVU74
 319 000c 9A42     		cmp	r2, r3
 320 000e 16D0     		beq	.L58
 321              		.loc 1 229 3 is_stmt 0 discriminator 1 view .LVU75
 322 0010 1433     		adds	r3, r3, #20
 323 0012 9A42     		cmp	r2, r3
 324 0014 13D0     		beq	.L58
 325              		.loc 1 229 3 discriminator 2 view .LVU76
 326 0016 1433     		adds	r3, r3, #20
 327 0018 9A42     		cmp	r2, r3
 328 001a 10D0     		beq	.L58
 329              		.loc 1 229 3 discriminator 3 view .LVU77
 330 001c 1433     		adds	r3, r3, #20
 331 001e 9A42     		cmp	r2, r3
 332 0020 0DD0     		beq	.L58
 333              		.loc 1 229 3 discriminator 4 view .LVU78
 334 0022 1433     		adds	r3, r3, #20
 335 0024 9A42     		cmp	r2, r3
 336 0026 0AD0     		beq	.L58
 337              		.loc 1 229 3 discriminator 5 view .LVU79
 338 0028 1433     		adds	r3, r3, #20
 339 002a 9A42     		cmp	r2, r3
 340 002c 07D0     		beq	.L58
 341              		.loc 1 229 3 discriminator 6 view .LVU80
 342 002e 1433     		adds	r3, r3, #20
 343 0030 9A42     		cmp	r2, r3
 344 0032 04D0     		beq	.L58
 345              		.loc 1 229 3 discriminator 7 view .LVU81
 346 0034 E521     		movs	r1, #229
 347 0036 1348     		ldr	r0, .L64+4
 348              	.LVL16:
 349              		.loc 1 229 3 discriminator 7 view .LVU82
 350 0038 FFF7FEFF 		bl	assert_failed
 351              	.LVL17:
 230:Drivers/STM32F1xx_HAL_Driver/Src/stm32f1xx_hal_dma.c **** 
 231:Drivers/STM32F1xx_HAL_Driver/Src/stm32f1xx_hal_dma.c ****   /* Disable the selected DMA Channelx */
 232:Drivers/STM32F1xx_HAL_Driver/Src/stm32f1xx_hal_dma.c ****   __HAL_DMA_DISABLE(hdma);
 352              		.loc 1 232 3 discriminator 7 view .LVU83
 353 003c 2268     		ldr	r2, [r4]
 354              	.L58:
 355              		.loc 1 232 3 is_stmt 1 view .LVU84
 233:Drivers/STM32F1xx_HAL_Driver/Src/stm32f1xx_hal_dma.c **** 
 234:Drivers/STM32F1xx_HAL_Driver/Src/stm32f1xx_hal_dma.c ****   /* Reset DMA Channel control register */
ARM GAS  C:\Users\WENHUA~1\AppData\Local\Temp\ccQSIM2h.s 			page 12


 235:Drivers/STM32F1xx_HAL_Driver/Src/stm32f1xx_hal_dma.c ****   hdma->Instance->CCR  = 0U;
 236:Drivers/STM32F1xx_HAL_Driver/Src/stm32f1xx_hal_dma.c **** 
 237:Drivers/STM32F1xx_HAL_Driver/Src/stm32f1xx_hal_dma.c ****   /* Reset DMA Channel Number of Data to Transfer register */
 238:Drivers/STM32F1xx_HAL_Driver/Src/stm32f1xx_hal_dma.c ****   hdma->Instance->CNDTR = 0U;
 239:Drivers/STM32F1xx_HAL_Driver/Src/stm32f1xx_hal_dma.c **** 
 240:Drivers/STM32F1xx_HAL_Driver/Src/stm32f1xx_hal_dma.c ****   /* Reset DMA Channel peripheral address register */
 241:Drivers/STM32F1xx_HAL_Driver/Src/stm32f1xx_hal_dma.c ****   hdma->Instance->CPAR  = 0U;
 242:Drivers/STM32F1xx_HAL_Driver/Src/stm32f1xx_hal_dma.c **** 
 243:Drivers/STM32F1xx_HAL_Driver/Src/stm32f1xx_hal_dma.c ****   /* Reset DMA Channel memory address register */
 244:Drivers/STM32F1xx_HAL_Driver/Src/stm32f1xx_hal_dma.c ****   hdma->Instance->CMAR = 0U;
 245:Drivers/STM32F1xx_HAL_Driver/Src/stm32f1xx_hal_dma.c **** 
 246:Drivers/STM32F1xx_HAL_Driver/Src/stm32f1xx_hal_dma.c **** #if defined (DMA2)
 247:Drivers/STM32F1xx_HAL_Driver/Src/stm32f1xx_hal_dma.c ****   /* calculation of the channel index */
 248:Drivers/STM32F1xx_HAL_Driver/Src/stm32f1xx_hal_dma.c ****   if ((uint32_t)(hdma->Instance) < (uint32_t)(DMA2_Channel1))
 249:Drivers/STM32F1xx_HAL_Driver/Src/stm32f1xx_hal_dma.c ****   {
 250:Drivers/STM32F1xx_HAL_Driver/Src/stm32f1xx_hal_dma.c ****     /* DMA1 */
 251:Drivers/STM32F1xx_HAL_Driver/Src/stm32f1xx_hal_dma.c ****     hdma->ChannelIndex = (((uint32_t)hdma->Instance - (uint32_t)DMA1_Channel1) / ((uint32_t)DMA1_Ch
 252:Drivers/STM32F1xx_HAL_Driver/Src/stm32f1xx_hal_dma.c ****     hdma->DmaBaseAddress = DMA1;
 253:Drivers/STM32F1xx_HAL_Driver/Src/stm32f1xx_hal_dma.c ****   }
 254:Drivers/STM32F1xx_HAL_Driver/Src/stm32f1xx_hal_dma.c ****   else
 255:Drivers/STM32F1xx_HAL_Driver/Src/stm32f1xx_hal_dma.c ****   {
 256:Drivers/STM32F1xx_HAL_Driver/Src/stm32f1xx_hal_dma.c ****     /* DMA2 */
 257:Drivers/STM32F1xx_HAL_Driver/Src/stm32f1xx_hal_dma.c ****     hdma->ChannelIndex = (((uint32_t)hdma->Instance - (uint32_t)DMA2_Channel1) / ((uint32_t)DMA2_Ch
 258:Drivers/STM32F1xx_HAL_Driver/Src/stm32f1xx_hal_dma.c ****     hdma->DmaBaseAddress = DMA2;
 259:Drivers/STM32F1xx_HAL_Driver/Src/stm32f1xx_hal_dma.c ****   }
 260:Drivers/STM32F1xx_HAL_Driver/Src/stm32f1xx_hal_dma.c **** #else
 261:Drivers/STM32F1xx_HAL_Driver/Src/stm32f1xx_hal_dma.c ****   /* DMA1 */
 262:Drivers/STM32F1xx_HAL_Driver/Src/stm32f1xx_hal_dma.c ****   hdma->ChannelIndex = (((uint32_t)hdma->Instance - (uint32_t)DMA1_Channel1) / ((uint32_t)DMA1_Chan
 356              		.loc 1 262 51 is_stmt 0 view .LVU85
 357 003e 1249     		ldr	r1, .L64+8
 358              		.loc 1 262 78 view .LVU86
 359 0040 1248     		ldr	r0, .L64+12
 360              		.loc 1 262 51 view .LVU87
 361 0042 1144     		add	r1, r1, r2
 362              		.loc 1 262 78 view .LVU88
 363 0044 A0FB0101 		umull	r0, r1, r0, r1
 232:Drivers/STM32F1xx_HAL_Driver/Src/stm32f1xx_hal_dma.c **** 
 364              		.loc 1 232 3 view .LVU89
 365 0048 1068     		ldr	r0, [r2]
 235:Drivers/STM32F1xx_HAL_Driver/Src/stm32f1xx_hal_dma.c **** 
 366              		.loc 1 235 24 view .LVU90
 367 004a 0023     		movs	r3, #0
 232:Drivers/STM32F1xx_HAL_Driver/Src/stm32f1xx_hal_dma.c **** 
 368              		.loc 1 232 3 view .LVU91
 369 004c 20F00100 		bic	r0, r0, #1
 370 0050 1060     		str	r0, [r2]
 235:Drivers/STM32F1xx_HAL_Driver/Src/stm32f1xx_hal_dma.c **** 
 371              		.loc 1 235 3 is_stmt 1 view .LVU92
 263:Drivers/STM32F1xx_HAL_Driver/Src/stm32f1xx_hal_dma.c ****   hdma->DmaBaseAddress = DMA1;
 264:Drivers/STM32F1xx_HAL_Driver/Src/stm32f1xx_hal_dma.c **** #endif /* DMA2 */
 265:Drivers/STM32F1xx_HAL_Driver/Src/stm32f1xx_hal_dma.c **** 
 266:Drivers/STM32F1xx_HAL_Driver/Src/stm32f1xx_hal_dma.c ****   /* Clear all flags */
 267:Drivers/STM32F1xx_HAL_Driver/Src/stm32f1xx_hal_dma.c ****   hdma->DmaBaseAddress->IFCR = (DMA_ISR_GIF1 << (hdma->ChannelIndex));
 372              		.loc 1 267 46 is_stmt 0 view .LVU93
 373 0052 0120     		movs	r0, #1
 262:Drivers/STM32F1xx_HAL_Driver/Src/stm32f1xx_hal_dma.c ****   hdma->DmaBaseAddress = DMA1;
 374              		.loc 1 262 78 view .LVU94
ARM GAS  C:\Users\WENHUA~1\AppData\Local\Temp\ccQSIM2h.s 			page 13


 375 0054 0909     		lsrs	r1, r1, #4
 263:Drivers/STM32F1xx_HAL_Driver/Src/stm32f1xx_hal_dma.c ****   hdma->DmaBaseAddress = DMA1;
 376              		.loc 1 263 24 view .LVU95
 377 0056 0E4D     		ldr	r5, .L64+16
 262:Drivers/STM32F1xx_HAL_Driver/Src/stm32f1xx_hal_dma.c ****   hdma->DmaBaseAddress = DMA1;
 378              		.loc 1 262 133 view .LVU96
 379 0058 8900     		lsls	r1, r1, #2
 235:Drivers/STM32F1xx_HAL_Driver/Src/stm32f1xx_hal_dma.c **** 
 380              		.loc 1 235 24 view .LVU97
 381 005a 1360     		str	r3, [r2]
 238:Drivers/STM32F1xx_HAL_Driver/Src/stm32f1xx_hal_dma.c **** 
 382              		.loc 1 238 3 is_stmt 1 view .LVU98
 238:Drivers/STM32F1xx_HAL_Driver/Src/stm32f1xx_hal_dma.c **** 
 383              		.loc 1 238 25 is_stmt 0 view .LVU99
 384 005c 5360     		str	r3, [r2, #4]
 241:Drivers/STM32F1xx_HAL_Driver/Src/stm32f1xx_hal_dma.c **** 
 385              		.loc 1 241 3 is_stmt 1 view .LVU100
 241:Drivers/STM32F1xx_HAL_Driver/Src/stm32f1xx_hal_dma.c **** 
 386              		.loc 1 241 25 is_stmt 0 view .LVU101
 387 005e 9360     		str	r3, [r2, #8]
 244:Drivers/STM32F1xx_HAL_Driver/Src/stm32f1xx_hal_dma.c **** 
 388              		.loc 1 244 3 is_stmt 1 view .LVU102
 244:Drivers/STM32F1xx_HAL_Driver/Src/stm32f1xx_hal_dma.c **** 
 389              		.loc 1 244 24 is_stmt 0 view .LVU103
 390 0060 D360     		str	r3, [r2, #12]
 262:Drivers/STM32F1xx_HAL_Driver/Src/stm32f1xx_hal_dma.c ****   hdma->DmaBaseAddress = DMA1;
 391              		.loc 1 262 3 is_stmt 1 view .LVU104
 262:Drivers/STM32F1xx_HAL_Driver/Src/stm32f1xx_hal_dma.c ****   hdma->DmaBaseAddress = DMA1;
 392              		.loc 1 262 22 is_stmt 0 view .LVU105
 393 0062 2164     		str	r1, [r4, #64]
 263:Drivers/STM32F1xx_HAL_Driver/Src/stm32f1xx_hal_dma.c **** #endif /* DMA2 */
 394              		.loc 1 263 3 is_stmt 1 view .LVU106
 395              		.loc 1 267 46 is_stmt 0 view .LVU107
 396 0064 00FA01F1 		lsl	r1, r0, r1
 263:Drivers/STM32F1xx_HAL_Driver/Src/stm32f1xx_hal_dma.c **** #endif /* DMA2 */
 397              		.loc 1 263 24 view .LVU108
 398 0068 E563     		str	r5, [r4, #60]
 399              		.loc 1 267 3 is_stmt 1 view .LVU109
 400              		.loc 1 267 30 is_stmt 0 view .LVU110
 401 006a 6960     		str	r1, [r5, #4]
 268:Drivers/STM32F1xx_HAL_Driver/Src/stm32f1xx_hal_dma.c **** 
 269:Drivers/STM32F1xx_HAL_Driver/Src/stm32f1xx_hal_dma.c ****   /* Clean all callbacks */
 270:Drivers/STM32F1xx_HAL_Driver/Src/stm32f1xx_hal_dma.c ****   hdma->XferCpltCallback = NULL;
 402              		.loc 1 270 3 is_stmt 1 view .LVU111
 271:Drivers/STM32F1xx_HAL_Driver/Src/stm32f1xx_hal_dma.c ****   hdma->XferHalfCpltCallback = NULL;
 272:Drivers/STM32F1xx_HAL_Driver/Src/stm32f1xx_hal_dma.c ****   hdma->XferErrorCallback = NULL;
 273:Drivers/STM32F1xx_HAL_Driver/Src/stm32f1xx_hal_dma.c ****   hdma->XferAbortCallback = NULL;
 274:Drivers/STM32F1xx_HAL_Driver/Src/stm32f1xx_hal_dma.c **** 
 275:Drivers/STM32F1xx_HAL_Driver/Src/stm32f1xx_hal_dma.c ****   /* Reset the error code */
 276:Drivers/STM32F1xx_HAL_Driver/Src/stm32f1xx_hal_dma.c ****   hdma->ErrorCode = HAL_DMA_ERROR_NONE;
 277:Drivers/STM32F1xx_HAL_Driver/Src/stm32f1xx_hal_dma.c **** 
 278:Drivers/STM32F1xx_HAL_Driver/Src/stm32f1xx_hal_dma.c ****   /* Reset the DMA state */
 279:Drivers/STM32F1xx_HAL_Driver/Src/stm32f1xx_hal_dma.c ****   hdma->State = HAL_DMA_STATE_RESET;
 280:Drivers/STM32F1xx_HAL_Driver/Src/stm32f1xx_hal_dma.c **** 
 281:Drivers/STM32F1xx_HAL_Driver/Src/stm32f1xx_hal_dma.c ****   /* Release Lock */
 282:Drivers/STM32F1xx_HAL_Driver/Src/stm32f1xx_hal_dma.c ****   __HAL_UNLOCK(hdma);
 403              		.loc 1 282 3 is_stmt 0 view .LVU112
ARM GAS  C:\Users\WENHUA~1\AppData\Local\Temp\ccQSIM2h.s 			page 14


 404 006c 2384     		strh	r3, [r4, #32]	@ movhi
 283:Drivers/STM32F1xx_HAL_Driver/Src/stm32f1xx_hal_dma.c **** 
 284:Drivers/STM32F1xx_HAL_Driver/Src/stm32f1xx_hal_dma.c ****   return HAL_OK;
 405              		.loc 1 284 10 view .LVU113
 406 006e 1846     		mov	r0, r3
 271:Drivers/STM32F1xx_HAL_Driver/Src/stm32f1xx_hal_dma.c ****   hdma->XferHalfCpltCallback = NULL;
 407              		.loc 1 271 30 view .LVU114
 408 0070 C4E90A33 		strd	r3, r3, [r4, #40]
 272:Drivers/STM32F1xx_HAL_Driver/Src/stm32f1xx_hal_dma.c ****   hdma->XferAbortCallback = NULL;
 409              		.loc 1 272 3 is_stmt 1 view .LVU115
 273:Drivers/STM32F1xx_HAL_Driver/Src/stm32f1xx_hal_dma.c **** 
 410              		.loc 1 273 27 is_stmt 0 view .LVU116
 411 0074 C4E90C33 		strd	r3, r3, [r4, #48]
 276:Drivers/STM32F1xx_HAL_Driver/Src/stm32f1xx_hal_dma.c **** 
 412              		.loc 1 276 3 is_stmt 1 view .LVU117
 276:Drivers/STM32F1xx_HAL_Driver/Src/stm32f1xx_hal_dma.c **** 
 413              		.loc 1 276 19 is_stmt 0 view .LVU118
 414 0078 A363     		str	r3, [r4, #56]
 279:Drivers/STM32F1xx_HAL_Driver/Src/stm32f1xx_hal_dma.c **** 
 415              		.loc 1 279 3 is_stmt 1 view .LVU119
 282:Drivers/STM32F1xx_HAL_Driver/Src/stm32f1xx_hal_dma.c **** 
 416              		.loc 1 282 3 view .LVU120
 282:Drivers/STM32F1xx_HAL_Driver/Src/stm32f1xx_hal_dma.c **** 
 417              		.loc 1 282 3 view .LVU121
 282:Drivers/STM32F1xx_HAL_Driver/Src/stm32f1xx_hal_dma.c **** 
 418              		.loc 1 282 3 view .LVU122
 419              		.loc 1 284 3 view .LVU123
 285:Drivers/STM32F1xx_HAL_Driver/Src/stm32f1xx_hal_dma.c **** }
 420              		.loc 1 285 1 is_stmt 0 view .LVU124
 421 007a 38BD     		pop	{r3, r4, r5, pc}
 422              	.LVL18:
 423              	.L59:
 424              	.LCFI3:
 425              		.cfi_def_cfa_offset 0
 426              		.cfi_restore 3
 427              		.cfi_restore 4
 428              		.cfi_restore 5
 429              		.cfi_restore 14
 225:Drivers/STM32F1xx_HAL_Driver/Src/stm32f1xx_hal_dma.c ****   }
 430              		.loc 1 225 12 view .LVU125
 431 007c 0120     		movs	r0, #1
 432              	.LVL19:
 433              		.loc 1 285 1 view .LVU126
 434 007e 7047     		bx	lr
 435              	.L65:
 436              		.align	2
 437              	.L64:
 438 0080 08000240 		.word	1073872904
 439 0084 00000000 		.word	.LC0
 440 0088 F8FFFDBF 		.word	-1073872904
 441 008c CDCCCCCC 		.word	-858993459
 442 0090 00000240 		.word	1073872896
 443              		.cfi_endproc
 444              	.LFE66:
 446              		.section	.text.HAL_DMA_Start,"ax",%progbits
 447              		.align	1
 448              		.p2align 2,,3
ARM GAS  C:\Users\WENHUA~1\AppData\Local\Temp\ccQSIM2h.s 			page 15


 449              		.global	HAL_DMA_Start
 450              		.syntax unified
 451              		.thumb
 452              		.thumb_func
 454              	HAL_DMA_Start:
 455              	.LVL20:
 456              	.LFB67:
 286:Drivers/STM32F1xx_HAL_Driver/Src/stm32f1xx_hal_dma.c **** 
 287:Drivers/STM32F1xx_HAL_Driver/Src/stm32f1xx_hal_dma.c **** /**
 288:Drivers/STM32F1xx_HAL_Driver/Src/stm32f1xx_hal_dma.c ****   * @}
 289:Drivers/STM32F1xx_HAL_Driver/Src/stm32f1xx_hal_dma.c ****   */
 290:Drivers/STM32F1xx_HAL_Driver/Src/stm32f1xx_hal_dma.c **** 
 291:Drivers/STM32F1xx_HAL_Driver/Src/stm32f1xx_hal_dma.c **** /** @defgroup DMA_Exported_Functions_Group2 Input and Output operation functions
 292:Drivers/STM32F1xx_HAL_Driver/Src/stm32f1xx_hal_dma.c ****   *  @brief   Input and Output operation functions
 293:Drivers/STM32F1xx_HAL_Driver/Src/stm32f1xx_hal_dma.c ****   *
 294:Drivers/STM32F1xx_HAL_Driver/Src/stm32f1xx_hal_dma.c **** @verbatim
 295:Drivers/STM32F1xx_HAL_Driver/Src/stm32f1xx_hal_dma.c ****  ===============================================================================
 296:Drivers/STM32F1xx_HAL_Driver/Src/stm32f1xx_hal_dma.c ****                       #####  IO operation functions  #####
 297:Drivers/STM32F1xx_HAL_Driver/Src/stm32f1xx_hal_dma.c ****  ===============================================================================
 298:Drivers/STM32F1xx_HAL_Driver/Src/stm32f1xx_hal_dma.c ****     [..]  This section provides functions allowing to:
 299:Drivers/STM32F1xx_HAL_Driver/Src/stm32f1xx_hal_dma.c ****       (+) Configure the source, destination address and data length and Start DMA transfer
 300:Drivers/STM32F1xx_HAL_Driver/Src/stm32f1xx_hal_dma.c ****       (+) Configure the source, destination address and data length and
 301:Drivers/STM32F1xx_HAL_Driver/Src/stm32f1xx_hal_dma.c ****           Start DMA transfer with interrupt
 302:Drivers/STM32F1xx_HAL_Driver/Src/stm32f1xx_hal_dma.c ****       (+) Abort DMA transfer
 303:Drivers/STM32F1xx_HAL_Driver/Src/stm32f1xx_hal_dma.c ****       (+) Poll for transfer complete
 304:Drivers/STM32F1xx_HAL_Driver/Src/stm32f1xx_hal_dma.c ****       (+) Handle DMA interrupt request
 305:Drivers/STM32F1xx_HAL_Driver/Src/stm32f1xx_hal_dma.c **** 
 306:Drivers/STM32F1xx_HAL_Driver/Src/stm32f1xx_hal_dma.c **** @endverbatim
 307:Drivers/STM32F1xx_HAL_Driver/Src/stm32f1xx_hal_dma.c ****   * @{
 308:Drivers/STM32F1xx_HAL_Driver/Src/stm32f1xx_hal_dma.c ****   */
 309:Drivers/STM32F1xx_HAL_Driver/Src/stm32f1xx_hal_dma.c **** 
 310:Drivers/STM32F1xx_HAL_Driver/Src/stm32f1xx_hal_dma.c **** /**
 311:Drivers/STM32F1xx_HAL_Driver/Src/stm32f1xx_hal_dma.c ****   * @brief  Start the DMA Transfer.
 312:Drivers/STM32F1xx_HAL_Driver/Src/stm32f1xx_hal_dma.c ****   * @param  hdma: pointer to a DMA_HandleTypeDef structure that contains
 313:Drivers/STM32F1xx_HAL_Driver/Src/stm32f1xx_hal_dma.c ****   *               the configuration information for the specified DMA Channel.
 314:Drivers/STM32F1xx_HAL_Driver/Src/stm32f1xx_hal_dma.c ****   * @param  SrcAddress: The source memory Buffer address
 315:Drivers/STM32F1xx_HAL_Driver/Src/stm32f1xx_hal_dma.c ****   * @param  DstAddress: The destination memory Buffer address
 316:Drivers/STM32F1xx_HAL_Driver/Src/stm32f1xx_hal_dma.c ****   * @param  DataLength: The length of data to be transferred from source to destination
 317:Drivers/STM32F1xx_HAL_Driver/Src/stm32f1xx_hal_dma.c ****   * @retval HAL status
 318:Drivers/STM32F1xx_HAL_Driver/Src/stm32f1xx_hal_dma.c ****   */
 319:Drivers/STM32F1xx_HAL_Driver/Src/stm32f1xx_hal_dma.c **** HAL_StatusTypeDef HAL_DMA_Start(DMA_HandleTypeDef *hdma, uint32_t SrcAddress, uint32_t DstAddress, 
 320:Drivers/STM32F1xx_HAL_Driver/Src/stm32f1xx_hal_dma.c **** {
 457              		.loc 1 320 1 is_stmt 1 view -0
 458              		.cfi_startproc
 459              		@ args = 0, pretend = 0, frame = 0
 460              		@ frame_needed = 0, uses_anonymous_args = 0
 321:Drivers/STM32F1xx_HAL_Driver/Src/stm32f1xx_hal_dma.c ****   HAL_StatusTypeDef status = HAL_OK;
 461              		.loc 1 321 3 view .LVU128
 322:Drivers/STM32F1xx_HAL_Driver/Src/stm32f1xx_hal_dma.c **** 
 323:Drivers/STM32F1xx_HAL_Driver/Src/stm32f1xx_hal_dma.c ****   /* Check the parameters */
 324:Drivers/STM32F1xx_HAL_Driver/Src/stm32f1xx_hal_dma.c ****   assert_param(IS_DMA_BUFFER_SIZE(DataLength));
 462              		.loc 1 324 3 view .LVU129
 463 0000 4FF6FE7C 		movw	ip, #65534
 320:Drivers/STM32F1xx_HAL_Driver/Src/stm32f1xx_hal_dma.c ****   HAL_StatusTypeDef status = HAL_OK;
 464              		.loc 1 320 1 is_stmt 0 view .LVU130
 465 0004 F8B5     		push	{r3, r4, r5, r6, r7, lr}
 466              	.LCFI4:
ARM GAS  C:\Users\WENHUA~1\AppData\Local\Temp\ccQSIM2h.s 			page 16


 467              		.cfi_def_cfa_offset 24
 468              		.cfi_offset 3, -24
 469              		.cfi_offset 4, -20
 470              		.cfi_offset 5, -16
 471              		.cfi_offset 6, -12
 472              		.cfi_offset 7, -8
 473              		.cfi_offset 14, -4
 320:Drivers/STM32F1xx_HAL_Driver/Src/stm32f1xx_hal_dma.c ****   HAL_StatusTypeDef status = HAL_OK;
 474              		.loc 1 320 1 view .LVU131
 475 0006 1D46     		mov	r5, r3
 476              		.loc 1 324 3 view .LVU132
 477 0008 013B     		subs	r3, r3, #1
 478              	.LVL21:
 479              		.loc 1 324 3 view .LVU133
 480 000a 6345     		cmp	r3, ip
 320:Drivers/STM32F1xx_HAL_Driver/Src/stm32f1xx_hal_dma.c ****   HAL_StatusTypeDef status = HAL_OK;
 481              		.loc 1 320 1 view .LVU134
 482 000c 0446     		mov	r4, r0
 483 000e 0E46     		mov	r6, r1
 484 0010 1746     		mov	r7, r2
 485              		.loc 1 324 3 view .LVU135
 486 0012 2BD8     		bhi	.L74
 325:Drivers/STM32F1xx_HAL_Driver/Src/stm32f1xx_hal_dma.c **** 
 326:Drivers/STM32F1xx_HAL_Driver/Src/stm32f1xx_hal_dma.c ****   /* Process locked */
 327:Drivers/STM32F1xx_HAL_Driver/Src/stm32f1xx_hal_dma.c ****   __HAL_LOCK(hdma);
 487              		.loc 1 327 3 is_stmt 1 view .LVU136
 488              		.loc 1 327 3 view .LVU137
 489 0014 94F82030 		ldrb	r3, [r4, #32]	@ zero_extendqisi2
 490 0018 012B     		cmp	r3, #1
 491 001a 30D0     		beq	.L72
 492              	.LVL22:
 493              	.L76:
 494              		.loc 1 327 3 discriminator 2 view .LVU138
 495 001c 0123     		movs	r3, #1
 328:Drivers/STM32F1xx_HAL_Driver/Src/stm32f1xx_hal_dma.c **** 
 329:Drivers/STM32F1xx_HAL_Driver/Src/stm32f1xx_hal_dma.c ****   if(HAL_DMA_STATE_READY == hdma->State)
 496              		.loc 1 329 5 is_stmt 0 discriminator 2 view .LVU139
 497 001e 94F82100 		ldrb	r0, [r4, #33]	@ zero_extendqisi2
 327:Drivers/STM32F1xx_HAL_Driver/Src/stm32f1xx_hal_dma.c **** 
 498              		.loc 1 327 3 discriminator 2 view .LVU140
 499 0022 84F82030 		strb	r3, [r4, #32]
 327:Drivers/STM32F1xx_HAL_Driver/Src/stm32f1xx_hal_dma.c **** 
 500              		.loc 1 327 3 is_stmt 1 discriminator 2 view .LVU141
 501              		.loc 1 329 3 discriminator 2 view .LVU142
 502              		.loc 1 329 5 is_stmt 0 discriminator 2 view .LVU143
 503 0026 9842     		cmp	r0, r3
 504 0028 04D0     		beq	.L75
 330:Drivers/STM32F1xx_HAL_Driver/Src/stm32f1xx_hal_dma.c ****   {
 331:Drivers/STM32F1xx_HAL_Driver/Src/stm32f1xx_hal_dma.c ****     /* Change DMA peripheral state */
 332:Drivers/STM32F1xx_HAL_Driver/Src/stm32f1xx_hal_dma.c ****     hdma->State = HAL_DMA_STATE_BUSY;
 333:Drivers/STM32F1xx_HAL_Driver/Src/stm32f1xx_hal_dma.c ****     hdma->ErrorCode = HAL_DMA_ERROR_NONE;
 334:Drivers/STM32F1xx_HAL_Driver/Src/stm32f1xx_hal_dma.c ****             
 335:Drivers/STM32F1xx_HAL_Driver/Src/stm32f1xx_hal_dma.c ****     /* Disable the peripheral */
 336:Drivers/STM32F1xx_HAL_Driver/Src/stm32f1xx_hal_dma.c ****     __HAL_DMA_DISABLE(hdma);
 337:Drivers/STM32F1xx_HAL_Driver/Src/stm32f1xx_hal_dma.c ****     
 338:Drivers/STM32F1xx_HAL_Driver/Src/stm32f1xx_hal_dma.c ****     /* Configure the source, destination address and the data length & clear flags*/
 339:Drivers/STM32F1xx_HAL_Driver/Src/stm32f1xx_hal_dma.c ****     DMA_SetConfig(hdma, SrcAddress, DstAddress, DataLength);
ARM GAS  C:\Users\WENHUA~1\AppData\Local\Temp\ccQSIM2h.s 			page 17


 340:Drivers/STM32F1xx_HAL_Driver/Src/stm32f1xx_hal_dma.c ****     
 341:Drivers/STM32F1xx_HAL_Driver/Src/stm32f1xx_hal_dma.c ****     /* Enable the Peripheral */
 342:Drivers/STM32F1xx_HAL_Driver/Src/stm32f1xx_hal_dma.c ****     __HAL_DMA_ENABLE(hdma);
 343:Drivers/STM32F1xx_HAL_Driver/Src/stm32f1xx_hal_dma.c ****   }
 344:Drivers/STM32F1xx_HAL_Driver/Src/stm32f1xx_hal_dma.c ****   else
 345:Drivers/STM32F1xx_HAL_Driver/Src/stm32f1xx_hal_dma.c ****   {
 346:Drivers/STM32F1xx_HAL_Driver/Src/stm32f1xx_hal_dma.c ****    /* Process Unlocked */
 347:Drivers/STM32F1xx_HAL_Driver/Src/stm32f1xx_hal_dma.c ****    __HAL_UNLOCK(hdma);  
 505              		.loc 1 347 4 is_stmt 1 view .LVU144
 506              		.loc 1 347 4 view .LVU145
 507 002a 0023     		movs	r3, #0
 508 002c 84F82030 		strb	r3, [r4, #32]
 509              		.loc 1 347 4 view .LVU146
 348:Drivers/STM32F1xx_HAL_Driver/Src/stm32f1xx_hal_dma.c ****    status = HAL_BUSY;
 510              		.loc 1 348 4 view .LVU147
 511              	.LVL23:
 512              		.loc 1 348 11 is_stmt 0 view .LVU148
 513 0030 0220     		movs	r0, #2
 349:Drivers/STM32F1xx_HAL_Driver/Src/stm32f1xx_hal_dma.c ****   }  
 350:Drivers/STM32F1xx_HAL_Driver/Src/stm32f1xx_hal_dma.c ****   return status;
 351:Drivers/STM32F1xx_HAL_Driver/Src/stm32f1xx_hal_dma.c **** }
 514              		.loc 1 351 1 view .LVU149
 515 0032 F8BD     		pop	{r3, r4, r5, r6, r7, pc}
 516              	.LVL24:
 517              	.L75:
 332:Drivers/STM32F1xx_HAL_Driver/Src/stm32f1xx_hal_dma.c ****     hdma->ErrorCode = HAL_DMA_ERROR_NONE;
 518              		.loc 1 332 5 is_stmt 1 view .LVU150
 332:Drivers/STM32F1xx_HAL_Driver/Src/stm32f1xx_hal_dma.c ****     hdma->ErrorCode = HAL_DMA_ERROR_NONE;
 519              		.loc 1 332 17 is_stmt 0 view .LVU151
 520 0034 0223     		movs	r3, #2
 521 0036 84F82130 		strb	r3, [r4, #33]
 333:Drivers/STM32F1xx_HAL_Driver/Src/stm32f1xx_hal_dma.c ****             
 522              		.loc 1 333 5 is_stmt 1 view .LVU152
 333:Drivers/STM32F1xx_HAL_Driver/Src/stm32f1xx_hal_dma.c ****             
 523              		.loc 1 333 21 is_stmt 0 view .LVU153
 524 003a 0023     		movs	r3, #0
 525              	.LBB6:
 526              	.LBB7:
 352:Drivers/STM32F1xx_HAL_Driver/Src/stm32f1xx_hal_dma.c **** 
 353:Drivers/STM32F1xx_HAL_Driver/Src/stm32f1xx_hal_dma.c **** /**
 354:Drivers/STM32F1xx_HAL_Driver/Src/stm32f1xx_hal_dma.c ****   * @brief  Start the DMA Transfer with interrupt enabled.
 355:Drivers/STM32F1xx_HAL_Driver/Src/stm32f1xx_hal_dma.c ****   * @param  hdma: pointer to a DMA_HandleTypeDef structure that contains
 356:Drivers/STM32F1xx_HAL_Driver/Src/stm32f1xx_hal_dma.c ****   *               the configuration information for the specified DMA Channel.
 357:Drivers/STM32F1xx_HAL_Driver/Src/stm32f1xx_hal_dma.c ****   * @param  SrcAddress: The source memory Buffer address
 358:Drivers/STM32F1xx_HAL_Driver/Src/stm32f1xx_hal_dma.c ****   * @param  DstAddress: The destination memory Buffer address
 359:Drivers/STM32F1xx_HAL_Driver/Src/stm32f1xx_hal_dma.c ****   * @param  DataLength: The length of data to be transferred from source to destination
 360:Drivers/STM32F1xx_HAL_Driver/Src/stm32f1xx_hal_dma.c ****   * @retval HAL status
 361:Drivers/STM32F1xx_HAL_Driver/Src/stm32f1xx_hal_dma.c ****   */
 362:Drivers/STM32F1xx_HAL_Driver/Src/stm32f1xx_hal_dma.c **** HAL_StatusTypeDef HAL_DMA_Start_IT(DMA_HandleTypeDef *hdma, uint32_t SrcAddress, uint32_t DstAddres
 363:Drivers/STM32F1xx_HAL_Driver/Src/stm32f1xx_hal_dma.c **** {
 364:Drivers/STM32F1xx_HAL_Driver/Src/stm32f1xx_hal_dma.c ****   HAL_StatusTypeDef status = HAL_OK;
 365:Drivers/STM32F1xx_HAL_Driver/Src/stm32f1xx_hal_dma.c **** 
 366:Drivers/STM32F1xx_HAL_Driver/Src/stm32f1xx_hal_dma.c ****   /* Check the parameters */
 367:Drivers/STM32F1xx_HAL_Driver/Src/stm32f1xx_hal_dma.c ****   assert_param(IS_DMA_BUFFER_SIZE(DataLength));
 368:Drivers/STM32F1xx_HAL_Driver/Src/stm32f1xx_hal_dma.c **** 
 369:Drivers/STM32F1xx_HAL_Driver/Src/stm32f1xx_hal_dma.c ****   /* Process locked */
 370:Drivers/STM32F1xx_HAL_Driver/Src/stm32f1xx_hal_dma.c ****   __HAL_LOCK(hdma);
ARM GAS  C:\Users\WENHUA~1\AppData\Local\Temp\ccQSIM2h.s 			page 18


 371:Drivers/STM32F1xx_HAL_Driver/Src/stm32f1xx_hal_dma.c ****   
 372:Drivers/STM32F1xx_HAL_Driver/Src/stm32f1xx_hal_dma.c ****   if(HAL_DMA_STATE_READY == hdma->State)
 373:Drivers/STM32F1xx_HAL_Driver/Src/stm32f1xx_hal_dma.c ****   {
 374:Drivers/STM32F1xx_HAL_Driver/Src/stm32f1xx_hal_dma.c ****     /* Change DMA peripheral state */
 375:Drivers/STM32F1xx_HAL_Driver/Src/stm32f1xx_hal_dma.c ****     hdma->State = HAL_DMA_STATE_BUSY;
 376:Drivers/STM32F1xx_HAL_Driver/Src/stm32f1xx_hal_dma.c ****     hdma->ErrorCode = HAL_DMA_ERROR_NONE;
 377:Drivers/STM32F1xx_HAL_Driver/Src/stm32f1xx_hal_dma.c ****     
 378:Drivers/STM32F1xx_HAL_Driver/Src/stm32f1xx_hal_dma.c ****     /* Disable the peripheral */
 379:Drivers/STM32F1xx_HAL_Driver/Src/stm32f1xx_hal_dma.c ****     __HAL_DMA_DISABLE(hdma);
 380:Drivers/STM32F1xx_HAL_Driver/Src/stm32f1xx_hal_dma.c ****     
 381:Drivers/STM32F1xx_HAL_Driver/Src/stm32f1xx_hal_dma.c ****     /* Configure the source, destination address and the data length & clear flags*/
 382:Drivers/STM32F1xx_HAL_Driver/Src/stm32f1xx_hal_dma.c ****     DMA_SetConfig(hdma, SrcAddress, DstAddress, DataLength);
 383:Drivers/STM32F1xx_HAL_Driver/Src/stm32f1xx_hal_dma.c ****     
 384:Drivers/STM32F1xx_HAL_Driver/Src/stm32f1xx_hal_dma.c ****     /* Enable the transfer complete interrupt */
 385:Drivers/STM32F1xx_HAL_Driver/Src/stm32f1xx_hal_dma.c ****     /* Enable the transfer Error interrupt */
 386:Drivers/STM32F1xx_HAL_Driver/Src/stm32f1xx_hal_dma.c ****     if(NULL != hdma->XferHalfCpltCallback)
 387:Drivers/STM32F1xx_HAL_Driver/Src/stm32f1xx_hal_dma.c ****     {
 388:Drivers/STM32F1xx_HAL_Driver/Src/stm32f1xx_hal_dma.c ****       /* Enable the Half transfer complete interrupt as well */
 389:Drivers/STM32F1xx_HAL_Driver/Src/stm32f1xx_hal_dma.c ****       __HAL_DMA_ENABLE_IT(hdma, (DMA_IT_TC | DMA_IT_HT | DMA_IT_TE));
 390:Drivers/STM32F1xx_HAL_Driver/Src/stm32f1xx_hal_dma.c ****     }
 391:Drivers/STM32F1xx_HAL_Driver/Src/stm32f1xx_hal_dma.c ****     else
 392:Drivers/STM32F1xx_HAL_Driver/Src/stm32f1xx_hal_dma.c ****     {
 393:Drivers/STM32F1xx_HAL_Driver/Src/stm32f1xx_hal_dma.c ****       __HAL_DMA_DISABLE_IT(hdma, DMA_IT_HT);
 394:Drivers/STM32F1xx_HAL_Driver/Src/stm32f1xx_hal_dma.c ****       __HAL_DMA_ENABLE_IT(hdma, (DMA_IT_TC | DMA_IT_TE));
 395:Drivers/STM32F1xx_HAL_Driver/Src/stm32f1xx_hal_dma.c ****     }
 396:Drivers/STM32F1xx_HAL_Driver/Src/stm32f1xx_hal_dma.c ****     /* Enable the Peripheral */
 397:Drivers/STM32F1xx_HAL_Driver/Src/stm32f1xx_hal_dma.c ****     __HAL_DMA_ENABLE(hdma);
 398:Drivers/STM32F1xx_HAL_Driver/Src/stm32f1xx_hal_dma.c ****   }
 399:Drivers/STM32F1xx_HAL_Driver/Src/stm32f1xx_hal_dma.c ****   else
 400:Drivers/STM32F1xx_HAL_Driver/Src/stm32f1xx_hal_dma.c ****   {      
 401:Drivers/STM32F1xx_HAL_Driver/Src/stm32f1xx_hal_dma.c ****     /* Process Unlocked */
 402:Drivers/STM32F1xx_HAL_Driver/Src/stm32f1xx_hal_dma.c ****     __HAL_UNLOCK(hdma); 
 403:Drivers/STM32F1xx_HAL_Driver/Src/stm32f1xx_hal_dma.c **** 
 404:Drivers/STM32F1xx_HAL_Driver/Src/stm32f1xx_hal_dma.c ****     /* Remain BUSY */
 405:Drivers/STM32F1xx_HAL_Driver/Src/stm32f1xx_hal_dma.c ****     status = HAL_BUSY;
 406:Drivers/STM32F1xx_HAL_Driver/Src/stm32f1xx_hal_dma.c ****   }    
 407:Drivers/STM32F1xx_HAL_Driver/Src/stm32f1xx_hal_dma.c ****   return status;
 408:Drivers/STM32F1xx_HAL_Driver/Src/stm32f1xx_hal_dma.c **** }
 409:Drivers/STM32F1xx_HAL_Driver/Src/stm32f1xx_hal_dma.c **** 
 410:Drivers/STM32F1xx_HAL_Driver/Src/stm32f1xx_hal_dma.c **** /**
 411:Drivers/STM32F1xx_HAL_Driver/Src/stm32f1xx_hal_dma.c ****   * @brief  Abort the DMA Transfer.
 412:Drivers/STM32F1xx_HAL_Driver/Src/stm32f1xx_hal_dma.c ****   * @param  hdma: pointer to a DMA_HandleTypeDef structure that contains
 413:Drivers/STM32F1xx_HAL_Driver/Src/stm32f1xx_hal_dma.c ****   *               the configuration information for the specified DMA Channel.
 414:Drivers/STM32F1xx_HAL_Driver/Src/stm32f1xx_hal_dma.c ****   * @retval HAL status
 415:Drivers/STM32F1xx_HAL_Driver/Src/stm32f1xx_hal_dma.c ****   */
 416:Drivers/STM32F1xx_HAL_Driver/Src/stm32f1xx_hal_dma.c **** HAL_StatusTypeDef HAL_DMA_Abort(DMA_HandleTypeDef *hdma)
 417:Drivers/STM32F1xx_HAL_Driver/Src/stm32f1xx_hal_dma.c **** {
 418:Drivers/STM32F1xx_HAL_Driver/Src/stm32f1xx_hal_dma.c ****   HAL_StatusTypeDef status = HAL_OK;
 419:Drivers/STM32F1xx_HAL_Driver/Src/stm32f1xx_hal_dma.c ****   
 420:Drivers/STM32F1xx_HAL_Driver/Src/stm32f1xx_hal_dma.c ****   if(hdma->State != HAL_DMA_STATE_BUSY)
 421:Drivers/STM32F1xx_HAL_Driver/Src/stm32f1xx_hal_dma.c ****   {
 422:Drivers/STM32F1xx_HAL_Driver/Src/stm32f1xx_hal_dma.c ****     /* no transfer ongoing */
 423:Drivers/STM32F1xx_HAL_Driver/Src/stm32f1xx_hal_dma.c ****     hdma->ErrorCode = HAL_DMA_ERROR_NO_XFER;
 424:Drivers/STM32F1xx_HAL_Driver/Src/stm32f1xx_hal_dma.c ****     
 425:Drivers/STM32F1xx_HAL_Driver/Src/stm32f1xx_hal_dma.c ****     /* Process Unlocked */
 426:Drivers/STM32F1xx_HAL_Driver/Src/stm32f1xx_hal_dma.c ****     __HAL_UNLOCK(hdma);
 427:Drivers/STM32F1xx_HAL_Driver/Src/stm32f1xx_hal_dma.c ****     
ARM GAS  C:\Users\WENHUA~1\AppData\Local\Temp\ccQSIM2h.s 			page 19


 428:Drivers/STM32F1xx_HAL_Driver/Src/stm32f1xx_hal_dma.c ****     return HAL_ERROR;
 429:Drivers/STM32F1xx_HAL_Driver/Src/stm32f1xx_hal_dma.c ****   }
 430:Drivers/STM32F1xx_HAL_Driver/Src/stm32f1xx_hal_dma.c ****   else
 431:Drivers/STM32F1xx_HAL_Driver/Src/stm32f1xx_hal_dma.c **** 
 432:Drivers/STM32F1xx_HAL_Driver/Src/stm32f1xx_hal_dma.c ****   {
 433:Drivers/STM32F1xx_HAL_Driver/Src/stm32f1xx_hal_dma.c ****     /* Disable DMA IT */
 434:Drivers/STM32F1xx_HAL_Driver/Src/stm32f1xx_hal_dma.c ****     __HAL_DMA_DISABLE_IT(hdma, (DMA_IT_TC | DMA_IT_HT | DMA_IT_TE));
 435:Drivers/STM32F1xx_HAL_Driver/Src/stm32f1xx_hal_dma.c ****       
 436:Drivers/STM32F1xx_HAL_Driver/Src/stm32f1xx_hal_dma.c ****     /* Disable the channel */
 437:Drivers/STM32F1xx_HAL_Driver/Src/stm32f1xx_hal_dma.c ****     __HAL_DMA_DISABLE(hdma);
 438:Drivers/STM32F1xx_HAL_Driver/Src/stm32f1xx_hal_dma.c ****       
 439:Drivers/STM32F1xx_HAL_Driver/Src/stm32f1xx_hal_dma.c ****     /* Clear all flags */
 440:Drivers/STM32F1xx_HAL_Driver/Src/stm32f1xx_hal_dma.c ****     hdma->DmaBaseAddress->IFCR = (DMA_ISR_GIF1 << hdma->ChannelIndex);
 441:Drivers/STM32F1xx_HAL_Driver/Src/stm32f1xx_hal_dma.c ****   }
 442:Drivers/STM32F1xx_HAL_Driver/Src/stm32f1xx_hal_dma.c ****   /* Change the DMA state */
 443:Drivers/STM32F1xx_HAL_Driver/Src/stm32f1xx_hal_dma.c ****   hdma->State = HAL_DMA_STATE_READY;
 444:Drivers/STM32F1xx_HAL_Driver/Src/stm32f1xx_hal_dma.c **** 
 445:Drivers/STM32F1xx_HAL_Driver/Src/stm32f1xx_hal_dma.c ****   /* Process Unlocked */
 446:Drivers/STM32F1xx_HAL_Driver/Src/stm32f1xx_hal_dma.c ****   __HAL_UNLOCK(hdma);      
 447:Drivers/STM32F1xx_HAL_Driver/Src/stm32f1xx_hal_dma.c ****   
 448:Drivers/STM32F1xx_HAL_Driver/Src/stm32f1xx_hal_dma.c ****   return status; 
 449:Drivers/STM32F1xx_HAL_Driver/Src/stm32f1xx_hal_dma.c **** }
 450:Drivers/STM32F1xx_HAL_Driver/Src/stm32f1xx_hal_dma.c **** 
 451:Drivers/STM32F1xx_HAL_Driver/Src/stm32f1xx_hal_dma.c **** /**
 452:Drivers/STM32F1xx_HAL_Driver/Src/stm32f1xx_hal_dma.c ****   * @brief  Aborts the DMA Transfer in Interrupt mode.
 453:Drivers/STM32F1xx_HAL_Driver/Src/stm32f1xx_hal_dma.c ****   * @param  hdma  : pointer to a DMA_HandleTypeDef structure that contains
 454:Drivers/STM32F1xx_HAL_Driver/Src/stm32f1xx_hal_dma.c ****   *                 the configuration information for the specified DMA Channel.
 455:Drivers/STM32F1xx_HAL_Driver/Src/stm32f1xx_hal_dma.c ****   * @retval HAL status
 456:Drivers/STM32F1xx_HAL_Driver/Src/stm32f1xx_hal_dma.c ****   */
 457:Drivers/STM32F1xx_HAL_Driver/Src/stm32f1xx_hal_dma.c **** HAL_StatusTypeDef HAL_DMA_Abort_IT(DMA_HandleTypeDef *hdma)
 458:Drivers/STM32F1xx_HAL_Driver/Src/stm32f1xx_hal_dma.c **** {  
 459:Drivers/STM32F1xx_HAL_Driver/Src/stm32f1xx_hal_dma.c ****   HAL_StatusTypeDef status = HAL_OK;
 460:Drivers/STM32F1xx_HAL_Driver/Src/stm32f1xx_hal_dma.c ****   
 461:Drivers/STM32F1xx_HAL_Driver/Src/stm32f1xx_hal_dma.c ****   if(HAL_DMA_STATE_BUSY != hdma->State)
 462:Drivers/STM32F1xx_HAL_Driver/Src/stm32f1xx_hal_dma.c ****   {
 463:Drivers/STM32F1xx_HAL_Driver/Src/stm32f1xx_hal_dma.c ****     /* no transfer ongoing */
 464:Drivers/STM32F1xx_HAL_Driver/Src/stm32f1xx_hal_dma.c ****     hdma->ErrorCode = HAL_DMA_ERROR_NO_XFER;
 465:Drivers/STM32F1xx_HAL_Driver/Src/stm32f1xx_hal_dma.c ****         
 466:Drivers/STM32F1xx_HAL_Driver/Src/stm32f1xx_hal_dma.c ****     status = HAL_ERROR;
 467:Drivers/STM32F1xx_HAL_Driver/Src/stm32f1xx_hal_dma.c ****   }
 468:Drivers/STM32F1xx_HAL_Driver/Src/stm32f1xx_hal_dma.c ****   else
 469:Drivers/STM32F1xx_HAL_Driver/Src/stm32f1xx_hal_dma.c ****   { 
 470:Drivers/STM32F1xx_HAL_Driver/Src/stm32f1xx_hal_dma.c ****     /* Disable DMA IT */
 471:Drivers/STM32F1xx_HAL_Driver/Src/stm32f1xx_hal_dma.c ****     __HAL_DMA_DISABLE_IT(hdma, (DMA_IT_TC | DMA_IT_HT | DMA_IT_TE));
 472:Drivers/STM32F1xx_HAL_Driver/Src/stm32f1xx_hal_dma.c **** 
 473:Drivers/STM32F1xx_HAL_Driver/Src/stm32f1xx_hal_dma.c ****     /* Disable the channel */
 474:Drivers/STM32F1xx_HAL_Driver/Src/stm32f1xx_hal_dma.c ****     __HAL_DMA_DISABLE(hdma);
 475:Drivers/STM32F1xx_HAL_Driver/Src/stm32f1xx_hal_dma.c **** 
 476:Drivers/STM32F1xx_HAL_Driver/Src/stm32f1xx_hal_dma.c ****     /* Clear all flags */
 477:Drivers/STM32F1xx_HAL_Driver/Src/stm32f1xx_hal_dma.c ****     __HAL_DMA_CLEAR_FLAG(hdma, __HAL_DMA_GET_GI_FLAG_INDEX(hdma));
 478:Drivers/STM32F1xx_HAL_Driver/Src/stm32f1xx_hal_dma.c **** 
 479:Drivers/STM32F1xx_HAL_Driver/Src/stm32f1xx_hal_dma.c ****     /* Change the DMA state */
 480:Drivers/STM32F1xx_HAL_Driver/Src/stm32f1xx_hal_dma.c ****     hdma->State = HAL_DMA_STATE_READY;
 481:Drivers/STM32F1xx_HAL_Driver/Src/stm32f1xx_hal_dma.c **** 
 482:Drivers/STM32F1xx_HAL_Driver/Src/stm32f1xx_hal_dma.c ****     /* Process Unlocked */
 483:Drivers/STM32F1xx_HAL_Driver/Src/stm32f1xx_hal_dma.c ****     __HAL_UNLOCK(hdma);
 484:Drivers/STM32F1xx_HAL_Driver/Src/stm32f1xx_hal_dma.c **** 
ARM GAS  C:\Users\WENHUA~1\AppData\Local\Temp\ccQSIM2h.s 			page 20


 485:Drivers/STM32F1xx_HAL_Driver/Src/stm32f1xx_hal_dma.c ****     /* Call User Abort callback */
 486:Drivers/STM32F1xx_HAL_Driver/Src/stm32f1xx_hal_dma.c ****     if(hdma->XferAbortCallback != NULL)
 487:Drivers/STM32F1xx_HAL_Driver/Src/stm32f1xx_hal_dma.c ****     {
 488:Drivers/STM32F1xx_HAL_Driver/Src/stm32f1xx_hal_dma.c ****       hdma->XferAbortCallback(hdma);
 489:Drivers/STM32F1xx_HAL_Driver/Src/stm32f1xx_hal_dma.c ****     } 
 490:Drivers/STM32F1xx_HAL_Driver/Src/stm32f1xx_hal_dma.c ****   }
 491:Drivers/STM32F1xx_HAL_Driver/Src/stm32f1xx_hal_dma.c ****   return status;
 492:Drivers/STM32F1xx_HAL_Driver/Src/stm32f1xx_hal_dma.c **** }
 493:Drivers/STM32F1xx_HAL_Driver/Src/stm32f1xx_hal_dma.c **** 
 494:Drivers/STM32F1xx_HAL_Driver/Src/stm32f1xx_hal_dma.c **** /**
 495:Drivers/STM32F1xx_HAL_Driver/Src/stm32f1xx_hal_dma.c ****   * @brief  Polling for transfer complete.
 496:Drivers/STM32F1xx_HAL_Driver/Src/stm32f1xx_hal_dma.c ****   * @param  hdma:    pointer to a DMA_HandleTypeDef structure that contains
 497:Drivers/STM32F1xx_HAL_Driver/Src/stm32f1xx_hal_dma.c ****   *                  the configuration information for the specified DMA Channel.
 498:Drivers/STM32F1xx_HAL_Driver/Src/stm32f1xx_hal_dma.c ****   * @param  CompleteLevel: Specifies the DMA level complete.
 499:Drivers/STM32F1xx_HAL_Driver/Src/stm32f1xx_hal_dma.c ****   * @param  Timeout:       Timeout duration.
 500:Drivers/STM32F1xx_HAL_Driver/Src/stm32f1xx_hal_dma.c ****   * @retval HAL status
 501:Drivers/STM32F1xx_HAL_Driver/Src/stm32f1xx_hal_dma.c ****   */
 502:Drivers/STM32F1xx_HAL_Driver/Src/stm32f1xx_hal_dma.c **** HAL_StatusTypeDef HAL_DMA_PollForTransfer(DMA_HandleTypeDef *hdma, uint32_t CompleteLevel, uint32_t
 503:Drivers/STM32F1xx_HAL_Driver/Src/stm32f1xx_hal_dma.c **** {
 504:Drivers/STM32F1xx_HAL_Driver/Src/stm32f1xx_hal_dma.c ****   uint32_t temp;
 505:Drivers/STM32F1xx_HAL_Driver/Src/stm32f1xx_hal_dma.c ****   uint32_t tickstart = 0U;
 506:Drivers/STM32F1xx_HAL_Driver/Src/stm32f1xx_hal_dma.c **** 
 507:Drivers/STM32F1xx_HAL_Driver/Src/stm32f1xx_hal_dma.c ****   if(HAL_DMA_STATE_BUSY != hdma->State)
 508:Drivers/STM32F1xx_HAL_Driver/Src/stm32f1xx_hal_dma.c ****   {
 509:Drivers/STM32F1xx_HAL_Driver/Src/stm32f1xx_hal_dma.c ****     /* no transfer ongoing */
 510:Drivers/STM32F1xx_HAL_Driver/Src/stm32f1xx_hal_dma.c ****     hdma->ErrorCode = HAL_DMA_ERROR_NO_XFER;
 511:Drivers/STM32F1xx_HAL_Driver/Src/stm32f1xx_hal_dma.c ****     __HAL_UNLOCK(hdma);
 512:Drivers/STM32F1xx_HAL_Driver/Src/stm32f1xx_hal_dma.c ****     return HAL_ERROR;
 513:Drivers/STM32F1xx_HAL_Driver/Src/stm32f1xx_hal_dma.c ****   }
 514:Drivers/STM32F1xx_HAL_Driver/Src/stm32f1xx_hal_dma.c **** 
 515:Drivers/STM32F1xx_HAL_Driver/Src/stm32f1xx_hal_dma.c ****   /* Polling mode not supported in circular mode */
 516:Drivers/STM32F1xx_HAL_Driver/Src/stm32f1xx_hal_dma.c ****   if (RESET != (hdma->Instance->CCR & DMA_CCR_CIRC))
 517:Drivers/STM32F1xx_HAL_Driver/Src/stm32f1xx_hal_dma.c ****   {
 518:Drivers/STM32F1xx_HAL_Driver/Src/stm32f1xx_hal_dma.c ****     hdma->ErrorCode = HAL_DMA_ERROR_NOT_SUPPORTED;
 519:Drivers/STM32F1xx_HAL_Driver/Src/stm32f1xx_hal_dma.c ****     return HAL_ERROR;
 520:Drivers/STM32F1xx_HAL_Driver/Src/stm32f1xx_hal_dma.c ****   }
 521:Drivers/STM32F1xx_HAL_Driver/Src/stm32f1xx_hal_dma.c ****   
 522:Drivers/STM32F1xx_HAL_Driver/Src/stm32f1xx_hal_dma.c ****   /* Get the level transfer complete flag */
 523:Drivers/STM32F1xx_HAL_Driver/Src/stm32f1xx_hal_dma.c ****   if(CompleteLevel == HAL_DMA_FULL_TRANSFER)
 524:Drivers/STM32F1xx_HAL_Driver/Src/stm32f1xx_hal_dma.c ****   {
 525:Drivers/STM32F1xx_HAL_Driver/Src/stm32f1xx_hal_dma.c ****     /* Transfer Complete flag */
 526:Drivers/STM32F1xx_HAL_Driver/Src/stm32f1xx_hal_dma.c ****     temp = __HAL_DMA_GET_TC_FLAG_INDEX(hdma);
 527:Drivers/STM32F1xx_HAL_Driver/Src/stm32f1xx_hal_dma.c ****   }
 528:Drivers/STM32F1xx_HAL_Driver/Src/stm32f1xx_hal_dma.c ****   else
 529:Drivers/STM32F1xx_HAL_Driver/Src/stm32f1xx_hal_dma.c ****   {
 530:Drivers/STM32F1xx_HAL_Driver/Src/stm32f1xx_hal_dma.c ****     /* Half Transfer Complete flag */
 531:Drivers/STM32F1xx_HAL_Driver/Src/stm32f1xx_hal_dma.c ****     temp = __HAL_DMA_GET_HT_FLAG_INDEX(hdma);
 532:Drivers/STM32F1xx_HAL_Driver/Src/stm32f1xx_hal_dma.c ****   }
 533:Drivers/STM32F1xx_HAL_Driver/Src/stm32f1xx_hal_dma.c **** 
 534:Drivers/STM32F1xx_HAL_Driver/Src/stm32f1xx_hal_dma.c ****   /* Get tick */
 535:Drivers/STM32F1xx_HAL_Driver/Src/stm32f1xx_hal_dma.c ****   tickstart = HAL_GetTick();
 536:Drivers/STM32F1xx_HAL_Driver/Src/stm32f1xx_hal_dma.c **** 
 537:Drivers/STM32F1xx_HAL_Driver/Src/stm32f1xx_hal_dma.c ****   while(__HAL_DMA_GET_FLAG(hdma, temp) == RESET)
 538:Drivers/STM32F1xx_HAL_Driver/Src/stm32f1xx_hal_dma.c ****   {
 539:Drivers/STM32F1xx_HAL_Driver/Src/stm32f1xx_hal_dma.c ****     if((__HAL_DMA_GET_FLAG(hdma, __HAL_DMA_GET_TE_FLAG_INDEX(hdma)) != RESET))
 540:Drivers/STM32F1xx_HAL_Driver/Src/stm32f1xx_hal_dma.c ****     {
 541:Drivers/STM32F1xx_HAL_Driver/Src/stm32f1xx_hal_dma.c ****       /* When a DMA transfer error occurs */
ARM GAS  C:\Users\WENHUA~1\AppData\Local\Temp\ccQSIM2h.s 			page 21


 542:Drivers/STM32F1xx_HAL_Driver/Src/stm32f1xx_hal_dma.c ****       /* A hardware clear of its EN bits is performed */
 543:Drivers/STM32F1xx_HAL_Driver/Src/stm32f1xx_hal_dma.c ****       /* Clear all flags */
 544:Drivers/STM32F1xx_HAL_Driver/Src/stm32f1xx_hal_dma.c ****       hdma->DmaBaseAddress->IFCR = (DMA_ISR_GIF1 << hdma->ChannelIndex);
 545:Drivers/STM32F1xx_HAL_Driver/Src/stm32f1xx_hal_dma.c **** 
 546:Drivers/STM32F1xx_HAL_Driver/Src/stm32f1xx_hal_dma.c ****       /* Update error code */
 547:Drivers/STM32F1xx_HAL_Driver/Src/stm32f1xx_hal_dma.c ****       SET_BIT(hdma->ErrorCode, HAL_DMA_ERROR_TE);
 548:Drivers/STM32F1xx_HAL_Driver/Src/stm32f1xx_hal_dma.c **** 
 549:Drivers/STM32F1xx_HAL_Driver/Src/stm32f1xx_hal_dma.c ****       /* Change the DMA state */
 550:Drivers/STM32F1xx_HAL_Driver/Src/stm32f1xx_hal_dma.c ****       hdma->State= HAL_DMA_STATE_READY;
 551:Drivers/STM32F1xx_HAL_Driver/Src/stm32f1xx_hal_dma.c **** 
 552:Drivers/STM32F1xx_HAL_Driver/Src/stm32f1xx_hal_dma.c ****       /* Process Unlocked */
 553:Drivers/STM32F1xx_HAL_Driver/Src/stm32f1xx_hal_dma.c ****       __HAL_UNLOCK(hdma);
 554:Drivers/STM32F1xx_HAL_Driver/Src/stm32f1xx_hal_dma.c **** 
 555:Drivers/STM32F1xx_HAL_Driver/Src/stm32f1xx_hal_dma.c ****       return HAL_ERROR;
 556:Drivers/STM32F1xx_HAL_Driver/Src/stm32f1xx_hal_dma.c ****     }
 557:Drivers/STM32F1xx_HAL_Driver/Src/stm32f1xx_hal_dma.c ****     /* Check for the Timeout */
 558:Drivers/STM32F1xx_HAL_Driver/Src/stm32f1xx_hal_dma.c ****     if(Timeout != HAL_MAX_DELAY)
 559:Drivers/STM32F1xx_HAL_Driver/Src/stm32f1xx_hal_dma.c ****     {
 560:Drivers/STM32F1xx_HAL_Driver/Src/stm32f1xx_hal_dma.c ****       if((Timeout == 0U) || ((HAL_GetTick() - tickstart) > Timeout))
 561:Drivers/STM32F1xx_HAL_Driver/Src/stm32f1xx_hal_dma.c ****       {
 562:Drivers/STM32F1xx_HAL_Driver/Src/stm32f1xx_hal_dma.c ****         /* Update error code */
 563:Drivers/STM32F1xx_HAL_Driver/Src/stm32f1xx_hal_dma.c ****         SET_BIT(hdma->ErrorCode, HAL_DMA_ERROR_TIMEOUT);
 564:Drivers/STM32F1xx_HAL_Driver/Src/stm32f1xx_hal_dma.c **** 
 565:Drivers/STM32F1xx_HAL_Driver/Src/stm32f1xx_hal_dma.c ****         /* Change the DMA state */
 566:Drivers/STM32F1xx_HAL_Driver/Src/stm32f1xx_hal_dma.c ****         hdma->State = HAL_DMA_STATE_READY;
 567:Drivers/STM32F1xx_HAL_Driver/Src/stm32f1xx_hal_dma.c **** 
 568:Drivers/STM32F1xx_HAL_Driver/Src/stm32f1xx_hal_dma.c ****         /* Process Unlocked */
 569:Drivers/STM32F1xx_HAL_Driver/Src/stm32f1xx_hal_dma.c ****         __HAL_UNLOCK(hdma);
 570:Drivers/STM32F1xx_HAL_Driver/Src/stm32f1xx_hal_dma.c **** 
 571:Drivers/STM32F1xx_HAL_Driver/Src/stm32f1xx_hal_dma.c ****         return HAL_ERROR;
 572:Drivers/STM32F1xx_HAL_Driver/Src/stm32f1xx_hal_dma.c ****       }
 573:Drivers/STM32F1xx_HAL_Driver/Src/stm32f1xx_hal_dma.c ****     }
 574:Drivers/STM32F1xx_HAL_Driver/Src/stm32f1xx_hal_dma.c ****   }
 575:Drivers/STM32F1xx_HAL_Driver/Src/stm32f1xx_hal_dma.c **** 
 576:Drivers/STM32F1xx_HAL_Driver/Src/stm32f1xx_hal_dma.c ****   if(CompleteLevel == HAL_DMA_FULL_TRANSFER)
 577:Drivers/STM32F1xx_HAL_Driver/Src/stm32f1xx_hal_dma.c ****   {
 578:Drivers/STM32F1xx_HAL_Driver/Src/stm32f1xx_hal_dma.c ****     /* Clear the transfer complete flag */
 579:Drivers/STM32F1xx_HAL_Driver/Src/stm32f1xx_hal_dma.c ****     __HAL_DMA_CLEAR_FLAG(hdma, __HAL_DMA_GET_TC_FLAG_INDEX(hdma));
 580:Drivers/STM32F1xx_HAL_Driver/Src/stm32f1xx_hal_dma.c **** 
 581:Drivers/STM32F1xx_HAL_Driver/Src/stm32f1xx_hal_dma.c ****     /* The selected Channelx EN bit is cleared (DMA is disabled and
 582:Drivers/STM32F1xx_HAL_Driver/Src/stm32f1xx_hal_dma.c ****     all transfers are complete) */
 583:Drivers/STM32F1xx_HAL_Driver/Src/stm32f1xx_hal_dma.c ****     hdma->State = HAL_DMA_STATE_READY;
 584:Drivers/STM32F1xx_HAL_Driver/Src/stm32f1xx_hal_dma.c ****   }
 585:Drivers/STM32F1xx_HAL_Driver/Src/stm32f1xx_hal_dma.c ****   else
 586:Drivers/STM32F1xx_HAL_Driver/Src/stm32f1xx_hal_dma.c ****   {
 587:Drivers/STM32F1xx_HAL_Driver/Src/stm32f1xx_hal_dma.c ****     /* Clear the half transfer complete flag */
 588:Drivers/STM32F1xx_HAL_Driver/Src/stm32f1xx_hal_dma.c ****     __HAL_DMA_CLEAR_FLAG(hdma, __HAL_DMA_GET_HT_FLAG_INDEX(hdma));
 589:Drivers/STM32F1xx_HAL_Driver/Src/stm32f1xx_hal_dma.c ****   }
 590:Drivers/STM32F1xx_HAL_Driver/Src/stm32f1xx_hal_dma.c ****   
 591:Drivers/STM32F1xx_HAL_Driver/Src/stm32f1xx_hal_dma.c ****   /* Process unlocked */
 592:Drivers/STM32F1xx_HAL_Driver/Src/stm32f1xx_hal_dma.c ****   __HAL_UNLOCK(hdma);
 593:Drivers/STM32F1xx_HAL_Driver/Src/stm32f1xx_hal_dma.c **** 
 594:Drivers/STM32F1xx_HAL_Driver/Src/stm32f1xx_hal_dma.c ****   return HAL_OK;
 595:Drivers/STM32F1xx_HAL_Driver/Src/stm32f1xx_hal_dma.c **** }
 596:Drivers/STM32F1xx_HAL_Driver/Src/stm32f1xx_hal_dma.c **** 
 597:Drivers/STM32F1xx_HAL_Driver/Src/stm32f1xx_hal_dma.c **** /**
 598:Drivers/STM32F1xx_HAL_Driver/Src/stm32f1xx_hal_dma.c ****   * @brief  Handles DMA interrupt request.
ARM GAS  C:\Users\WENHUA~1\AppData\Local\Temp\ccQSIM2h.s 			page 22


 599:Drivers/STM32F1xx_HAL_Driver/Src/stm32f1xx_hal_dma.c ****   * @param  hdma: pointer to a DMA_HandleTypeDef structure that contains
 600:Drivers/STM32F1xx_HAL_Driver/Src/stm32f1xx_hal_dma.c ****   *               the configuration information for the specified DMA Channel.  
 601:Drivers/STM32F1xx_HAL_Driver/Src/stm32f1xx_hal_dma.c ****   * @retval None
 602:Drivers/STM32F1xx_HAL_Driver/Src/stm32f1xx_hal_dma.c ****   */
 603:Drivers/STM32F1xx_HAL_Driver/Src/stm32f1xx_hal_dma.c **** void HAL_DMA_IRQHandler(DMA_HandleTypeDef *hdma)
 604:Drivers/STM32F1xx_HAL_Driver/Src/stm32f1xx_hal_dma.c **** {
 605:Drivers/STM32F1xx_HAL_Driver/Src/stm32f1xx_hal_dma.c ****   uint32_t flag_it = hdma->DmaBaseAddress->ISR;
 606:Drivers/STM32F1xx_HAL_Driver/Src/stm32f1xx_hal_dma.c ****   uint32_t source_it = hdma->Instance->CCR;
 607:Drivers/STM32F1xx_HAL_Driver/Src/stm32f1xx_hal_dma.c ****   
 608:Drivers/STM32F1xx_HAL_Driver/Src/stm32f1xx_hal_dma.c ****   /* Half Transfer Complete Interrupt management ******************************/
 609:Drivers/STM32F1xx_HAL_Driver/Src/stm32f1xx_hal_dma.c ****   if (((flag_it & (DMA_FLAG_HT1 << hdma->ChannelIndex)) != RESET) && ((source_it & DMA_IT_HT) != RE
 610:Drivers/STM32F1xx_HAL_Driver/Src/stm32f1xx_hal_dma.c ****   {
 611:Drivers/STM32F1xx_HAL_Driver/Src/stm32f1xx_hal_dma.c ****     /* Disable the half transfer interrupt if the DMA mode is not CIRCULAR */
 612:Drivers/STM32F1xx_HAL_Driver/Src/stm32f1xx_hal_dma.c ****     if((hdma->Instance->CCR & DMA_CCR_CIRC) == 0U)
 613:Drivers/STM32F1xx_HAL_Driver/Src/stm32f1xx_hal_dma.c ****     {
 614:Drivers/STM32F1xx_HAL_Driver/Src/stm32f1xx_hal_dma.c ****       /* Disable the half transfer interrupt */
 615:Drivers/STM32F1xx_HAL_Driver/Src/stm32f1xx_hal_dma.c ****       __HAL_DMA_DISABLE_IT(hdma, DMA_IT_HT);
 616:Drivers/STM32F1xx_HAL_Driver/Src/stm32f1xx_hal_dma.c ****     }
 617:Drivers/STM32F1xx_HAL_Driver/Src/stm32f1xx_hal_dma.c ****     /* Clear the half transfer complete flag */
 618:Drivers/STM32F1xx_HAL_Driver/Src/stm32f1xx_hal_dma.c ****     __HAL_DMA_CLEAR_FLAG(hdma, __HAL_DMA_GET_HT_FLAG_INDEX(hdma));
 619:Drivers/STM32F1xx_HAL_Driver/Src/stm32f1xx_hal_dma.c **** 
 620:Drivers/STM32F1xx_HAL_Driver/Src/stm32f1xx_hal_dma.c ****     /* DMA peripheral state is not updated in Half Transfer */
 621:Drivers/STM32F1xx_HAL_Driver/Src/stm32f1xx_hal_dma.c ****     /* but in Transfer Complete case */
 622:Drivers/STM32F1xx_HAL_Driver/Src/stm32f1xx_hal_dma.c **** 
 623:Drivers/STM32F1xx_HAL_Driver/Src/stm32f1xx_hal_dma.c ****     if(hdma->XferHalfCpltCallback != NULL)
 624:Drivers/STM32F1xx_HAL_Driver/Src/stm32f1xx_hal_dma.c ****     {
 625:Drivers/STM32F1xx_HAL_Driver/Src/stm32f1xx_hal_dma.c ****       /* Half transfer callback */
 626:Drivers/STM32F1xx_HAL_Driver/Src/stm32f1xx_hal_dma.c ****       hdma->XferHalfCpltCallback(hdma);
 627:Drivers/STM32F1xx_HAL_Driver/Src/stm32f1xx_hal_dma.c ****     }
 628:Drivers/STM32F1xx_HAL_Driver/Src/stm32f1xx_hal_dma.c ****   }
 629:Drivers/STM32F1xx_HAL_Driver/Src/stm32f1xx_hal_dma.c **** 
 630:Drivers/STM32F1xx_HAL_Driver/Src/stm32f1xx_hal_dma.c ****   /* Transfer Complete Interrupt management ***********************************/
 631:Drivers/STM32F1xx_HAL_Driver/Src/stm32f1xx_hal_dma.c ****   else if (((flag_it & (DMA_FLAG_TC1 << hdma->ChannelIndex)) != RESET) && ((source_it & DMA_IT_TC) 
 632:Drivers/STM32F1xx_HAL_Driver/Src/stm32f1xx_hal_dma.c ****   {
 633:Drivers/STM32F1xx_HAL_Driver/Src/stm32f1xx_hal_dma.c ****     if((hdma->Instance->CCR & DMA_CCR_CIRC) == 0U)
 634:Drivers/STM32F1xx_HAL_Driver/Src/stm32f1xx_hal_dma.c ****     {
 635:Drivers/STM32F1xx_HAL_Driver/Src/stm32f1xx_hal_dma.c ****       /* Disable the transfer complete and error interrupt */
 636:Drivers/STM32F1xx_HAL_Driver/Src/stm32f1xx_hal_dma.c ****       __HAL_DMA_DISABLE_IT(hdma, DMA_IT_TE | DMA_IT_TC);  
 637:Drivers/STM32F1xx_HAL_Driver/Src/stm32f1xx_hal_dma.c **** 
 638:Drivers/STM32F1xx_HAL_Driver/Src/stm32f1xx_hal_dma.c ****       /* Change the DMA state */
 639:Drivers/STM32F1xx_HAL_Driver/Src/stm32f1xx_hal_dma.c ****       hdma->State = HAL_DMA_STATE_READY;
 640:Drivers/STM32F1xx_HAL_Driver/Src/stm32f1xx_hal_dma.c ****     }
 641:Drivers/STM32F1xx_HAL_Driver/Src/stm32f1xx_hal_dma.c ****     /* Clear the transfer complete flag */
 642:Drivers/STM32F1xx_HAL_Driver/Src/stm32f1xx_hal_dma.c ****       __HAL_DMA_CLEAR_FLAG(hdma, __HAL_DMA_GET_TC_FLAG_INDEX(hdma));
 643:Drivers/STM32F1xx_HAL_Driver/Src/stm32f1xx_hal_dma.c **** 
 644:Drivers/STM32F1xx_HAL_Driver/Src/stm32f1xx_hal_dma.c ****     /* Process Unlocked */
 645:Drivers/STM32F1xx_HAL_Driver/Src/stm32f1xx_hal_dma.c ****     __HAL_UNLOCK(hdma);
 646:Drivers/STM32F1xx_HAL_Driver/Src/stm32f1xx_hal_dma.c **** 
 647:Drivers/STM32F1xx_HAL_Driver/Src/stm32f1xx_hal_dma.c ****     if(hdma->XferCpltCallback != NULL)
 648:Drivers/STM32F1xx_HAL_Driver/Src/stm32f1xx_hal_dma.c ****     {
 649:Drivers/STM32F1xx_HAL_Driver/Src/stm32f1xx_hal_dma.c ****       /* Transfer complete callback */
 650:Drivers/STM32F1xx_HAL_Driver/Src/stm32f1xx_hal_dma.c ****       hdma->XferCpltCallback(hdma);
 651:Drivers/STM32F1xx_HAL_Driver/Src/stm32f1xx_hal_dma.c ****     }
 652:Drivers/STM32F1xx_HAL_Driver/Src/stm32f1xx_hal_dma.c ****   }
 653:Drivers/STM32F1xx_HAL_Driver/Src/stm32f1xx_hal_dma.c **** 
 654:Drivers/STM32F1xx_HAL_Driver/Src/stm32f1xx_hal_dma.c ****   /* Transfer Error Interrupt management **************************************/
 655:Drivers/STM32F1xx_HAL_Driver/Src/stm32f1xx_hal_dma.c ****   else if (( RESET != (flag_it & (DMA_FLAG_TE1 << hdma->ChannelIndex))) && (RESET != (source_it & D
ARM GAS  C:\Users\WENHUA~1\AppData\Local\Temp\ccQSIM2h.s 			page 23


 656:Drivers/STM32F1xx_HAL_Driver/Src/stm32f1xx_hal_dma.c ****   {
 657:Drivers/STM32F1xx_HAL_Driver/Src/stm32f1xx_hal_dma.c ****     /* When a DMA transfer error occurs */
 658:Drivers/STM32F1xx_HAL_Driver/Src/stm32f1xx_hal_dma.c ****     /* A hardware clear of its EN bits is performed */
 659:Drivers/STM32F1xx_HAL_Driver/Src/stm32f1xx_hal_dma.c ****     /* Disable ALL DMA IT */
 660:Drivers/STM32F1xx_HAL_Driver/Src/stm32f1xx_hal_dma.c ****     __HAL_DMA_DISABLE_IT(hdma, (DMA_IT_TC | DMA_IT_HT | DMA_IT_TE));
 661:Drivers/STM32F1xx_HAL_Driver/Src/stm32f1xx_hal_dma.c **** 
 662:Drivers/STM32F1xx_HAL_Driver/Src/stm32f1xx_hal_dma.c ****     /* Clear all flags */
 663:Drivers/STM32F1xx_HAL_Driver/Src/stm32f1xx_hal_dma.c ****     hdma->DmaBaseAddress->IFCR = (DMA_ISR_GIF1 << hdma->ChannelIndex);
 664:Drivers/STM32F1xx_HAL_Driver/Src/stm32f1xx_hal_dma.c **** 
 665:Drivers/STM32F1xx_HAL_Driver/Src/stm32f1xx_hal_dma.c ****     /* Update error code */
 666:Drivers/STM32F1xx_HAL_Driver/Src/stm32f1xx_hal_dma.c ****     hdma->ErrorCode = HAL_DMA_ERROR_TE;
 667:Drivers/STM32F1xx_HAL_Driver/Src/stm32f1xx_hal_dma.c **** 
 668:Drivers/STM32F1xx_HAL_Driver/Src/stm32f1xx_hal_dma.c ****     /* Change the DMA state */
 669:Drivers/STM32F1xx_HAL_Driver/Src/stm32f1xx_hal_dma.c ****     hdma->State = HAL_DMA_STATE_READY;
 670:Drivers/STM32F1xx_HAL_Driver/Src/stm32f1xx_hal_dma.c **** 
 671:Drivers/STM32F1xx_HAL_Driver/Src/stm32f1xx_hal_dma.c ****     /* Process Unlocked */
 672:Drivers/STM32F1xx_HAL_Driver/Src/stm32f1xx_hal_dma.c ****     __HAL_UNLOCK(hdma);
 673:Drivers/STM32F1xx_HAL_Driver/Src/stm32f1xx_hal_dma.c **** 
 674:Drivers/STM32F1xx_HAL_Driver/Src/stm32f1xx_hal_dma.c ****     if (hdma->XferErrorCallback != NULL)
 675:Drivers/STM32F1xx_HAL_Driver/Src/stm32f1xx_hal_dma.c ****     {
 676:Drivers/STM32F1xx_HAL_Driver/Src/stm32f1xx_hal_dma.c ****       /* Transfer error callback */
 677:Drivers/STM32F1xx_HAL_Driver/Src/stm32f1xx_hal_dma.c ****       hdma->XferErrorCallback(hdma);
 678:Drivers/STM32F1xx_HAL_Driver/Src/stm32f1xx_hal_dma.c ****     }
 679:Drivers/STM32F1xx_HAL_Driver/Src/stm32f1xx_hal_dma.c ****   }
 680:Drivers/STM32F1xx_HAL_Driver/Src/stm32f1xx_hal_dma.c ****   return;
 681:Drivers/STM32F1xx_HAL_Driver/Src/stm32f1xx_hal_dma.c **** }
 682:Drivers/STM32F1xx_HAL_Driver/Src/stm32f1xx_hal_dma.c **** 
 683:Drivers/STM32F1xx_HAL_Driver/Src/stm32f1xx_hal_dma.c **** /**
 684:Drivers/STM32F1xx_HAL_Driver/Src/stm32f1xx_hal_dma.c ****   * @brief Register callbacks
 685:Drivers/STM32F1xx_HAL_Driver/Src/stm32f1xx_hal_dma.c ****   * @param hdma: pointer to a DMA_HandleTypeDef structure that contains
 686:Drivers/STM32F1xx_HAL_Driver/Src/stm32f1xx_hal_dma.c ****   *              the configuration information for the specified DMA Channel.
 687:Drivers/STM32F1xx_HAL_Driver/Src/stm32f1xx_hal_dma.c ****   * @param CallbackID: User Callback identifer
 688:Drivers/STM32F1xx_HAL_Driver/Src/stm32f1xx_hal_dma.c ****   *                    a HAL_DMA_CallbackIDTypeDef ENUM as parameter.
 689:Drivers/STM32F1xx_HAL_Driver/Src/stm32f1xx_hal_dma.c ****   * @param pCallback: pointer to private callbacsk function which has pointer to 
 690:Drivers/STM32F1xx_HAL_Driver/Src/stm32f1xx_hal_dma.c ****   *                   a DMA_HandleTypeDef structure as parameter.
 691:Drivers/STM32F1xx_HAL_Driver/Src/stm32f1xx_hal_dma.c ****   * @retval HAL status
 692:Drivers/STM32F1xx_HAL_Driver/Src/stm32f1xx_hal_dma.c ****   */                          
 693:Drivers/STM32F1xx_HAL_Driver/Src/stm32f1xx_hal_dma.c **** HAL_StatusTypeDef HAL_DMA_RegisterCallback(DMA_HandleTypeDef *hdma, HAL_DMA_CallbackIDTypeDef Callb
 694:Drivers/STM32F1xx_HAL_Driver/Src/stm32f1xx_hal_dma.c **** {
 695:Drivers/STM32F1xx_HAL_Driver/Src/stm32f1xx_hal_dma.c ****   HAL_StatusTypeDef status = HAL_OK;
 696:Drivers/STM32F1xx_HAL_Driver/Src/stm32f1xx_hal_dma.c ****   
 697:Drivers/STM32F1xx_HAL_Driver/Src/stm32f1xx_hal_dma.c ****   /* Process locked */
 698:Drivers/STM32F1xx_HAL_Driver/Src/stm32f1xx_hal_dma.c ****   __HAL_LOCK(hdma);
 699:Drivers/STM32F1xx_HAL_Driver/Src/stm32f1xx_hal_dma.c ****   
 700:Drivers/STM32F1xx_HAL_Driver/Src/stm32f1xx_hal_dma.c ****   if(HAL_DMA_STATE_READY == hdma->State)
 701:Drivers/STM32F1xx_HAL_Driver/Src/stm32f1xx_hal_dma.c ****   {
 702:Drivers/STM32F1xx_HAL_Driver/Src/stm32f1xx_hal_dma.c ****     switch (CallbackID)
 703:Drivers/STM32F1xx_HAL_Driver/Src/stm32f1xx_hal_dma.c ****     {
 704:Drivers/STM32F1xx_HAL_Driver/Src/stm32f1xx_hal_dma.c ****     case  HAL_DMA_XFER_CPLT_CB_ID:
 705:Drivers/STM32F1xx_HAL_Driver/Src/stm32f1xx_hal_dma.c ****       hdma->XferCpltCallback = pCallback;
 706:Drivers/STM32F1xx_HAL_Driver/Src/stm32f1xx_hal_dma.c ****       break;
 707:Drivers/STM32F1xx_HAL_Driver/Src/stm32f1xx_hal_dma.c ****       
 708:Drivers/STM32F1xx_HAL_Driver/Src/stm32f1xx_hal_dma.c ****     case  HAL_DMA_XFER_HALFCPLT_CB_ID:
 709:Drivers/STM32F1xx_HAL_Driver/Src/stm32f1xx_hal_dma.c ****       hdma->XferHalfCpltCallback = pCallback;
 710:Drivers/STM32F1xx_HAL_Driver/Src/stm32f1xx_hal_dma.c ****       break;         
 711:Drivers/STM32F1xx_HAL_Driver/Src/stm32f1xx_hal_dma.c **** 
 712:Drivers/STM32F1xx_HAL_Driver/Src/stm32f1xx_hal_dma.c ****     case  HAL_DMA_XFER_ERROR_CB_ID:
ARM GAS  C:\Users\WENHUA~1\AppData\Local\Temp\ccQSIM2h.s 			page 24


 713:Drivers/STM32F1xx_HAL_Driver/Src/stm32f1xx_hal_dma.c ****       hdma->XferErrorCallback = pCallback;
 714:Drivers/STM32F1xx_HAL_Driver/Src/stm32f1xx_hal_dma.c ****       break;         
 715:Drivers/STM32F1xx_HAL_Driver/Src/stm32f1xx_hal_dma.c ****       
 716:Drivers/STM32F1xx_HAL_Driver/Src/stm32f1xx_hal_dma.c ****     case  HAL_DMA_XFER_ABORT_CB_ID:
 717:Drivers/STM32F1xx_HAL_Driver/Src/stm32f1xx_hal_dma.c ****       hdma->XferAbortCallback = pCallback;
 718:Drivers/STM32F1xx_HAL_Driver/Src/stm32f1xx_hal_dma.c ****       break; 
 719:Drivers/STM32F1xx_HAL_Driver/Src/stm32f1xx_hal_dma.c ****       
 720:Drivers/STM32F1xx_HAL_Driver/Src/stm32f1xx_hal_dma.c ****     default:
 721:Drivers/STM32F1xx_HAL_Driver/Src/stm32f1xx_hal_dma.c ****       status = HAL_ERROR;
 722:Drivers/STM32F1xx_HAL_Driver/Src/stm32f1xx_hal_dma.c ****       break;                                                            
 723:Drivers/STM32F1xx_HAL_Driver/Src/stm32f1xx_hal_dma.c ****     }
 724:Drivers/STM32F1xx_HAL_Driver/Src/stm32f1xx_hal_dma.c ****   }
 725:Drivers/STM32F1xx_HAL_Driver/Src/stm32f1xx_hal_dma.c ****   else
 726:Drivers/STM32F1xx_HAL_Driver/Src/stm32f1xx_hal_dma.c ****   {
 727:Drivers/STM32F1xx_HAL_Driver/Src/stm32f1xx_hal_dma.c ****     status = HAL_ERROR;
 728:Drivers/STM32F1xx_HAL_Driver/Src/stm32f1xx_hal_dma.c ****   } 
 729:Drivers/STM32F1xx_HAL_Driver/Src/stm32f1xx_hal_dma.c ****   
 730:Drivers/STM32F1xx_HAL_Driver/Src/stm32f1xx_hal_dma.c ****   /* Release Lock */
 731:Drivers/STM32F1xx_HAL_Driver/Src/stm32f1xx_hal_dma.c ****   __HAL_UNLOCK(hdma);
 732:Drivers/STM32F1xx_HAL_Driver/Src/stm32f1xx_hal_dma.c ****   
 733:Drivers/STM32F1xx_HAL_Driver/Src/stm32f1xx_hal_dma.c ****   return status;
 734:Drivers/STM32F1xx_HAL_Driver/Src/stm32f1xx_hal_dma.c **** }
 735:Drivers/STM32F1xx_HAL_Driver/Src/stm32f1xx_hal_dma.c **** 
 736:Drivers/STM32F1xx_HAL_Driver/Src/stm32f1xx_hal_dma.c **** /**
 737:Drivers/STM32F1xx_HAL_Driver/Src/stm32f1xx_hal_dma.c ****   * @brief UnRegister callbacks
 738:Drivers/STM32F1xx_HAL_Driver/Src/stm32f1xx_hal_dma.c ****   * @param hdma: pointer to a DMA_HandleTypeDef structure that contains
 739:Drivers/STM32F1xx_HAL_Driver/Src/stm32f1xx_hal_dma.c ****   *              the configuration information for the specified DMA Channel.
 740:Drivers/STM32F1xx_HAL_Driver/Src/stm32f1xx_hal_dma.c ****   * @param CallbackID: User Callback identifer
 741:Drivers/STM32F1xx_HAL_Driver/Src/stm32f1xx_hal_dma.c ****   *                    a HAL_DMA_CallbackIDTypeDef ENUM as parameter.
 742:Drivers/STM32F1xx_HAL_Driver/Src/stm32f1xx_hal_dma.c ****   * @retval HAL status
 743:Drivers/STM32F1xx_HAL_Driver/Src/stm32f1xx_hal_dma.c ****   */              
 744:Drivers/STM32F1xx_HAL_Driver/Src/stm32f1xx_hal_dma.c **** HAL_StatusTypeDef HAL_DMA_UnRegisterCallback(DMA_HandleTypeDef *hdma, HAL_DMA_CallbackIDTypeDef Cal
 745:Drivers/STM32F1xx_HAL_Driver/Src/stm32f1xx_hal_dma.c **** {
 746:Drivers/STM32F1xx_HAL_Driver/Src/stm32f1xx_hal_dma.c ****   HAL_StatusTypeDef status = HAL_OK;
 747:Drivers/STM32F1xx_HAL_Driver/Src/stm32f1xx_hal_dma.c **** 
 748:Drivers/STM32F1xx_HAL_Driver/Src/stm32f1xx_hal_dma.c ****   /* Process locked */
 749:Drivers/STM32F1xx_HAL_Driver/Src/stm32f1xx_hal_dma.c ****   __HAL_LOCK(hdma);
 750:Drivers/STM32F1xx_HAL_Driver/Src/stm32f1xx_hal_dma.c ****   
 751:Drivers/STM32F1xx_HAL_Driver/Src/stm32f1xx_hal_dma.c ****   if(HAL_DMA_STATE_READY == hdma->State)
 752:Drivers/STM32F1xx_HAL_Driver/Src/stm32f1xx_hal_dma.c ****   {
 753:Drivers/STM32F1xx_HAL_Driver/Src/stm32f1xx_hal_dma.c ****     switch (CallbackID)
 754:Drivers/STM32F1xx_HAL_Driver/Src/stm32f1xx_hal_dma.c ****     {
 755:Drivers/STM32F1xx_HAL_Driver/Src/stm32f1xx_hal_dma.c ****     case  HAL_DMA_XFER_CPLT_CB_ID:
 756:Drivers/STM32F1xx_HAL_Driver/Src/stm32f1xx_hal_dma.c ****       hdma->XferCpltCallback = NULL;
 757:Drivers/STM32F1xx_HAL_Driver/Src/stm32f1xx_hal_dma.c ****       break;
 758:Drivers/STM32F1xx_HAL_Driver/Src/stm32f1xx_hal_dma.c **** 
 759:Drivers/STM32F1xx_HAL_Driver/Src/stm32f1xx_hal_dma.c ****     case  HAL_DMA_XFER_HALFCPLT_CB_ID:
 760:Drivers/STM32F1xx_HAL_Driver/Src/stm32f1xx_hal_dma.c ****       hdma->XferHalfCpltCallback = NULL;
 761:Drivers/STM32F1xx_HAL_Driver/Src/stm32f1xx_hal_dma.c ****       break;         
 762:Drivers/STM32F1xx_HAL_Driver/Src/stm32f1xx_hal_dma.c **** 
 763:Drivers/STM32F1xx_HAL_Driver/Src/stm32f1xx_hal_dma.c ****     case  HAL_DMA_XFER_ERROR_CB_ID:
 764:Drivers/STM32F1xx_HAL_Driver/Src/stm32f1xx_hal_dma.c ****       hdma->XferErrorCallback = NULL;
 765:Drivers/STM32F1xx_HAL_Driver/Src/stm32f1xx_hal_dma.c ****       break;         
 766:Drivers/STM32F1xx_HAL_Driver/Src/stm32f1xx_hal_dma.c **** 
 767:Drivers/STM32F1xx_HAL_Driver/Src/stm32f1xx_hal_dma.c ****     case  HAL_DMA_XFER_ABORT_CB_ID:
 768:Drivers/STM32F1xx_HAL_Driver/Src/stm32f1xx_hal_dma.c ****       hdma->XferAbortCallback = NULL;
 769:Drivers/STM32F1xx_HAL_Driver/Src/stm32f1xx_hal_dma.c ****       break; 
ARM GAS  C:\Users\WENHUA~1\AppData\Local\Temp\ccQSIM2h.s 			page 25


 770:Drivers/STM32F1xx_HAL_Driver/Src/stm32f1xx_hal_dma.c **** 
 771:Drivers/STM32F1xx_HAL_Driver/Src/stm32f1xx_hal_dma.c ****     case   HAL_DMA_XFER_ALL_CB_ID:
 772:Drivers/STM32F1xx_HAL_Driver/Src/stm32f1xx_hal_dma.c ****       hdma->XferCpltCallback = NULL;
 773:Drivers/STM32F1xx_HAL_Driver/Src/stm32f1xx_hal_dma.c ****       hdma->XferHalfCpltCallback = NULL;
 774:Drivers/STM32F1xx_HAL_Driver/Src/stm32f1xx_hal_dma.c ****       hdma->XferErrorCallback = NULL;
 775:Drivers/STM32F1xx_HAL_Driver/Src/stm32f1xx_hal_dma.c ****       hdma->XferAbortCallback = NULL;
 776:Drivers/STM32F1xx_HAL_Driver/Src/stm32f1xx_hal_dma.c ****       break; 
 777:Drivers/STM32F1xx_HAL_Driver/Src/stm32f1xx_hal_dma.c **** 
 778:Drivers/STM32F1xx_HAL_Driver/Src/stm32f1xx_hal_dma.c ****     default:
 779:Drivers/STM32F1xx_HAL_Driver/Src/stm32f1xx_hal_dma.c ****       status = HAL_ERROR;
 780:Drivers/STM32F1xx_HAL_Driver/Src/stm32f1xx_hal_dma.c ****       break;
 781:Drivers/STM32F1xx_HAL_Driver/Src/stm32f1xx_hal_dma.c ****     }
 782:Drivers/STM32F1xx_HAL_Driver/Src/stm32f1xx_hal_dma.c ****   }
 783:Drivers/STM32F1xx_HAL_Driver/Src/stm32f1xx_hal_dma.c ****   else
 784:Drivers/STM32F1xx_HAL_Driver/Src/stm32f1xx_hal_dma.c ****   {
 785:Drivers/STM32F1xx_HAL_Driver/Src/stm32f1xx_hal_dma.c ****     status = HAL_ERROR;
 786:Drivers/STM32F1xx_HAL_Driver/Src/stm32f1xx_hal_dma.c ****   } 
 787:Drivers/STM32F1xx_HAL_Driver/Src/stm32f1xx_hal_dma.c ****   
 788:Drivers/STM32F1xx_HAL_Driver/Src/stm32f1xx_hal_dma.c ****   /* Release Lock */
 789:Drivers/STM32F1xx_HAL_Driver/Src/stm32f1xx_hal_dma.c ****   __HAL_UNLOCK(hdma);
 790:Drivers/STM32F1xx_HAL_Driver/Src/stm32f1xx_hal_dma.c ****   
 791:Drivers/STM32F1xx_HAL_Driver/Src/stm32f1xx_hal_dma.c ****   return status;
 792:Drivers/STM32F1xx_HAL_Driver/Src/stm32f1xx_hal_dma.c **** }
 793:Drivers/STM32F1xx_HAL_Driver/Src/stm32f1xx_hal_dma.c ****   
 794:Drivers/STM32F1xx_HAL_Driver/Src/stm32f1xx_hal_dma.c **** /**
 795:Drivers/STM32F1xx_HAL_Driver/Src/stm32f1xx_hal_dma.c ****   * @}
 796:Drivers/STM32F1xx_HAL_Driver/Src/stm32f1xx_hal_dma.c ****   */
 797:Drivers/STM32F1xx_HAL_Driver/Src/stm32f1xx_hal_dma.c **** 
 798:Drivers/STM32F1xx_HAL_Driver/Src/stm32f1xx_hal_dma.c **** /** @defgroup DMA_Exported_Functions_Group3 Peripheral State and Errors functions
 799:Drivers/STM32F1xx_HAL_Driver/Src/stm32f1xx_hal_dma.c ****   *  @brief    Peripheral State and Errors functions
 800:Drivers/STM32F1xx_HAL_Driver/Src/stm32f1xx_hal_dma.c ****   *
 801:Drivers/STM32F1xx_HAL_Driver/Src/stm32f1xx_hal_dma.c **** @verbatim
 802:Drivers/STM32F1xx_HAL_Driver/Src/stm32f1xx_hal_dma.c ****  ===============================================================================
 803:Drivers/STM32F1xx_HAL_Driver/Src/stm32f1xx_hal_dma.c ****             ##### Peripheral State and Errors functions #####
 804:Drivers/STM32F1xx_HAL_Driver/Src/stm32f1xx_hal_dma.c ****  ===============================================================================  
 805:Drivers/STM32F1xx_HAL_Driver/Src/stm32f1xx_hal_dma.c ****     [..]
 806:Drivers/STM32F1xx_HAL_Driver/Src/stm32f1xx_hal_dma.c ****     This subsection provides functions allowing to
 807:Drivers/STM32F1xx_HAL_Driver/Src/stm32f1xx_hal_dma.c ****       (+) Check the DMA state
 808:Drivers/STM32F1xx_HAL_Driver/Src/stm32f1xx_hal_dma.c ****       (+) Get error code
 809:Drivers/STM32F1xx_HAL_Driver/Src/stm32f1xx_hal_dma.c **** 
 810:Drivers/STM32F1xx_HAL_Driver/Src/stm32f1xx_hal_dma.c **** @endverbatim
 811:Drivers/STM32F1xx_HAL_Driver/Src/stm32f1xx_hal_dma.c ****   * @{
 812:Drivers/STM32F1xx_HAL_Driver/Src/stm32f1xx_hal_dma.c ****   */
 813:Drivers/STM32F1xx_HAL_Driver/Src/stm32f1xx_hal_dma.c **** 
 814:Drivers/STM32F1xx_HAL_Driver/Src/stm32f1xx_hal_dma.c **** /**
 815:Drivers/STM32F1xx_HAL_Driver/Src/stm32f1xx_hal_dma.c ****   * @brief  Return the DMA hande state.
 816:Drivers/STM32F1xx_HAL_Driver/Src/stm32f1xx_hal_dma.c ****   * @param  hdma: pointer to a DMA_HandleTypeDef structure that contains
 817:Drivers/STM32F1xx_HAL_Driver/Src/stm32f1xx_hal_dma.c ****   *               the configuration information for the specified DMA Channel.
 818:Drivers/STM32F1xx_HAL_Driver/Src/stm32f1xx_hal_dma.c ****   * @retval HAL state
 819:Drivers/STM32F1xx_HAL_Driver/Src/stm32f1xx_hal_dma.c ****   */
 820:Drivers/STM32F1xx_HAL_Driver/Src/stm32f1xx_hal_dma.c **** HAL_DMA_StateTypeDef HAL_DMA_GetState(DMA_HandleTypeDef *hdma)
 821:Drivers/STM32F1xx_HAL_Driver/Src/stm32f1xx_hal_dma.c **** {
 822:Drivers/STM32F1xx_HAL_Driver/Src/stm32f1xx_hal_dma.c ****   /* Return DMA handle state */
 823:Drivers/STM32F1xx_HAL_Driver/Src/stm32f1xx_hal_dma.c ****   return hdma->State;
 824:Drivers/STM32F1xx_HAL_Driver/Src/stm32f1xx_hal_dma.c **** }
 825:Drivers/STM32F1xx_HAL_Driver/Src/stm32f1xx_hal_dma.c **** 
 826:Drivers/STM32F1xx_HAL_Driver/Src/stm32f1xx_hal_dma.c **** /**
ARM GAS  C:\Users\WENHUA~1\AppData\Local\Temp\ccQSIM2h.s 			page 26


 827:Drivers/STM32F1xx_HAL_Driver/Src/stm32f1xx_hal_dma.c ****   * @brief  Return the DMA error code.
 828:Drivers/STM32F1xx_HAL_Driver/Src/stm32f1xx_hal_dma.c ****   * @param  hdma : pointer to a DMA_HandleTypeDef structure that contains
 829:Drivers/STM32F1xx_HAL_Driver/Src/stm32f1xx_hal_dma.c ****   *              the configuration information for the specified DMA Channel.
 830:Drivers/STM32F1xx_HAL_Driver/Src/stm32f1xx_hal_dma.c ****   * @retval DMA Error Code
 831:Drivers/STM32F1xx_HAL_Driver/Src/stm32f1xx_hal_dma.c ****   */
 832:Drivers/STM32F1xx_HAL_Driver/Src/stm32f1xx_hal_dma.c **** uint32_t HAL_DMA_GetError(DMA_HandleTypeDef *hdma)
 833:Drivers/STM32F1xx_HAL_Driver/Src/stm32f1xx_hal_dma.c **** {
 834:Drivers/STM32F1xx_HAL_Driver/Src/stm32f1xx_hal_dma.c ****   return hdma->ErrorCode;
 835:Drivers/STM32F1xx_HAL_Driver/Src/stm32f1xx_hal_dma.c **** }
 836:Drivers/STM32F1xx_HAL_Driver/Src/stm32f1xx_hal_dma.c **** 
 837:Drivers/STM32F1xx_HAL_Driver/Src/stm32f1xx_hal_dma.c **** /**
 838:Drivers/STM32F1xx_HAL_Driver/Src/stm32f1xx_hal_dma.c ****   * @}
 839:Drivers/STM32F1xx_HAL_Driver/Src/stm32f1xx_hal_dma.c ****   */
 840:Drivers/STM32F1xx_HAL_Driver/Src/stm32f1xx_hal_dma.c **** 
 841:Drivers/STM32F1xx_HAL_Driver/Src/stm32f1xx_hal_dma.c **** /**
 842:Drivers/STM32F1xx_HAL_Driver/Src/stm32f1xx_hal_dma.c ****   * @}
 843:Drivers/STM32F1xx_HAL_Driver/Src/stm32f1xx_hal_dma.c ****   */
 844:Drivers/STM32F1xx_HAL_Driver/Src/stm32f1xx_hal_dma.c **** 
 845:Drivers/STM32F1xx_HAL_Driver/Src/stm32f1xx_hal_dma.c **** /** @addtogroup DMA_Private_Functions
 846:Drivers/STM32F1xx_HAL_Driver/Src/stm32f1xx_hal_dma.c ****   * @{
 847:Drivers/STM32F1xx_HAL_Driver/Src/stm32f1xx_hal_dma.c ****   */
 848:Drivers/STM32F1xx_HAL_Driver/Src/stm32f1xx_hal_dma.c **** 
 849:Drivers/STM32F1xx_HAL_Driver/Src/stm32f1xx_hal_dma.c **** /**
 850:Drivers/STM32F1xx_HAL_Driver/Src/stm32f1xx_hal_dma.c ****   * @brief  Sets the DMA Transfer parameter.
 851:Drivers/STM32F1xx_HAL_Driver/Src/stm32f1xx_hal_dma.c ****   * @param  hdma:       pointer to a DMA_HandleTypeDef structure that contains
 852:Drivers/STM32F1xx_HAL_Driver/Src/stm32f1xx_hal_dma.c ****   *                     the configuration information for the specified DMA Channel.
 853:Drivers/STM32F1xx_HAL_Driver/Src/stm32f1xx_hal_dma.c ****   * @param  SrcAddress: The source memory Buffer address
 854:Drivers/STM32F1xx_HAL_Driver/Src/stm32f1xx_hal_dma.c ****   * @param  DstAddress: The destination memory Buffer address
 855:Drivers/STM32F1xx_HAL_Driver/Src/stm32f1xx_hal_dma.c ****   * @param  DataLength: The length of data to be transferred from source to destination
 856:Drivers/STM32F1xx_HAL_Driver/Src/stm32f1xx_hal_dma.c ****   * @retval HAL status
 857:Drivers/STM32F1xx_HAL_Driver/Src/stm32f1xx_hal_dma.c ****   */
 858:Drivers/STM32F1xx_HAL_Driver/Src/stm32f1xx_hal_dma.c **** static void DMA_SetConfig(DMA_HandleTypeDef *hdma, uint32_t SrcAddress, uint32_t DstAddress, uint32
 859:Drivers/STM32F1xx_HAL_Driver/Src/stm32f1xx_hal_dma.c **** {
 860:Drivers/STM32F1xx_HAL_Driver/Src/stm32f1xx_hal_dma.c ****   /* Clear all flags */
 861:Drivers/STM32F1xx_HAL_Driver/Src/stm32f1xx_hal_dma.c ****   hdma->DmaBaseAddress->IFCR = (DMA_ISR_GIF1 << hdma->ChannelIndex);
 527              		.loc 1 861 46 view .LVU154
 528 003c 226C     		ldr	r2, [r4, #64]
 529              	.LBE7:
 530              	.LBE6:
 333:Drivers/STM32F1xx_HAL_Driver/Src/stm32f1xx_hal_dma.c ****             
 531              		.loc 1 333 21 view .LVU155
 532 003e A363     		str	r3, [r4, #56]
 336:Drivers/STM32F1xx_HAL_Driver/Src/stm32f1xx_hal_dma.c ****     
 533              		.loc 1 336 5 is_stmt 1 view .LVU156
 534 0040 2368     		ldr	r3, [r4]
 535              	.LBB10:
 536              	.LBB8:
 537              		.loc 1 861 46 is_stmt 0 view .LVU157
 538 0042 9040     		lsls	r0, r0, r2
 539              	.LBE8:
 540              	.LBE10:
 336:Drivers/STM32F1xx_HAL_Driver/Src/stm32f1xx_hal_dma.c ****     
 541              		.loc 1 336 5 view .LVU158
 542 0044 1A68     		ldr	r2, [r3]
 543 0046 22F00102 		bic	r2, r2, #1
 544 004a 1A60     		str	r2, [r3]
 339:Drivers/STM32F1xx_HAL_Driver/Src/stm32f1xx_hal_dma.c ****     
ARM GAS  C:\Users\WENHUA~1\AppData\Local\Temp\ccQSIM2h.s 			page 27


 545              		.loc 1 339 5 is_stmt 1 view .LVU159
 546              	.LVL25:
 547              	.LBB11:
 548              	.LBI6:
 858:Drivers/STM32F1xx_HAL_Driver/Src/stm32f1xx_hal_dma.c **** {
 549              		.loc 1 858 13 view .LVU160
 550              	.LBB9:
 551              		.loc 1 861 3 view .LVU161
 552              		.loc 1 861 7 is_stmt 0 view .LVU162
 553 004c E26B     		ldr	r2, [r4, #60]
 554              		.loc 1 861 30 view .LVU163
 555 004e 5060     		str	r0, [r2, #4]
 862:Drivers/STM32F1xx_HAL_Driver/Src/stm32f1xx_hal_dma.c **** 
 863:Drivers/STM32F1xx_HAL_Driver/Src/stm32f1xx_hal_dma.c ****   /* Configure DMA Channel data length */
 864:Drivers/STM32F1xx_HAL_Driver/Src/stm32f1xx_hal_dma.c ****   hdma->Instance->CNDTR = DataLength;
 556              		.loc 1 864 3 is_stmt 1 view .LVU164
 865:Drivers/STM32F1xx_HAL_Driver/Src/stm32f1xx_hal_dma.c **** 
 866:Drivers/STM32F1xx_HAL_Driver/Src/stm32f1xx_hal_dma.c ****   /* Memory to Peripheral */
 867:Drivers/STM32F1xx_HAL_Driver/Src/stm32f1xx_hal_dma.c ****   if((hdma->Init.Direction) == DMA_MEMORY_TO_PERIPH)
 557              		.loc 1 867 5 is_stmt 0 view .LVU165
 558 0050 6268     		ldr	r2, [r4, #4]
 864:Drivers/STM32F1xx_HAL_Driver/Src/stm32f1xx_hal_dma.c **** 
 559              		.loc 1 864 25 view .LVU166
 560 0052 5D60     		str	r5, [r3, #4]
 561              		.loc 1 867 3 is_stmt 1 view .LVU167
 562              		.loc 1 867 5 is_stmt 0 view .LVU168
 563 0054 102A     		cmp	r2, #16
 868:Drivers/STM32F1xx_HAL_Driver/Src/stm32f1xx_hal_dma.c ****   {
 869:Drivers/STM32F1xx_HAL_Driver/Src/stm32f1xx_hal_dma.c ****     /* Configure DMA Channel destination address */
 870:Drivers/STM32F1xx_HAL_Driver/Src/stm32f1xx_hal_dma.c ****     hdma->Instance->CPAR = DstAddress;
 564              		.loc 1 870 5 is_stmt 1 view .LVU169
 565              		.loc 1 870 26 is_stmt 0 view .LVU170
 566 0056 0BBF     		itete	eq
 567 0058 9F60     		streq	r7, [r3, #8]
 871:Drivers/STM32F1xx_HAL_Driver/Src/stm32f1xx_hal_dma.c **** 
 872:Drivers/STM32F1xx_HAL_Driver/Src/stm32f1xx_hal_dma.c ****     /* Configure DMA Channel source address */
 873:Drivers/STM32F1xx_HAL_Driver/Src/stm32f1xx_hal_dma.c ****     hdma->Instance->CMAR = SrcAddress;
 568              		.loc 1 873 5 is_stmt 1 view .LVU171
 874:Drivers/STM32F1xx_HAL_Driver/Src/stm32f1xx_hal_dma.c ****   }
 875:Drivers/STM32F1xx_HAL_Driver/Src/stm32f1xx_hal_dma.c ****   /* Peripheral to Memory */
 876:Drivers/STM32F1xx_HAL_Driver/Src/stm32f1xx_hal_dma.c ****   else
 877:Drivers/STM32F1xx_HAL_Driver/Src/stm32f1xx_hal_dma.c ****   {
 878:Drivers/STM32F1xx_HAL_Driver/Src/stm32f1xx_hal_dma.c ****     /* Configure DMA Channel source address */
 879:Drivers/STM32F1xx_HAL_Driver/Src/stm32f1xx_hal_dma.c ****     hdma->Instance->CPAR = SrcAddress;
 569              		.loc 1 879 26 is_stmt 0 view .LVU172
 570 005a 9E60     		strne	r6, [r3, #8]
 873:Drivers/STM32F1xx_HAL_Driver/Src/stm32f1xx_hal_dma.c ****   }
 571              		.loc 1 873 26 view .LVU173
 572 005c DE60     		streq	r6, [r3, #12]
 573              		.loc 1 879 5 is_stmt 1 view .LVU174
 880:Drivers/STM32F1xx_HAL_Driver/Src/stm32f1xx_hal_dma.c **** 
 881:Drivers/STM32F1xx_HAL_Driver/Src/stm32f1xx_hal_dma.c ****     /* Configure DMA Channel destination address */
 882:Drivers/STM32F1xx_HAL_Driver/Src/stm32f1xx_hal_dma.c ****     hdma->Instance->CMAR = DstAddress;
 574              		.loc 1 882 5 view .LVU175
 575              		.loc 1 882 26 is_stmt 0 view .LVU176
 576 005e DF60     		strne	r7, [r3, #12]
 577              	.LVL26:
ARM GAS  C:\Users\WENHUA~1\AppData\Local\Temp\ccQSIM2h.s 			page 28


 578              		.loc 1 882 26 view .LVU177
 579              	.LBE9:
 580              	.LBE11:
 342:Drivers/STM32F1xx_HAL_Driver/Src/stm32f1xx_hal_dma.c ****   }
 581              		.loc 1 342 5 is_stmt 1 view .LVU178
 582 0060 1A68     		ldr	r2, [r3]
 321:Drivers/STM32F1xx_HAL_Driver/Src/stm32f1xx_hal_dma.c **** 
 583              		.loc 1 321 21 is_stmt 0 view .LVU179
 584 0062 0020     		movs	r0, #0
 342:Drivers/STM32F1xx_HAL_Driver/Src/stm32f1xx_hal_dma.c ****   }
 585              		.loc 1 342 5 view .LVU180
 586 0064 42F00102 		orr	r2, r2, #1
 587 0068 1A60     		str	r2, [r3]
 588              	.LVL27:
 351:Drivers/STM32F1xx_HAL_Driver/Src/stm32f1xx_hal_dma.c **** 
 589              		.loc 1 351 1 view .LVU181
 590 006a F8BD     		pop	{r3, r4, r5, r6, r7, pc}
 591              	.LVL28:
 592              	.L74:
 324:Drivers/STM32F1xx_HAL_Driver/Src/stm32f1xx_hal_dma.c **** 
 593              		.loc 1 324 3 discriminator 1 view .LVU182
 594 006c 4FF4A271 		mov	r1, #324
 595              	.LVL29:
 324:Drivers/STM32F1xx_HAL_Driver/Src/stm32f1xx_hal_dma.c **** 
 596              		.loc 1 324 3 discriminator 1 view .LVU183
 597 0070 0448     		ldr	r0, .L77
 598              	.LVL30:
 324:Drivers/STM32F1xx_HAL_Driver/Src/stm32f1xx_hal_dma.c **** 
 599              		.loc 1 324 3 discriminator 1 view .LVU184
 600 0072 FFF7FEFF 		bl	assert_failed
 601              	.LVL31:
 327:Drivers/STM32F1xx_HAL_Driver/Src/stm32f1xx_hal_dma.c **** 
 602              		.loc 1 327 3 is_stmt 1 discriminator 1 view .LVU185
 327:Drivers/STM32F1xx_HAL_Driver/Src/stm32f1xx_hal_dma.c **** 
 603              		.loc 1 327 3 discriminator 1 view .LVU186
 604 0076 94F82030 		ldrb	r3, [r4, #32]	@ zero_extendqisi2
 605 007a 012B     		cmp	r3, #1
 606 007c CED1     		bne	.L76
 607              	.L72:
 327:Drivers/STM32F1xx_HAL_Driver/Src/stm32f1xx_hal_dma.c **** 
 608              		.loc 1 327 3 is_stmt 0 view .LVU187
 609 007e 0220     		movs	r0, #2
 610              	.LVL32:
 351:Drivers/STM32F1xx_HAL_Driver/Src/stm32f1xx_hal_dma.c **** 
 611              		.loc 1 351 1 view .LVU188
 612 0080 F8BD     		pop	{r3, r4, r5, r6, r7, pc}
 613              	.LVL33:
 614              	.L78:
 351:Drivers/STM32F1xx_HAL_Driver/Src/stm32f1xx_hal_dma.c **** 
 615              		.loc 1 351 1 view .LVU189
 616 0082 00BF     		.align	2
 617              	.L77:
 618 0084 00000000 		.word	.LC0
 619              		.cfi_endproc
 620              	.LFE67:
 622              		.section	.text.HAL_DMA_Start_IT,"ax",%progbits
 623              		.align	1
ARM GAS  C:\Users\WENHUA~1\AppData\Local\Temp\ccQSIM2h.s 			page 29


 624              		.p2align 2,,3
 625              		.global	HAL_DMA_Start_IT
 626              		.syntax unified
 627              		.thumb
 628              		.thumb_func
 630              	HAL_DMA_Start_IT:
 631              	.LVL34:
 632              	.LFB68:
 363:Drivers/STM32F1xx_HAL_Driver/Src/stm32f1xx_hal_dma.c ****   HAL_StatusTypeDef status = HAL_OK;
 633              		.loc 1 363 1 is_stmt 1 view -0
 634              		.cfi_startproc
 635              		@ args = 0, pretend = 0, frame = 0
 636              		@ frame_needed = 0, uses_anonymous_args = 0
 364:Drivers/STM32F1xx_HAL_Driver/Src/stm32f1xx_hal_dma.c **** 
 637              		.loc 1 364 3 view .LVU191
 367:Drivers/STM32F1xx_HAL_Driver/Src/stm32f1xx_hal_dma.c **** 
 638              		.loc 1 367 3 view .LVU192
 363:Drivers/STM32F1xx_HAL_Driver/Src/stm32f1xx_hal_dma.c ****   HAL_StatusTypeDef status = HAL_OK;
 639              		.loc 1 363 1 is_stmt 0 view .LVU193
 640 0000 2DE9F041 		push	{r4, r5, r6, r7, r8, lr}
 641              	.LCFI5:
 642              		.cfi_def_cfa_offset 24
 643              		.cfi_offset 4, -24
 644              		.cfi_offset 5, -20
 645              		.cfi_offset 6, -16
 646              		.cfi_offset 7, -12
 647              		.cfi_offset 8, -8
 648              		.cfi_offset 14, -4
 367:Drivers/STM32F1xx_HAL_Driver/Src/stm32f1xx_hal_dma.c **** 
 649              		.loc 1 367 3 view .LVU194
 650 0004 4FF6FE75 		movw	r5, #65534
 363:Drivers/STM32F1xx_HAL_Driver/Src/stm32f1xx_hal_dma.c ****   HAL_StatusTypeDef status = HAL_OK;
 651              		.loc 1 363 1 view .LVU195
 652 0008 1E46     		mov	r6, r3
 367:Drivers/STM32F1xx_HAL_Driver/Src/stm32f1xx_hal_dma.c **** 
 653              		.loc 1 367 3 view .LVU196
 654 000a 013B     		subs	r3, r3, #1
 655              	.LVL35:
 367:Drivers/STM32F1xx_HAL_Driver/Src/stm32f1xx_hal_dma.c **** 
 656              		.loc 1 367 3 view .LVU197
 657 000c AB42     		cmp	r3, r5
 363:Drivers/STM32F1xx_HAL_Driver/Src/stm32f1xx_hal_dma.c ****   HAL_StatusTypeDef status = HAL_OK;
 658              		.loc 1 363 1 view .LVU198
 659 000e 0446     		mov	r4, r0
 660 0010 0F46     		mov	r7, r1
 661 0012 9046     		mov	r8, r2
 367:Drivers/STM32F1xx_HAL_Driver/Src/stm32f1xx_hal_dma.c **** 
 662              		.loc 1 367 3 view .LVU199
 663 0014 35D8     		bhi	.L89
 370:Drivers/STM32F1xx_HAL_Driver/Src/stm32f1xx_hal_dma.c ****   
 664              		.loc 1 370 3 is_stmt 1 view .LVU200
 370:Drivers/STM32F1xx_HAL_Driver/Src/stm32f1xx_hal_dma.c ****   
 665              		.loc 1 370 3 view .LVU201
 666 0016 94F82030 		ldrb	r3, [r4, #32]	@ zero_extendqisi2
 667 001a 012B     		cmp	r3, #1
 668 001c 3AD0     		beq	.L87
 669              	.LVL36:
ARM GAS  C:\Users\WENHUA~1\AppData\Local\Temp\ccQSIM2h.s 			page 30


 670              	.L91:
 370:Drivers/STM32F1xx_HAL_Driver/Src/stm32f1xx_hal_dma.c ****   
 671              		.loc 1 370 3 discriminator 2 view .LVU202
 672 001e 0122     		movs	r2, #1
 372:Drivers/STM32F1xx_HAL_Driver/Src/stm32f1xx_hal_dma.c ****   {
 673              		.loc 1 372 5 is_stmt 0 discriminator 2 view .LVU203
 674 0020 94F82130 		ldrb	r3, [r4, #33]	@ zero_extendqisi2
 370:Drivers/STM32F1xx_HAL_Driver/Src/stm32f1xx_hal_dma.c ****   
 675              		.loc 1 370 3 discriminator 2 view .LVU204
 676 0024 84F82020 		strb	r2, [r4, #32]
 370:Drivers/STM32F1xx_HAL_Driver/Src/stm32f1xx_hal_dma.c ****   
 677              		.loc 1 370 3 is_stmt 1 discriminator 2 view .LVU205
 372:Drivers/STM32F1xx_HAL_Driver/Src/stm32f1xx_hal_dma.c ****   {
 678              		.loc 1 372 3 discriminator 2 view .LVU206
 372:Drivers/STM32F1xx_HAL_Driver/Src/stm32f1xx_hal_dma.c ****   {
 679              		.loc 1 372 5 is_stmt 0 discriminator 2 view .LVU207
 680 0028 9342     		cmp	r3, r2
 681 002a 05D0     		beq	.L90
 402:Drivers/STM32F1xx_HAL_Driver/Src/stm32f1xx_hal_dma.c **** 
 682              		.loc 1 402 5 is_stmt 1 view .LVU208
 402:Drivers/STM32F1xx_HAL_Driver/Src/stm32f1xx_hal_dma.c **** 
 683              		.loc 1 402 5 view .LVU209
 684 002c 0023     		movs	r3, #0
 685 002e 84F82030 		strb	r3, [r4, #32]
 402:Drivers/STM32F1xx_HAL_Driver/Src/stm32f1xx_hal_dma.c **** 
 686              		.loc 1 402 5 view .LVU210
 405:Drivers/STM32F1xx_HAL_Driver/Src/stm32f1xx_hal_dma.c ****   }    
 687              		.loc 1 405 5 view .LVU211
 688              	.LVL37:
 405:Drivers/STM32F1xx_HAL_Driver/Src/stm32f1xx_hal_dma.c ****   }    
 689              		.loc 1 405 12 is_stmt 0 view .LVU212
 690 0032 0220     		movs	r0, #2
 408:Drivers/STM32F1xx_HAL_Driver/Src/stm32f1xx_hal_dma.c **** 
 691              		.loc 1 408 1 view .LVU213
 692 0034 BDE8F081 		pop	{r4, r5, r6, r7, r8, pc}
 693              	.LVL38:
 694              	.L90:
 375:Drivers/STM32F1xx_HAL_Driver/Src/stm32f1xx_hal_dma.c ****     hdma->ErrorCode = HAL_DMA_ERROR_NONE;
 695              		.loc 1 375 5 is_stmt 1 view .LVU214
 375:Drivers/STM32F1xx_HAL_Driver/Src/stm32f1xx_hal_dma.c ****     hdma->ErrorCode = HAL_DMA_ERROR_NONE;
 696              		.loc 1 375 17 is_stmt 0 view .LVU215
 697 0038 0222     		movs	r2, #2
 698 003a 84F82120 		strb	r2, [r4, #33]
 376:Drivers/STM32F1xx_HAL_Driver/Src/stm32f1xx_hal_dma.c ****     
 699              		.loc 1 376 5 is_stmt 1 view .LVU216
 376:Drivers/STM32F1xx_HAL_Driver/Src/stm32f1xx_hal_dma.c ****     
 700              		.loc 1 376 21 is_stmt 0 view .LVU217
 701 003e 0022     		movs	r2, #0
 379:Drivers/STM32F1xx_HAL_Driver/Src/stm32f1xx_hal_dma.c ****     
 702              		.loc 1 379 5 view .LVU218
 703 0040 2568     		ldr	r5, [r4]
 376:Drivers/STM32F1xx_HAL_Driver/Src/stm32f1xx_hal_dma.c ****     
 704              		.loc 1 376 21 view .LVU219
 705 0042 A263     		str	r2, [r4, #56]
 379:Drivers/STM32F1xx_HAL_Driver/Src/stm32f1xx_hal_dma.c ****     
 706              		.loc 1 379 5 is_stmt 1 view .LVU220
 707              	.LBB12:
ARM GAS  C:\Users\WENHUA~1\AppData\Local\Temp\ccQSIM2h.s 			page 31


 708              	.LBB13:
 861:Drivers/STM32F1xx_HAL_Driver/Src/stm32f1xx_hal_dma.c **** 
 709              		.loc 1 861 46 is_stmt 0 view .LVU221
 710 0044 226C     		ldr	r2, [r4, #64]
 711 0046 9340     		lsls	r3, r3, r2
 712              	.LBE13:
 713              	.LBE12:
 379:Drivers/STM32F1xx_HAL_Driver/Src/stm32f1xx_hal_dma.c ****     
 714              		.loc 1 379 5 view .LVU222
 715 0048 2A68     		ldr	r2, [r5]
 716 004a 22F00102 		bic	r2, r2, #1
 717 004e 2A60     		str	r2, [r5]
 382:Drivers/STM32F1xx_HAL_Driver/Src/stm32f1xx_hal_dma.c ****     
 718              		.loc 1 382 5 is_stmt 1 view .LVU223
 719              	.LVL39:
 720              	.LBB17:
 721              	.LBI12:
 858:Drivers/STM32F1xx_HAL_Driver/Src/stm32f1xx_hal_dma.c **** {
 722              		.loc 1 858 13 view .LVU224
 723              	.LBB14:
 861:Drivers/STM32F1xx_HAL_Driver/Src/stm32f1xx_hal_dma.c **** 
 724              		.loc 1 861 3 view .LVU225
 861:Drivers/STM32F1xx_HAL_Driver/Src/stm32f1xx_hal_dma.c **** 
 725              		.loc 1 861 7 is_stmt 0 view .LVU226
 726 0050 E26B     		ldr	r2, [r4, #60]
 861:Drivers/STM32F1xx_HAL_Driver/Src/stm32f1xx_hal_dma.c **** 
 727              		.loc 1 861 30 view .LVU227
 728 0052 5360     		str	r3, [r2, #4]
 864:Drivers/STM32F1xx_HAL_Driver/Src/stm32f1xx_hal_dma.c **** 
 729              		.loc 1 864 3 is_stmt 1 view .LVU228
 867:Drivers/STM32F1xx_HAL_Driver/Src/stm32f1xx_hal_dma.c ****   {
 730              		.loc 1 867 5 is_stmt 0 view .LVU229
 731 0054 6368     		ldr	r3, [r4, #4]
 864:Drivers/STM32F1xx_HAL_Driver/Src/stm32f1xx_hal_dma.c **** 
 732              		.loc 1 864 25 view .LVU230
 733 0056 6E60     		str	r6, [r5, #4]
 867:Drivers/STM32F1xx_HAL_Driver/Src/stm32f1xx_hal_dma.c ****   {
 734              		.loc 1 867 3 is_stmt 1 view .LVU231
 867:Drivers/STM32F1xx_HAL_Driver/Src/stm32f1xx_hal_dma.c ****   {
 735              		.loc 1 867 5 is_stmt 0 view .LVU232
 736 0058 102B     		cmp	r3, #16
 870:Drivers/STM32F1xx_HAL_Driver/Src/stm32f1xx_hal_dma.c **** 
 737              		.loc 1 870 5 is_stmt 1 view .LVU233
 738              	.LBE14:
 739              	.LBE17:
 386:Drivers/STM32F1xx_HAL_Driver/Src/stm32f1xx_hal_dma.c ****     {
 740              		.loc 1 386 7 is_stmt 0 view .LVU234
 741 005a E36A     		ldr	r3, [r4, #44]
 742              	.LBB18:
 743              	.LBB15:
 870:Drivers/STM32F1xx_HAL_Driver/Src/stm32f1xx_hal_dma.c **** 
 744              		.loc 1 870 26 view .LVU235
 745 005c 0BBF     		itete	eq
 746 005e C5F80880 		streq	r8, [r5, #8]
 873:Drivers/STM32F1xx_HAL_Driver/Src/stm32f1xx_hal_dma.c ****   }
 747              		.loc 1 873 5 is_stmt 1 view .LVU236
 879:Drivers/STM32F1xx_HAL_Driver/Src/stm32f1xx_hal_dma.c **** 
ARM GAS  C:\Users\WENHUA~1\AppData\Local\Temp\ccQSIM2h.s 			page 32


 748              		.loc 1 879 26 is_stmt 0 view .LVU237
 749 0062 AF60     		strne	r7, [r5, #8]
 873:Drivers/STM32F1xx_HAL_Driver/Src/stm32f1xx_hal_dma.c ****   }
 750              		.loc 1 873 26 view .LVU238
 751 0064 EF60     		streq	r7, [r5, #12]
 879:Drivers/STM32F1xx_HAL_Driver/Src/stm32f1xx_hal_dma.c **** 
 752              		.loc 1 879 5 is_stmt 1 view .LVU239
 753              		.loc 1 882 5 view .LVU240
 754              	.LVL40:
 755              		.loc 1 882 5 is_stmt 0 view .LVU241
 756              	.LBE15:
 757              	.LBE18:
 386:Drivers/STM32F1xx_HAL_Driver/Src/stm32f1xx_hal_dma.c ****     {
 758              		.loc 1 386 5 is_stmt 1 view .LVU242
 759              	.LBB19:
 760              	.LBB16:
 761              		.loc 1 882 26 is_stmt 0 view .LVU243
 762 0066 C5F80C80 		strne	r8, [r5, #12]
 763              	.LBE16:
 764              	.LBE19:
 386:Drivers/STM32F1xx_HAL_Driver/Src/stm32f1xx_hal_dma.c ****     {
 765              		.loc 1 386 7 view .LVU244
 766 006a B3B1     		cbz	r3, .L85
 389:Drivers/STM32F1xx_HAL_Driver/Src/stm32f1xx_hal_dma.c ****     }
 767              		.loc 1 389 7 is_stmt 1 view .LVU245
 768 006c 2B68     		ldr	r3, [r5]
 769 006e 43F00E03 		orr	r3, r3, #14
 770 0072 2B60     		str	r3, [r5]
 771              	.L86:
 397:Drivers/STM32F1xx_HAL_Driver/Src/stm32f1xx_hal_dma.c ****   }
 772              		.loc 1 397 5 view .LVU246
 773 0074 2B68     		ldr	r3, [r5]
 364:Drivers/STM32F1xx_HAL_Driver/Src/stm32f1xx_hal_dma.c **** 
 774              		.loc 1 364 21 is_stmt 0 view .LVU247
 775 0076 0020     		movs	r0, #0
 397:Drivers/STM32F1xx_HAL_Driver/Src/stm32f1xx_hal_dma.c ****   }
 776              		.loc 1 397 5 view .LVU248
 777 0078 43F00103 		orr	r3, r3, #1
 778 007c 2B60     		str	r3, [r5]
 779              	.LVL41:
 408:Drivers/STM32F1xx_HAL_Driver/Src/stm32f1xx_hal_dma.c **** 
 780              		.loc 1 408 1 view .LVU249
 781 007e BDE8F081 		pop	{r4, r5, r6, r7, r8, pc}
 782              	.LVL42:
 783              	.L89:
 367:Drivers/STM32F1xx_HAL_Driver/Src/stm32f1xx_hal_dma.c **** 
 784              		.loc 1 367 3 discriminator 1 view .LVU250
 785 0082 40F26F11 		movw	r1, #367
 786              	.LVL43:
 367:Drivers/STM32F1xx_HAL_Driver/Src/stm32f1xx_hal_dma.c **** 
 787              		.loc 1 367 3 discriminator 1 view .LVU251
 788 0086 0948     		ldr	r0, .L92
 789              	.LVL44:
 367:Drivers/STM32F1xx_HAL_Driver/Src/stm32f1xx_hal_dma.c **** 
 790              		.loc 1 367 3 discriminator 1 view .LVU252
 791 0088 FFF7FEFF 		bl	assert_failed
 792              	.LVL45:
ARM GAS  C:\Users\WENHUA~1\AppData\Local\Temp\ccQSIM2h.s 			page 33


 370:Drivers/STM32F1xx_HAL_Driver/Src/stm32f1xx_hal_dma.c ****   
 793              		.loc 1 370 3 is_stmt 1 discriminator 1 view .LVU253
 370:Drivers/STM32F1xx_HAL_Driver/Src/stm32f1xx_hal_dma.c ****   
 794              		.loc 1 370 3 discriminator 1 view .LVU254
 795 008c 94F82030 		ldrb	r3, [r4, #32]	@ zero_extendqisi2
 796 0090 012B     		cmp	r3, #1
 797 0092 C4D1     		bne	.L91
 798              	.L87:
 370:Drivers/STM32F1xx_HAL_Driver/Src/stm32f1xx_hal_dma.c ****   
 799              		.loc 1 370 3 is_stmt 0 view .LVU255
 800 0094 0220     		movs	r0, #2
 801              	.LVL46:
 408:Drivers/STM32F1xx_HAL_Driver/Src/stm32f1xx_hal_dma.c **** 
 802              		.loc 1 408 1 view .LVU256
 803 0096 BDE8F081 		pop	{r4, r5, r6, r7, r8, pc}
 804              	.LVL47:
 805              	.L85:
 393:Drivers/STM32F1xx_HAL_Driver/Src/stm32f1xx_hal_dma.c ****       __HAL_DMA_ENABLE_IT(hdma, (DMA_IT_TC | DMA_IT_TE));
 806              		.loc 1 393 7 is_stmt 1 view .LVU257
 807 009a 2B68     		ldr	r3, [r5]
 808 009c 23F00403 		bic	r3, r3, #4
 809 00a0 2B60     		str	r3, [r5]
 394:Drivers/STM32F1xx_HAL_Driver/Src/stm32f1xx_hal_dma.c ****     }
 810              		.loc 1 394 7 view .LVU258
 811 00a2 2B68     		ldr	r3, [r5]
 812 00a4 43F00A03 		orr	r3, r3, #10
 813 00a8 2B60     		str	r3, [r5]
 814 00aa E3E7     		b	.L86
 815              	.L93:
 816              		.align	2
 817              	.L92:
 818 00ac 00000000 		.word	.LC0
 819              		.cfi_endproc
 820              	.LFE68:
 822              		.section	.text.HAL_DMA_Abort,"ax",%progbits
 823              		.align	1
 824              		.p2align 2,,3
 825              		.global	HAL_DMA_Abort
 826              		.syntax unified
 827              		.thumb
 828              		.thumb_func
 830              	HAL_DMA_Abort:
 831              	.LVL48:
 832              	.LFB69:
 417:Drivers/STM32F1xx_HAL_Driver/Src/stm32f1xx_hal_dma.c ****   HAL_StatusTypeDef status = HAL_OK;
 833              		.loc 1 417 1 view -0
 834              		.cfi_startproc
 835              		@ args = 0, pretend = 0, frame = 0
 836              		@ frame_needed = 0, uses_anonymous_args = 0
 837              		@ link register save eliminated.
 418:Drivers/STM32F1xx_HAL_Driver/Src/stm32f1xx_hal_dma.c ****   
 838              		.loc 1 418 3 view .LVU260
 420:Drivers/STM32F1xx_HAL_Driver/Src/stm32f1xx_hal_dma.c ****   {
 839              		.loc 1 420 3 view .LVU261
 420:Drivers/STM32F1xx_HAL_Driver/Src/stm32f1xx_hal_dma.c ****   {
 840              		.loc 1 420 5 is_stmt 0 view .LVU262
 841 0000 90F82120 		ldrb	r2, [r0, #33]	@ zero_extendqisi2
ARM GAS  C:\Users\WENHUA~1\AppData\Local\Temp\ccQSIM2h.s 			page 34


 417:Drivers/STM32F1xx_HAL_Driver/Src/stm32f1xx_hal_dma.c ****   HAL_StatusTypeDef status = HAL_OK;
 842              		.loc 1 417 1 view .LVU263
 843 0004 0346     		mov	r3, r0
 420:Drivers/STM32F1xx_HAL_Driver/Src/stm32f1xx_hal_dma.c ****   {
 844              		.loc 1 420 5 view .LVU264
 845 0006 022A     		cmp	r2, #2
 846 0008 06D0     		beq	.L95
 423:Drivers/STM32F1xx_HAL_Driver/Src/stm32f1xx_hal_dma.c ****     
 847              		.loc 1 423 5 is_stmt 1 view .LVU265
 423:Drivers/STM32F1xx_HAL_Driver/Src/stm32f1xx_hal_dma.c ****     
 848              		.loc 1 423 21 is_stmt 0 view .LVU266
 849 000a 0421     		movs	r1, #4
 426:Drivers/STM32F1xx_HAL_Driver/Src/stm32f1xx_hal_dma.c ****     
 850              		.loc 1 426 5 view .LVU267
 851 000c 0022     		movs	r2, #0
 428:Drivers/STM32F1xx_HAL_Driver/Src/stm32f1xx_hal_dma.c ****   }
 852              		.loc 1 428 12 view .LVU268
 853 000e 0120     		movs	r0, #1
 854              	.LVL49:
 423:Drivers/STM32F1xx_HAL_Driver/Src/stm32f1xx_hal_dma.c ****     
 855              		.loc 1 423 21 view .LVU269
 856 0010 9963     		str	r1, [r3, #56]
 426:Drivers/STM32F1xx_HAL_Driver/Src/stm32f1xx_hal_dma.c ****     
 857              		.loc 1 426 5 is_stmt 1 view .LVU270
 426:Drivers/STM32F1xx_HAL_Driver/Src/stm32f1xx_hal_dma.c ****     
 858              		.loc 1 426 5 view .LVU271
 859 0012 83F82020 		strb	r2, [r3, #32]
 426:Drivers/STM32F1xx_HAL_Driver/Src/stm32f1xx_hal_dma.c ****     
 860              		.loc 1 426 5 view .LVU272
 428:Drivers/STM32F1xx_HAL_Driver/Src/stm32f1xx_hal_dma.c ****   }
 861              		.loc 1 428 5 view .LVU273
 449:Drivers/STM32F1xx_HAL_Driver/Src/stm32f1xx_hal_dma.c **** 
 862              		.loc 1 449 1 is_stmt 0 view .LVU274
 863 0016 7047     		bx	lr
 864              	.LVL50:
 865              	.L95:
 434:Drivers/STM32F1xx_HAL_Driver/Src/stm32f1xx_hal_dma.c ****       
 866              		.loc 1 434 5 is_stmt 1 view .LVU275
 440:Drivers/STM32F1xx_HAL_Driver/Src/stm32f1xx_hal_dma.c ****   }
 867              		.loc 1 440 48 is_stmt 0 view .LVU276
 868 0018 0121     		movs	r1, #1
 446:Drivers/STM32F1xx_HAL_Driver/Src/stm32f1xx_hal_dma.c ****   
 869              		.loc 1 446 3 view .LVU277
 870 001a 4FF4807C 		mov	ip, #256
 417:Drivers/STM32F1xx_HAL_Driver/Src/stm32f1xx_hal_dma.c ****   HAL_StatusTypeDef status = HAL_OK;
 871              		.loc 1 417 1 view .LVU278
 872 001e 10B4     		push	{r4}
 873              	.LCFI6:
 874              		.cfi_def_cfa_offset 4
 875              		.cfi_offset 4, -4
 434:Drivers/STM32F1xx_HAL_Driver/Src/stm32f1xx_hal_dma.c ****       
 876              		.loc 1 434 5 view .LVU279
 877 0020 1A68     		ldr	r2, [r3]
 440:Drivers/STM32F1xx_HAL_Driver/Src/stm32f1xx_hal_dma.c ****   }
 878              		.loc 1 440 48 view .LVU280
 879 0022 1C6C     		ldr	r4, [r3, #64]
 448:Drivers/STM32F1xx_HAL_Driver/Src/stm32f1xx_hal_dma.c **** }
ARM GAS  C:\Users\WENHUA~1\AppData\Local\Temp\ccQSIM2h.s 			page 35


 880              		.loc 1 448 10 view .LVU281
 881 0024 0020     		movs	r0, #0
 882              	.LVL51:
 440:Drivers/STM32F1xx_HAL_Driver/Src/stm32f1xx_hal_dma.c ****   }
 883              		.loc 1 440 48 view .LVU282
 884 0026 A140     		lsls	r1, r1, r4
 434:Drivers/STM32F1xx_HAL_Driver/Src/stm32f1xx_hal_dma.c ****       
 885              		.loc 1 434 5 view .LVU283
 886 0028 1468     		ldr	r4, [r2]
 887 002a 24F00E04 		bic	r4, r4, #14
 888 002e 1460     		str	r4, [r2]
 437:Drivers/STM32F1xx_HAL_Driver/Src/stm32f1xx_hal_dma.c ****       
 889              		.loc 1 437 5 is_stmt 1 view .LVU284
 890 0030 1468     		ldr	r4, [r2]
 891 0032 24F00104 		bic	r4, r4, #1
 892 0036 1460     		str	r4, [r2]
 440:Drivers/STM32F1xx_HAL_Driver/Src/stm32f1xx_hal_dma.c ****   }
 893              		.loc 1 440 5 view .LVU285
 440:Drivers/STM32F1xx_HAL_Driver/Src/stm32f1xx_hal_dma.c ****   }
 894              		.loc 1 440 9 is_stmt 0 view .LVU286
 895 0038 DA6B     		ldr	r2, [r3, #60]
 440:Drivers/STM32F1xx_HAL_Driver/Src/stm32f1xx_hal_dma.c ****   }
 896              		.loc 1 440 32 view .LVU287
 897 003a 5160     		str	r1, [r2, #4]
 443:Drivers/STM32F1xx_HAL_Driver/Src/stm32f1xx_hal_dma.c **** 
 898              		.loc 1 443 3 is_stmt 1 view .LVU288
 446:Drivers/STM32F1xx_HAL_Driver/Src/stm32f1xx_hal_dma.c ****   
 899              		.loc 1 446 3 view .LVU289
 446:Drivers/STM32F1xx_HAL_Driver/Src/stm32f1xx_hal_dma.c ****   
 900              		.loc 1 446 3 view .LVU290
 901 003c A3F820C0 		strh	ip, [r3, #32]	@ movhi
 446:Drivers/STM32F1xx_HAL_Driver/Src/stm32f1xx_hal_dma.c ****   
 902              		.loc 1 446 3 view .LVU291
 448:Drivers/STM32F1xx_HAL_Driver/Src/stm32f1xx_hal_dma.c **** }
 903              		.loc 1 448 3 view .LVU292
 449:Drivers/STM32F1xx_HAL_Driver/Src/stm32f1xx_hal_dma.c **** 
 904              		.loc 1 449 1 is_stmt 0 view .LVU293
 905 0040 10BC     		pop	{r4}
 906              	.LCFI7:
 907              		.cfi_restore 4
 908              		.cfi_def_cfa_offset 0
 909 0042 7047     		bx	lr
 910              		.cfi_endproc
 911              	.LFE69:
 913              		.section	.text.HAL_DMA_Abort_IT,"ax",%progbits
 914              		.align	1
 915              		.p2align 2,,3
 916              		.global	HAL_DMA_Abort_IT
 917              		.syntax unified
 918              		.thumb
 919              		.thumb_func
 921              	HAL_DMA_Abort_IT:
 922              	.LVL52:
 923              	.LFB70:
 458:Drivers/STM32F1xx_HAL_Driver/Src/stm32f1xx_hal_dma.c ****   HAL_StatusTypeDef status = HAL_OK;
 924              		.loc 1 458 1 is_stmt 1 view -0
 925              		.cfi_startproc
ARM GAS  C:\Users\WENHUA~1\AppData\Local\Temp\ccQSIM2h.s 			page 36


 926              		@ args = 0, pretend = 0, frame = 0
 927              		@ frame_needed = 0, uses_anonymous_args = 0
 459:Drivers/STM32F1xx_HAL_Driver/Src/stm32f1xx_hal_dma.c ****   
 928              		.loc 1 459 3 view .LVU295
 461:Drivers/STM32F1xx_HAL_Driver/Src/stm32f1xx_hal_dma.c ****   {
 929              		.loc 1 461 3 view .LVU296
 461:Drivers/STM32F1xx_HAL_Driver/Src/stm32f1xx_hal_dma.c ****   {
 930              		.loc 1 461 5 is_stmt 0 view .LVU297
 931 0000 90F82120 		ldrb	r2, [r0, #33]	@ zero_extendqisi2
 458:Drivers/STM32F1xx_HAL_Driver/Src/stm32f1xx_hal_dma.c ****   HAL_StatusTypeDef status = HAL_OK;
 932              		.loc 1 458 1 view .LVU298
 933 0004 0346     		mov	r3, r0
 461:Drivers/STM32F1xx_HAL_Driver/Src/stm32f1xx_hal_dma.c ****   {
 934              		.loc 1 461 5 view .LVU299
 935 0006 022A     		cmp	r2, #2
 936 0008 03D0     		beq	.L101
 464:Drivers/STM32F1xx_HAL_Driver/Src/stm32f1xx_hal_dma.c ****         
 937              		.loc 1 464 5 is_stmt 1 view .LVU300
 464:Drivers/STM32F1xx_HAL_Driver/Src/stm32f1xx_hal_dma.c ****         
 938              		.loc 1 464 21 is_stmt 0 view .LVU301
 939 000a 0422     		movs	r2, #4
 466:Drivers/STM32F1xx_HAL_Driver/Src/stm32f1xx_hal_dma.c ****   }
 940              		.loc 1 466 12 view .LVU302
 941 000c 0120     		movs	r0, #1
 942              	.LVL53:
 464:Drivers/STM32F1xx_HAL_Driver/Src/stm32f1xx_hal_dma.c ****         
 943              		.loc 1 464 21 view .LVU303
 944 000e 9A63     		str	r2, [r3, #56]
 466:Drivers/STM32F1xx_HAL_Driver/Src/stm32f1xx_hal_dma.c ****   }
 945              		.loc 1 466 5 is_stmt 1 view .LVU304
 946              	.LVL54:
 491:Drivers/STM32F1xx_HAL_Driver/Src/stm32f1xx_hal_dma.c **** }
 947              		.loc 1 491 3 view .LVU305
 492:Drivers/STM32F1xx_HAL_Driver/Src/stm32f1xx_hal_dma.c **** 
 948              		.loc 1 492 1 is_stmt 0 view .LVU306
 949 0010 7047     		bx	lr
 950              	.LVL55:
 951              	.L101:
 471:Drivers/STM32F1xx_HAL_Driver/Src/stm32f1xx_hal_dma.c **** 
 952              		.loc 1 471 5 is_stmt 1 view .LVU307
 953 0012 0268     		ldr	r2, [r0]
 458:Drivers/STM32F1xx_HAL_Driver/Src/stm32f1xx_hal_dma.c ****   HAL_StatusTypeDef status = HAL_OK;
 954              		.loc 1 458 1 is_stmt 0 view .LVU308
 955 0014 10B5     		push	{r4, lr}
 956              	.LCFI8:
 957              		.cfi_def_cfa_offset 8
 958              		.cfi_offset 4, -8
 959              		.cfi_offset 14, -4
 471:Drivers/STM32F1xx_HAL_Driver/Src/stm32f1xx_hal_dma.c **** 
 960              		.loc 1 471 5 view .LVU309
 961 0016 1168     		ldr	r1, [r2]
 477:Drivers/STM32F1xx_HAL_Driver/Src/stm32f1xx_hal_dma.c **** 
 962              		.loc 1 477 5 view .LVU310
 963 0018 1B48     		ldr	r0, .L114
 964              	.LVL56:
 471:Drivers/STM32F1xx_HAL_Driver/Src/stm32f1xx_hal_dma.c **** 
 965              		.loc 1 471 5 view .LVU311
ARM GAS  C:\Users\WENHUA~1\AppData\Local\Temp\ccQSIM2h.s 			page 37


 966 001a 21F00E01 		bic	r1, r1, #14
 967 001e 1160     		str	r1, [r2]
 474:Drivers/STM32F1xx_HAL_Driver/Src/stm32f1xx_hal_dma.c **** 
 968              		.loc 1 474 5 is_stmt 1 view .LVU312
 969 0020 1168     		ldr	r1, [r2]
 477:Drivers/STM32F1xx_HAL_Driver/Src/stm32f1xx_hal_dma.c **** 
 970              		.loc 1 477 5 is_stmt 0 view .LVU313
 971 0022 8242     		cmp	r2, r0
 474:Drivers/STM32F1xx_HAL_Driver/Src/stm32f1xx_hal_dma.c **** 
 972              		.loc 1 474 5 view .LVU314
 973 0024 21F00101 		bic	r1, r1, #1
 974 0028 1160     		str	r1, [r2]
 477:Drivers/STM32F1xx_HAL_Driver/Src/stm32f1xx_hal_dma.c **** 
 975              		.loc 1 477 5 is_stmt 1 view .LVU315
 976 002a 21D0     		beq	.L104
 477:Drivers/STM32F1xx_HAL_Driver/Src/stm32f1xx_hal_dma.c **** 
 977              		.loc 1 477 5 is_stmt 0 discriminator 1 view .LVU316
 978 002c 1749     		ldr	r1, .L114+4
 979 002e 8A42     		cmp	r2, r1
 980 0030 1AD0     		beq	.L105
 477:Drivers/STM32F1xx_HAL_Driver/Src/stm32f1xx_hal_dma.c **** 
 981              		.loc 1 477 5 discriminator 3 view .LVU317
 982 0032 1431     		adds	r1, r1, #20
 983 0034 8A42     		cmp	r2, r1
 984 0036 1DD0     		beq	.L106
 477:Drivers/STM32F1xx_HAL_Driver/Src/stm32f1xx_hal_dma.c **** 
 985              		.loc 1 477 5 discriminator 5 view .LVU318
 986 0038 1431     		adds	r1, r1, #20
 987 003a 8A42     		cmp	r2, r1
 988 003c 1DD0     		beq	.L107
 477:Drivers/STM32F1xx_HAL_Driver/Src/stm32f1xx_hal_dma.c **** 
 989              		.loc 1 477 5 discriminator 7 view .LVU319
 990 003e 1431     		adds	r1, r1, #20
 991 0040 8A42     		cmp	r2, r1
 992 0042 1DD0     		beq	.L108
 477:Drivers/STM32F1xx_HAL_Driver/Src/stm32f1xx_hal_dma.c **** 
 993              		.loc 1 477 5 discriminator 9 view .LVU320
 994 0044 1431     		adds	r1, r1, #20
 995 0046 8A42     		cmp	r2, r1
 996 0048 0CBF     		ite	eq
 997 004a 4FF48012 		moveq	r2, #1048576
 998 004e 4FF08072 		movne	r2, #16777216
 999              	.L103:
 483:Drivers/STM32F1xx_HAL_Driver/Src/stm32f1xx_hal_dma.c **** 
 1000              		.loc 1 483 5 discriminator 24 view .LVU321
 1001 0052 4FF48070 		mov	r0, #256
 477:Drivers/STM32F1xx_HAL_Driver/Src/stm32f1xx_hal_dma.c **** 
 1002              		.loc 1 477 5 discriminator 24 view .LVU322
 1003 0056 0E4C     		ldr	r4, .L114+8
 486:Drivers/STM32F1xx_HAL_Driver/Src/stm32f1xx_hal_dma.c ****     {
 1004              		.loc 1 486 12 discriminator 24 view .LVU323
 1005 0058 596B     		ldr	r1, [r3, #52]
 477:Drivers/STM32F1xx_HAL_Driver/Src/stm32f1xx_hal_dma.c **** 
 1006              		.loc 1 477 5 discriminator 24 view .LVU324
 1007 005a 6260     		str	r2, [r4, #4]
 480:Drivers/STM32F1xx_HAL_Driver/Src/stm32f1xx_hal_dma.c **** 
 1008              		.loc 1 480 5 is_stmt 1 discriminator 24 view .LVU325
ARM GAS  C:\Users\WENHUA~1\AppData\Local\Temp\ccQSIM2h.s 			page 38


 483:Drivers/STM32F1xx_HAL_Driver/Src/stm32f1xx_hal_dma.c **** 
 1009              		.loc 1 483 5 discriminator 24 view .LVU326
 483:Drivers/STM32F1xx_HAL_Driver/Src/stm32f1xx_hal_dma.c **** 
 1010              		.loc 1 483 5 discriminator 24 view .LVU327
 1011 005c 1884     		strh	r0, [r3, #32]	@ movhi
 483:Drivers/STM32F1xx_HAL_Driver/Src/stm32f1xx_hal_dma.c **** 
 1012              		.loc 1 483 5 discriminator 24 view .LVU328
 486:Drivers/STM32F1xx_HAL_Driver/Src/stm32f1xx_hal_dma.c ****     {
 1013              		.loc 1 486 5 discriminator 24 view .LVU329
 486:Drivers/STM32F1xx_HAL_Driver/Src/stm32f1xx_hal_dma.c ****     {
 1014              		.loc 1 486 7 is_stmt 0 discriminator 24 view .LVU330
 1015 005e 29B1     		cbz	r1, .L110
 488:Drivers/STM32F1xx_HAL_Driver/Src/stm32f1xx_hal_dma.c ****     } 
 1016              		.loc 1 488 7 is_stmt 1 view .LVU331
 1017 0060 1846     		mov	r0, r3
 1018 0062 8847     		blx	r1
 1019              	.LVL57:
 459:Drivers/STM32F1xx_HAL_Driver/Src/stm32f1xx_hal_dma.c ****   
 1020              		.loc 1 459 21 is_stmt 0 view .LVU332
 1021 0064 0020     		movs	r0, #0
 1022              	.LVL58:
 491:Drivers/STM32F1xx_HAL_Driver/Src/stm32f1xx_hal_dma.c **** }
 1023              		.loc 1 491 3 is_stmt 1 view .LVU333
 492:Drivers/STM32F1xx_HAL_Driver/Src/stm32f1xx_hal_dma.c **** 
 1024              		.loc 1 492 1 is_stmt 0 view .LVU334
 1025 0066 10BD     		pop	{r4, pc}
 1026              	.LVL59:
 1027              	.L105:
 477:Drivers/STM32F1xx_HAL_Driver/Src/stm32f1xx_hal_dma.c **** 
 1028              		.loc 1 477 5 view .LVU335
 1029 0068 1022     		movs	r2, #16
 1030 006a F2E7     		b	.L103
 1031              	.L110:
 459:Drivers/STM32F1xx_HAL_Driver/Src/stm32f1xx_hal_dma.c ****   
 1032              		.loc 1 459 21 view .LVU336
 1033 006c 0846     		mov	r0, r1
 1034              	.LVL60:
 491:Drivers/STM32F1xx_HAL_Driver/Src/stm32f1xx_hal_dma.c **** }
 1035              		.loc 1 491 3 is_stmt 1 view .LVU337
 492:Drivers/STM32F1xx_HAL_Driver/Src/stm32f1xx_hal_dma.c **** 
 1036              		.loc 1 492 1 is_stmt 0 view .LVU338
 1037 006e 10BD     		pop	{r4, pc}
 1038              	.LVL61:
 1039              	.L104:
 477:Drivers/STM32F1xx_HAL_Driver/Src/stm32f1xx_hal_dma.c **** 
 1040              		.loc 1 477 5 view .LVU339
 1041 0070 0122     		movs	r2, #1
 1042 0072 EEE7     		b	.L103
 1043              	.L106:
 1044 0074 4FF48072 		mov	r2, #256
 1045 0078 EBE7     		b	.L103
 1046              	.L107:
 1047 007a 4FF48052 		mov	r2, #4096
 1048 007e E8E7     		b	.L103
 1049              	.L108:
 1050 0080 4FF48032 		mov	r2, #65536
 1051 0084 E5E7     		b	.L103
ARM GAS  C:\Users\WENHUA~1\AppData\Local\Temp\ccQSIM2h.s 			page 39


 1052              	.L115:
 1053 0086 00BF     		.align	2
 1054              	.L114:
 1055 0088 08000240 		.word	1073872904
 1056 008c 1C000240 		.word	1073872924
 1057 0090 00000240 		.word	1073872896
 1058              		.cfi_endproc
 1059              	.LFE70:
 1061              		.section	.text.HAL_DMA_PollForTransfer,"ax",%progbits
 1062              		.align	1
 1063              		.p2align 2,,3
 1064              		.global	HAL_DMA_PollForTransfer
 1065              		.syntax unified
 1066              		.thumb
 1067              		.thumb_func
 1069              	HAL_DMA_PollForTransfer:
 1070              	.LVL62:
 1071              	.LFB71:
 503:Drivers/STM32F1xx_HAL_Driver/Src/stm32f1xx_hal_dma.c ****   uint32_t temp;
 1072              		.loc 1 503 1 is_stmt 1 view -0
 1073              		.cfi_startproc
 1074              		@ args = 0, pretend = 0, frame = 0
 1075              		@ frame_needed = 0, uses_anonymous_args = 0
 504:Drivers/STM32F1xx_HAL_Driver/Src/stm32f1xx_hal_dma.c ****   uint32_t tickstart = 0U;
 1076              		.loc 1 504 3 view .LVU341
 505:Drivers/STM32F1xx_HAL_Driver/Src/stm32f1xx_hal_dma.c **** 
 1077              		.loc 1 505 3 view .LVU342
 507:Drivers/STM32F1xx_HAL_Driver/Src/stm32f1xx_hal_dma.c ****   {
 1078              		.loc 1 507 3 view .LVU343
 503:Drivers/STM32F1xx_HAL_Driver/Src/stm32f1xx_hal_dma.c ****   uint32_t temp;
 1079              		.loc 1 503 1 is_stmt 0 view .LVU344
 1080 0000 2DE9F84F 		push	{r3, r4, r5, r6, r7, r8, r9, r10, fp, lr}
 1081              	.LCFI9:
 1082              		.cfi_def_cfa_offset 40
 1083              		.cfi_offset 3, -40
 1084              		.cfi_offset 4, -36
 1085              		.cfi_offset 5, -32
 1086              		.cfi_offset 6, -28
 1087              		.cfi_offset 7, -24
 1088              		.cfi_offset 8, -20
 1089              		.cfi_offset 9, -16
 1090              		.cfi_offset 10, -12
 1091              		.cfi_offset 11, -8
 1092              		.cfi_offset 14, -4
 507:Drivers/STM32F1xx_HAL_Driver/Src/stm32f1xx_hal_dma.c ****   {
 1093              		.loc 1 507 5 view .LVU345
 1094 0004 90F82150 		ldrb	r5, [r0, #33]	@ zero_extendqisi2
 503:Drivers/STM32F1xx_HAL_Driver/Src/stm32f1xx_hal_dma.c ****   uint32_t temp;
 1095              		.loc 1 503 1 view .LVU346
 1096 0008 0446     		mov	r4, r0
 507:Drivers/STM32F1xx_HAL_Driver/Src/stm32f1xx_hal_dma.c ****   {
 1097              		.loc 1 507 5 view .LVU347
 1098 000a 022D     		cmp	r5, #2
 1099 000c 07D0     		beq	.L117
 510:Drivers/STM32F1xx_HAL_Driver/Src/stm32f1xx_hal_dma.c ****     __HAL_UNLOCK(hdma);
 1100              		.loc 1 510 5 is_stmt 1 view .LVU348
 510:Drivers/STM32F1xx_HAL_Driver/Src/stm32f1xx_hal_dma.c ****     __HAL_UNLOCK(hdma);
ARM GAS  C:\Users\WENHUA~1\AppData\Local\Temp\ccQSIM2h.s 			page 40


 1101              		.loc 1 510 21 is_stmt 0 view .LVU349
 1102 000e 0422     		movs	r2, #4
 1103              	.LVL63:
 511:Drivers/STM32F1xx_HAL_Driver/Src/stm32f1xx_hal_dma.c ****     return HAL_ERROR;
 1104              		.loc 1 511 5 view .LVU350
 1105 0010 0023     		movs	r3, #0
 512:Drivers/STM32F1xx_HAL_Driver/Src/stm32f1xx_hal_dma.c ****   }
 1106              		.loc 1 512 12 view .LVU351
 1107 0012 0120     		movs	r0, #1
 1108              	.LVL64:
 510:Drivers/STM32F1xx_HAL_Driver/Src/stm32f1xx_hal_dma.c ****     __HAL_UNLOCK(hdma);
 1109              		.loc 1 510 21 view .LVU352
 1110 0014 A263     		str	r2, [r4, #56]
 511:Drivers/STM32F1xx_HAL_Driver/Src/stm32f1xx_hal_dma.c ****     return HAL_ERROR;
 1111              		.loc 1 511 5 is_stmt 1 view .LVU353
 511:Drivers/STM32F1xx_HAL_Driver/Src/stm32f1xx_hal_dma.c ****     return HAL_ERROR;
 1112              		.loc 1 511 5 view .LVU354
 1113 0016 84F82030 		strb	r3, [r4, #32]
 511:Drivers/STM32F1xx_HAL_Driver/Src/stm32f1xx_hal_dma.c ****     return HAL_ERROR;
 1114              		.loc 1 511 5 view .LVU355
 512:Drivers/STM32F1xx_HAL_Driver/Src/stm32f1xx_hal_dma.c ****   }
 1115              		.loc 1 512 5 view .LVU356
 1116              	.LVL65:
 1117              	.L200:
 595:Drivers/STM32F1xx_HAL_Driver/Src/stm32f1xx_hal_dma.c **** 
 1118              		.loc 1 595 1 is_stmt 0 view .LVU357
 1119 001a BDE8F88F 		pop	{r3, r4, r5, r6, r7, r8, r9, r10, fp, pc}
 1120              	.LVL66:
 1121              	.L117:
 516:Drivers/STM32F1xx_HAL_Driver/Src/stm32f1xx_hal_dma.c ****   {
 1122              		.loc 1 516 3 is_stmt 1 view .LVU358
 516:Drivers/STM32F1xx_HAL_Driver/Src/stm32f1xx_hal_dma.c ****   {
 1123              		.loc 1 516 21 is_stmt 0 view .LVU359
 1124 001e 0368     		ldr	r3, [r0]
 1125 0020 1646     		mov	r6, r2
 516:Drivers/STM32F1xx_HAL_Driver/Src/stm32f1xx_hal_dma.c ****   {
 1126              		.loc 1 516 31 view .LVU360
 1127 0022 1A68     		ldr	r2, [r3]
 1128              	.LVL67:
 516:Drivers/STM32F1xx_HAL_Driver/Src/stm32f1xx_hal_dma.c ****   {
 1129              		.loc 1 516 6 view .LVU361
 1130 0024 9206     		lsls	r2, r2, #26
 1131 0026 52D4     		bmi	.L206
 523:Drivers/STM32F1xx_HAL_Driver/Src/stm32f1xx_hal_dma.c ****   {
 1132              		.loc 1 523 3 is_stmt 1 view .LVU362
 1133 0028 0F46     		mov	r7, r1
 526:Drivers/STM32F1xx_HAL_Driver/Src/stm32f1xx_hal_dma.c ****   }
 1134              		.loc 1 526 12 is_stmt 0 view .LVU363
 1135 002a A94A     		ldr	r2, .L215
 523:Drivers/STM32F1xx_HAL_Driver/Src/stm32f1xx_hal_dma.c ****   {
 1136              		.loc 1 523 5 view .LVU364
 1137 002c 0029     		cmp	r1, #0
 1138 002e 54D1     		bne	.L120
 526:Drivers/STM32F1xx_HAL_Driver/Src/stm32f1xx_hal_dma.c ****   }
 1139              		.loc 1 526 5 is_stmt 1 view .LVU365
 526:Drivers/STM32F1xx_HAL_Driver/Src/stm32f1xx_hal_dma.c ****   }
 1140              		.loc 1 526 12 is_stmt 0 view .LVU366
ARM GAS  C:\Users\WENHUA~1\AppData\Local\Temp\ccQSIM2h.s 			page 41


 1141 0030 9342     		cmp	r3, r2
 1142 0032 16D0     		beq	.L121
 526:Drivers/STM32F1xx_HAL_Driver/Src/stm32f1xx_hal_dma.c ****   }
 1143              		.loc 1 526 12 discriminator 1 view .LVU367
 1144 0034 1432     		adds	r2, r2, #20
 1145 0036 9342     		cmp	r3, r2
 1146 0038 00F00681 		beq	.L156
 526:Drivers/STM32F1xx_HAL_Driver/Src/stm32f1xx_hal_dma.c ****   }
 1147              		.loc 1 526 12 discriminator 3 view .LVU368
 1148 003c 1432     		adds	r2, r2, #20
 1149 003e 9342     		cmp	r3, r2
 1150 0040 00F00881 		beq	.L157
 526:Drivers/STM32F1xx_HAL_Driver/Src/stm32f1xx_hal_dma.c ****   }
 1151              		.loc 1 526 12 discriminator 5 view .LVU369
 1152 0044 1432     		adds	r2, r2, #20
 1153 0046 9342     		cmp	r3, r2
 1154 0048 00F0F980 		beq	.L158
 526:Drivers/STM32F1xx_HAL_Driver/Src/stm32f1xx_hal_dma.c ****   }
 1155              		.loc 1 526 12 discriminator 7 view .LVU370
 1156 004c 1432     		adds	r2, r2, #20
 1157 004e 9342     		cmp	r3, r2
 1158 0050 00F04E81 		beq	.L159
 526:Drivers/STM32F1xx_HAL_Driver/Src/stm32f1xx_hal_dma.c ****   }
 1159              		.loc 1 526 12 discriminator 9 view .LVU371
 1160 0054 9F4D     		ldr	r5, .L215+4
 1161 0056 AB42     		cmp	r3, r5
 1162 0058 0CBF     		ite	eq
 1163 005a 4FF40015 		moveq	r5, #2097152
 1164 005e 4FF00075 		movne	r5, #33554432
 1165              	.L121:
 1166              	.LVL68:
 535:Drivers/STM32F1xx_HAL_Driver/Src/stm32f1xx_hal_dma.c **** 
 1167              		.loc 1 535 3 is_stmt 1 view .LVU372
 535:Drivers/STM32F1xx_HAL_Driver/Src/stm32f1xx_hal_dma.c **** 
 1168              		.loc 1 535 15 is_stmt 0 view .LVU373
 1169 0062 FFF7FEFF 		bl	HAL_GetTick
 1170              	.LVL69:
 535:Drivers/STM32F1xx_HAL_Driver/Src/stm32f1xx_hal_dma.c **** 
 1171              		.loc 1 535 15 view .LVU374
 1172 0066 8046     		mov	r8, r0
 1173              	.LVL70:
 537:Drivers/STM32F1xx_HAL_Driver/Src/stm32f1xx_hal_dma.c ****   {
 1174              		.loc 1 537 3 is_stmt 1 view .LVU375
 1175 0068 9A4B     		ldr	r3, .L215+4
 1176 006a 9B4A     		ldr	r2, .L215+8
 1177 006c 9B49     		ldr	r1, .L215+12
 539:Drivers/STM32F1xx_HAL_Driver/Src/stm32f1xx_hal_dma.c ****     {
 1178              		.loc 1 539 9 is_stmt 0 view .LVU376
 1179 006e DFF86092 		ldr	r9, .L215
 1180 0072 DFF86CA2 		ldr	r10, .L215+16
 1181 0076 DFF86CB2 		ldr	fp, .L215+20
 1182              	.LVL71:
 1183              	.L122:
 539:Drivers/STM32F1xx_HAL_Driver/Src/stm32f1xx_hal_dma.c ****     {
 1184              		.loc 1 539 9 view .LVU377
 1185 007a B6F1FF3F 		cmp	r6, #-1
 1186 007e 2068     		ldr	r0, [r4]
ARM GAS  C:\Users\WENHUA~1\AppData\Local\Temp\ccQSIM2h.s 			page 42


 1187 0080 46D1     		bne	.L126
 1188 0082 944B     		ldr	r3, .L215+4
 1189 0084 9842     		cmp	r0, r3
 1190 0086 77D0     		beq	.L207
 1191 0088 914B     		ldr	r3, .L215
 1192 008a 9842     		cmp	r0, r3
 1193 008c 00F09780 		beq	.L208
 1194 0090 934B     		ldr	r3, .L215+16
 1195 0092 9842     		cmp	r0, r3
 1196 0094 00F0A680 		beq	.L202
 1197 0098 924E     		ldr	r6, .L215+20
 1198              	.LVL72:
 539:Drivers/STM32F1xx_HAL_Driver/Src/stm32f1xx_hal_dma.c ****     {
 1199              		.loc 1 539 9 view .LVU378
 1200 009a DFF840C2 		ldr	ip, .L215+12
 1201 009e DFF838E2 		ldr	lr, .L215+8
 537:Drivers/STM32F1xx_HAL_Driver/Src/stm32f1xx_hal_dma.c ****   {
 1202              		.loc 1 537 9 view .LVU379
 1203 00a2 1C3B     		subs	r3, r3, #28
 1204 00a4 09E0     		b	.L132
 1205              	.L209:
 539:Drivers/STM32F1xx_HAL_Driver/Src/stm32f1xx_hal_dma.c ****     {
 1206              		.loc 1 539 9 view .LVU380
 1207 00a6 6045     		cmp	r0, ip
 1208 00a8 63D0     		beq	.L168
 1209 00aa 7045     		cmp	r0, lr
 1210 00ac 0CBF     		ite	eq
 1211 00ae 4FF40021 		moveq	r1, #524288
 1212 00b2 4FF00061 		movne	r1, #134217728
 1213              	.L136:
 539:Drivers/STM32F1xx_HAL_Driver/Src/stm32f1xx_hal_dma.c ****     {
 1214              		.loc 1 539 7 view .LVU381
 1215 00b6 1142     		tst	r1, r2
 1216 00b8 4DD1     		bne	.L130
 1217              	.L132:
 537:Drivers/STM32F1xx_HAL_Driver/Src/stm32f1xx_hal_dma.c ****   {
 1218              		.loc 1 537 8 is_stmt 1 view .LVU382
 539:Drivers/STM32F1xx_HAL_Driver/Src/stm32f1xx_hal_dma.c ****     {
 1219              		.loc 1 539 5 view .LVU383
 537:Drivers/STM32F1xx_HAL_Driver/Src/stm32f1xx_hal_dma.c ****   {
 1220              		.loc 1 537 9 is_stmt 0 view .LVU384
 1221 00ba 1A68     		ldr	r2, [r3]
 537:Drivers/STM32F1xx_HAL_Driver/Src/stm32f1xx_hal_dma.c ****   {
 1222              		.loc 1 537 8 view .LVU385
 1223 00bc 1542     		tst	r5, r2
 1224 00be 40F09C80 		bne	.L135
 539:Drivers/STM32F1xx_HAL_Driver/Src/stm32f1xx_hal_dma.c ****     {
 1225              		.loc 1 539 9 view .LVU386
 1226 00c2 B042     		cmp	r0, r6
 1227 00c4 1A68     		ldr	r2, [r3]
 1228 00c6 EED1     		bne	.L209
 1229 00c8 4FF40061 		mov	r1, #2048
 1230 00cc F3E7     		b	.L136
 1231              	.LVL73:
 1232              	.L206:
 518:Drivers/STM32F1xx_HAL_Driver/Src/stm32f1xx_hal_dma.c ****     return HAL_ERROR;
 1233              		.loc 1 518 5 is_stmt 1 view .LVU387
ARM GAS  C:\Users\WENHUA~1\AppData\Local\Temp\ccQSIM2h.s 			page 43


 518:Drivers/STM32F1xx_HAL_Driver/Src/stm32f1xx_hal_dma.c ****     return HAL_ERROR;
 1234              		.loc 1 518 21 is_stmt 0 view .LVU388
 1235 00ce 4FF48073 		mov	r3, #256
 519:Drivers/STM32F1xx_HAL_Driver/Src/stm32f1xx_hal_dma.c ****   }
 1236              		.loc 1 519 12 view .LVU389
 1237 00d2 0120     		movs	r0, #1
 1238              	.LVL74:
 518:Drivers/STM32F1xx_HAL_Driver/Src/stm32f1xx_hal_dma.c ****     return HAL_ERROR;
 1239              		.loc 1 518 21 view .LVU390
 1240 00d4 A363     		str	r3, [r4, #56]
 519:Drivers/STM32F1xx_HAL_Driver/Src/stm32f1xx_hal_dma.c ****   }
 1241              		.loc 1 519 5 is_stmt 1 view .LVU391
 595:Drivers/STM32F1xx_HAL_Driver/Src/stm32f1xx_hal_dma.c **** 
 1242              		.loc 1 595 1 is_stmt 0 view .LVU392
 1243 00d6 BDE8F88F 		pop	{r3, r4, r5, r6, r7, r8, r9, r10, fp, pc}
 1244              	.LVL75:
 1245              	.L120:
 531:Drivers/STM32F1xx_HAL_Driver/Src/stm32f1xx_hal_dma.c ****   }
 1246              		.loc 1 531 5 is_stmt 1 view .LVU393
 531:Drivers/STM32F1xx_HAL_Driver/Src/stm32f1xx_hal_dma.c ****   }
 1247              		.loc 1 531 12 is_stmt 0 view .LVU394
 1248 00da 9342     		cmp	r3, r2
 1249 00dc 00F0B280 		beq	.L161
 531:Drivers/STM32F1xx_HAL_Driver/Src/stm32f1xx_hal_dma.c ****   }
 1250              		.loc 1 531 12 discriminator 1 view .LVU395
 1251 00e0 1432     		adds	r2, r2, #20
 1252 00e2 9342     		cmp	r3, r2
 1253 00e4 00F0B280 		beq	.L162
 531:Drivers/STM32F1xx_HAL_Driver/Src/stm32f1xx_hal_dma.c ****   }
 1254              		.loc 1 531 12 discriminator 3 view .LVU396
 1255 00e8 1432     		adds	r2, r2, #20
 1256 00ea 9342     		cmp	r3, r2
 1257 00ec 00F0B580 		beq	.L163
 531:Drivers/STM32F1xx_HAL_Driver/Src/stm32f1xx_hal_dma.c ****   }
 1258              		.loc 1 531 12 discriminator 5 view .LVU397
 1259 00f0 1432     		adds	r2, r2, #20
 1260 00f2 9342     		cmp	r3, r2
 1261 00f4 00F0A080 		beq	.L164
 531:Drivers/STM32F1xx_HAL_Driver/Src/stm32f1xx_hal_dma.c ****   }
 1262              		.loc 1 531 12 discriminator 7 view .LVU398
 1263 00f8 1432     		adds	r2, r2, #20
 1264 00fa 9342     		cmp	r3, r2
 1265 00fc 00F0FE80 		beq	.L165
 531:Drivers/STM32F1xx_HAL_Driver/Src/stm32f1xx_hal_dma.c ****   }
 1266              		.loc 1 531 12 discriminator 9 view .LVU399
 1267 0100 744D     		ldr	r5, .L215+4
 1268 0102 AB42     		cmp	r3, r5
 1269 0104 0CBF     		ite	eq
 1270 0106 4FF48005 		moveq	r5, #4194304
 1271 010a 4FF08065 		movne	r5, #67108864
 1272 010e A8E7     		b	.L121
 1273              	.LVL76:
 1274              	.L126:
 531:Drivers/STM32F1xx_HAL_Driver/Src/stm32f1xx_hal_dma.c ****   }
 1275              		.loc 1 531 12 discriminator 9 view .LVU400
 1276 0110 9842     		cmp	r0, r3
 1277 0112 00F0CF80 		beq	.L138
ARM GAS  C:\Users\WENHUA~1\AppData\Local\Temp\ccQSIM2h.s 			page 44


 537:Drivers/STM32F1xx_HAL_Driver/Src/stm32f1xx_hal_dma.c ****   {
 1278              		.loc 1 537 9 view .LVU401
 1279 0116 DFF8D0C1 		ldr	ip, .L215+24
 1280 011a 9042     		cmp	r0, r2
 1281 011c DCF800E0 		ldr	lr, [ip]
 1282 0120 00F0C080 		beq	.L210
 1283 0124 8842     		cmp	r0, r1
 1284 0126 00F09B80 		beq	.L211
 537:Drivers/STM32F1xx_HAL_Driver/Src/stm32f1xx_hal_dma.c ****   {
 1285              		.loc 1 537 8 is_stmt 1 view .LVU402
 1286 012a 15EA0E0F 		tst	r5, lr
 1287 012e 40F0B380 		bne	.L143
 539:Drivers/STM32F1xx_HAL_Driver/Src/stm32f1xx_hal_dma.c ****     {
 1288              		.loc 1 539 5 view .LVU403
 539:Drivers/STM32F1xx_HAL_Driver/Src/stm32f1xx_hal_dma.c ****     {
 1289              		.loc 1 539 9 is_stmt 0 view .LVU404
 1290 0132 4845     		cmp	r0, r9
 1291 0134 DCF800C0 		ldr	ip, [ip]
 1292 0138 00F0D880 		beq	.L170
 1293 013c 5045     		cmp	r0, r10
 1294 013e 00F0E380 		beq	.L171
 1295 0142 5845     		cmp	r0, fp
 1296 0144 14BF     		ite	ne
 1297 0146 4FF00060 		movne	r0, #134217728
 1298 014a 4FF40060 		moveq	r0, #2048
 1299              	.L144:
 539:Drivers/STM32F1xx_HAL_Driver/Src/stm32f1xx_hal_dma.c ****     {
 1300              		.loc 1 539 7 view .LVU405
 1301 014e 1CEA000F 		tst	ip, r0
 1302 0152 00F08D80 		beq	.L123
 1303              	.LVL77:
 1304              	.L130:
 544:Drivers/STM32F1xx_HAL_Driver/Src/stm32f1xx_hal_dma.c **** 
 1305              		.loc 1 544 7 is_stmt 1 view .LVU406
 544:Drivers/STM32F1xx_HAL_Driver/Src/stm32f1xx_hal_dma.c **** 
 1306              		.loc 1 544 50 is_stmt 0 view .LVU407
 1307 0156 0120     		movs	r0, #1
 544:Drivers/STM32F1xx_HAL_Driver/Src/stm32f1xx_hal_dma.c **** 
 1308              		.loc 1 544 11 view .LVU408
 1309 0158 D4E90F13 		ldrd	r1, r3, [r4, #60]
 553:Drivers/STM32F1xx_HAL_Driver/Src/stm32f1xx_hal_dma.c **** 
 1310              		.loc 1 553 7 view .LVU409
 1311 015c 4FF48072 		mov	r2, #256
 544:Drivers/STM32F1xx_HAL_Driver/Src/stm32f1xx_hal_dma.c **** 
 1312              		.loc 1 544 50 view .LVU410
 1313 0160 00FA03F3 		lsl	r3, r0, r3
 544:Drivers/STM32F1xx_HAL_Driver/Src/stm32f1xx_hal_dma.c **** 
 1314              		.loc 1 544 34 view .LVU411
 1315 0164 4B60     		str	r3, [r1, #4]
 547:Drivers/STM32F1xx_HAL_Driver/Src/stm32f1xx_hal_dma.c **** 
 1316              		.loc 1 547 7 is_stmt 1 view .LVU412
 1317 0166 A36B     		ldr	r3, [r4, #56]
 553:Drivers/STM32F1xx_HAL_Driver/Src/stm32f1xx_hal_dma.c **** 
 1318              		.loc 1 553 7 is_stmt 0 view .LVU413
 1319 0168 2284     		strh	r2, [r4, #32]	@ movhi
 547:Drivers/STM32F1xx_HAL_Driver/Src/stm32f1xx_hal_dma.c **** 
 1320              		.loc 1 547 7 view .LVU414
ARM GAS  C:\Users\WENHUA~1\AppData\Local\Temp\ccQSIM2h.s 			page 45


 1321 016a 0343     		orrs	r3, r3, r0
 1322 016c A363     		str	r3, [r4, #56]
 550:Drivers/STM32F1xx_HAL_Driver/Src/stm32f1xx_hal_dma.c **** 
 1323              		.loc 1 550 7 is_stmt 1 view .LVU415
 553:Drivers/STM32F1xx_HAL_Driver/Src/stm32f1xx_hal_dma.c **** 
 1324              		.loc 1 553 7 view .LVU416
 553:Drivers/STM32F1xx_HAL_Driver/Src/stm32f1xx_hal_dma.c **** 
 1325              		.loc 1 553 7 view .LVU417
 553:Drivers/STM32F1xx_HAL_Driver/Src/stm32f1xx_hal_dma.c **** 
 1326              		.loc 1 553 7 view .LVU418
 555:Drivers/STM32F1xx_HAL_Driver/Src/stm32f1xx_hal_dma.c ****     }
 1327              		.loc 1 555 7 view .LVU419
 595:Drivers/STM32F1xx_HAL_Driver/Src/stm32f1xx_hal_dma.c **** 
 1328              		.loc 1 595 1 is_stmt 0 view .LVU420
 1329 016e BDE8F88F 		pop	{r3, r4, r5, r6, r7, r8, r9, r10, fp, pc}
 1330              	.LVL78:
 1331              	.L168:
 539:Drivers/STM32F1xx_HAL_Driver/Src/stm32f1xx_hal_dma.c ****     {
 1332              		.loc 1 539 9 view .LVU421
 1333 0172 4FF40041 		mov	r1, #32768
 1334 0176 9EE7     		b	.L136
 1335              	.LVL79:
 1336              	.L207:
 537:Drivers/STM32F1xx_HAL_Driver/Src/stm32f1xx_hal_dma.c ****   {
 1337              		.loc 1 537 9 view .LVU422
 1338 0178 6C3B     		subs	r3, r3, #108
 1339 017a 02E0     		b	.L127
 1340              	.L212:
 539:Drivers/STM32F1xx_HAL_Driver/Src/stm32f1xx_hal_dma.c ****     {
 1341              		.loc 1 539 9 view .LVU423
 1342 017c 1A68     		ldr	r2, [r3]
 539:Drivers/STM32F1xx_HAL_Driver/Src/stm32f1xx_hal_dma.c ****     {
 1343              		.loc 1 539 7 view .LVU424
 1344 017e 1102     		lsls	r1, r2, #8
 1345 0180 E9D4     		bmi	.L130
 1346              	.L127:
 537:Drivers/STM32F1xx_HAL_Driver/Src/stm32f1xx_hal_dma.c ****   {
 1347              		.loc 1 537 8 is_stmt 1 view .LVU425
 539:Drivers/STM32F1xx_HAL_Driver/Src/stm32f1xx_hal_dma.c ****     {
 1348              		.loc 1 539 5 view .LVU426
 537:Drivers/STM32F1xx_HAL_Driver/Src/stm32f1xx_hal_dma.c ****   {
 1349              		.loc 1 537 9 is_stmt 0 view .LVU427
 1350 0182 1A68     		ldr	r2, [r3]
 537:Drivers/STM32F1xx_HAL_Driver/Src/stm32f1xx_hal_dma.c ****   {
 1351              		.loc 1 537 8 view .LVU428
 1352 0184 1542     		tst	r5, r2
 1353 0186 F9D0     		beq	.L212
 1354              	.L137:
 576:Drivers/STM32F1xx_HAL_Driver/Src/stm32f1xx_hal_dma.c ****   {
 1355              		.loc 1 576 3 is_stmt 1 view .LVU429
 576:Drivers/STM32F1xx_HAL_Driver/Src/stm32f1xx_hal_dma.c ****   {
 1356              		.loc 1 576 5 is_stmt 0 view .LVU430
 1357 0188 002F     		cmp	r7, #0
 1358 018a 00F0D180 		beq	.L187
 1359 018e 5148     		ldr	r0, .L215+4
 1360              	.L154:
 588:Drivers/STM32F1xx_HAL_Driver/Src/stm32f1xx_hal_dma.c ****   }
ARM GAS  C:\Users\WENHUA~1\AppData\Local\Temp\ccQSIM2h.s 			page 46


 1361              		.loc 1 588 5 discriminator 1 view .LVU431
 1362 0190 534B     		ldr	r3, .L215+16
 1363 0192 9842     		cmp	r0, r3
 1364 0194 2FD0     		beq	.L204
 1365              	.LVL80:
 1366              	.L153:
 588:Drivers/STM32F1xx_HAL_Driver/Src/stm32f1xx_hal_dma.c ****   }
 1367              		.loc 1 588 5 discriminator 3 view .LVU432
 1368 0196 534B     		ldr	r3, .L215+20
 1369 0198 9842     		cmp	r0, r3
 1370 019a 00F0B280 		beq	.L181
 588:Drivers/STM32F1xx_HAL_Driver/Src/stm32f1xx_hal_dma.c ****   }
 1371              		.loc 1 588 5 discriminator 5 view .LVU433
 1372 019e 1433     		adds	r3, r3, #20
 1373 01a0 9842     		cmp	r0, r3
 1374 01a2 00F0B980 		beq	.L182
 588:Drivers/STM32F1xx_HAL_Driver/Src/stm32f1xx_hal_dma.c ****   }
 1375              		.loc 1 588 5 discriminator 7 view .LVU434
 1376 01a6 1433     		adds	r3, r3, #20
 1377 01a8 9842     		cmp	r0, r3
 1378 01aa 00F0B880 		beq	.L183
 588:Drivers/STM32F1xx_HAL_Driver/Src/stm32f1xx_hal_dma.c ****   }
 1379              		.loc 1 588 5 discriminator 9 view .LVU435
 1380 01ae 1433     		adds	r3, r3, #20
 1381 01b0 9842     		cmp	r0, r3
 1382 01b2 0CBF     		ite	eq
 1383 01b4 4FF48000 		moveq	r0, #4194304
 1384 01b8 4FF08060 		movne	r0, #67108864
 1385 01bc 0AE0     		b	.L149
 1386              	.LVL81:
 1387              	.L208:
 537:Drivers/STM32F1xx_HAL_Driver/Src/stm32f1xx_hal_dma.c ****   {
 1388              		.loc 1 537 9 view .LVU436
 1389 01be 083B     		subs	r3, r3, #8
 1390 01c0 02E0     		b	.L131
 1391              	.L213:
 539:Drivers/STM32F1xx_HAL_Driver/Src/stm32f1xx_hal_dma.c ****     {
 1392              		.loc 1 539 9 view .LVU437
 1393 01c2 1A68     		ldr	r2, [r3]
 539:Drivers/STM32F1xx_HAL_Driver/Src/stm32f1xx_hal_dma.c ****     {
 1394              		.loc 1 539 7 view .LVU438
 1395 01c4 1207     		lsls	r2, r2, #28
 1396 01c6 C6D4     		bmi	.L130
 1397              	.L131:
 537:Drivers/STM32F1xx_HAL_Driver/Src/stm32f1xx_hal_dma.c ****   {
 1398              		.loc 1 537 8 is_stmt 1 view .LVU439
 539:Drivers/STM32F1xx_HAL_Driver/Src/stm32f1xx_hal_dma.c ****     {
 1399              		.loc 1 539 5 view .LVU440
 537:Drivers/STM32F1xx_HAL_Driver/Src/stm32f1xx_hal_dma.c ****   {
 1400              		.loc 1 537 9 is_stmt 0 view .LVU441
 1401 01c8 1A68     		ldr	r2, [r3]
 537:Drivers/STM32F1xx_HAL_Driver/Src/stm32f1xx_hal_dma.c ****   {
 1402              		.loc 1 537 8 view .LVU442
 1403 01ca 1542     		tst	r5, r2
 1404 01cc F9D0     		beq	.L213
 576:Drivers/STM32F1xx_HAL_Driver/Src/stm32f1xx_hal_dma.c ****   {
 1405              		.loc 1 576 3 is_stmt 1 view .LVU443
ARM GAS  C:\Users\WENHUA~1\AppData\Local\Temp\ccQSIM2h.s 			page 47


 576:Drivers/STM32F1xx_HAL_Driver/Src/stm32f1xx_hal_dma.c ****   {
 1406              		.loc 1 576 5 is_stmt 0 view .LVU444
 1407 01ce 002F     		cmp	r7, #0
 1408 01d0 3ED0     		beq	.L186
 1409              	.L205:
 588:Drivers/STM32F1xx_HAL_Driver/Src/stm32f1xx_hal_dma.c ****   }
 1410              		.loc 1 588 5 view .LVU445
 1411 01d2 0420     		movs	r0, #4
 1412              	.LVL82:
 1413              	.L149:
 588:Drivers/STM32F1xx_HAL_Driver/Src/stm32f1xx_hal_dma.c ****   }
 1414              		.loc 1 588 5 discriminator 24 view .LVU446
 1415 01d4 444B     		ldr	r3, .L215+24
 1416 01d6 5860     		str	r0, [r3, #4]
 1417              	.L148:
 592:Drivers/STM32F1xx_HAL_Driver/Src/stm32f1xx_hal_dma.c **** 
 1418              		.loc 1 592 3 is_stmt 1 view .LVU447
 592:Drivers/STM32F1xx_HAL_Driver/Src/stm32f1xx_hal_dma.c **** 
 1419              		.loc 1 592 3 view .LVU448
 1420 01d8 0023     		movs	r3, #0
 1421 01da 84F82030 		strb	r3, [r4, #32]
 592:Drivers/STM32F1xx_HAL_Driver/Src/stm32f1xx_hal_dma.c **** 
 1422              		.loc 1 592 3 view .LVU449
 594:Drivers/STM32F1xx_HAL_Driver/Src/stm32f1xx_hal_dma.c **** }
 1423              		.loc 1 594 3 view .LVU450
 594:Drivers/STM32F1xx_HAL_Driver/Src/stm32f1xx_hal_dma.c **** }
 1424              		.loc 1 594 10 is_stmt 0 view .LVU451
 1425 01de 1846     		mov	r0, r3
 595:Drivers/STM32F1xx_HAL_Driver/Src/stm32f1xx_hal_dma.c **** 
 1426              		.loc 1 595 1 view .LVU452
 1427 01e0 BDE8F88F 		pop	{r3, r4, r5, r6, r7, r8, r9, r10, fp, pc}
 1428              	.LVL83:
 1429              	.L202:
 537:Drivers/STM32F1xx_HAL_Driver/Src/stm32f1xx_hal_dma.c ****   {
 1430              		.loc 1 537 9 view .LVU453
 1431 01e4 404B     		ldr	r3, .L215+24
 1432 01e6 02E0     		b	.L134
 1433              	.LVL84:
 1434              	.L214:
 539:Drivers/STM32F1xx_HAL_Driver/Src/stm32f1xx_hal_dma.c ****     {
 1435              		.loc 1 539 9 view .LVU454
 1436 01e8 1A68     		ldr	r2, [r3]
 539:Drivers/STM32F1xx_HAL_Driver/Src/stm32f1xx_hal_dma.c ****     {
 1437              		.loc 1 539 7 view .LVU455
 1438 01ea 1606     		lsls	r6, r2, #24
 1439 01ec B3D4     		bmi	.L130
 1440              	.L134:
 537:Drivers/STM32F1xx_HAL_Driver/Src/stm32f1xx_hal_dma.c ****   {
 1441              		.loc 1 537 8 is_stmt 1 view .LVU456
 539:Drivers/STM32F1xx_HAL_Driver/Src/stm32f1xx_hal_dma.c ****     {
 1442              		.loc 1 539 5 view .LVU457
 537:Drivers/STM32F1xx_HAL_Driver/Src/stm32f1xx_hal_dma.c ****   {
 1443              		.loc 1 537 9 is_stmt 0 view .LVU458
 1444 01ee 1A68     		ldr	r2, [r3]
 537:Drivers/STM32F1xx_HAL_Driver/Src/stm32f1xx_hal_dma.c ****   {
 1445              		.loc 1 537 8 view .LVU459
 1446 01f0 1542     		tst	r5, r2
ARM GAS  C:\Users\WENHUA~1\AppData\Local\Temp\ccQSIM2h.s 			page 48


 1447 01f2 F9D0     		beq	.L214
 576:Drivers/STM32F1xx_HAL_Driver/Src/stm32f1xx_hal_dma.c ****   {
 1448              		.loc 1 576 3 is_stmt 1 view .LVU460
 576:Drivers/STM32F1xx_HAL_Driver/Src/stm32f1xx_hal_dma.c ****   {
 1449              		.loc 1 576 5 is_stmt 0 view .LVU461
 1450 01f4 37B1     		cbz	r7, .L151
 1451              	.L204:
 588:Drivers/STM32F1xx_HAL_Driver/Src/stm32f1xx_hal_dma.c ****   }
 1452              		.loc 1 588 5 view .LVU462
 1453 01f6 4020     		movs	r0, #64
 1454 01f8 ECE7     		b	.L149
 1455              	.L135:
 576:Drivers/STM32F1xx_HAL_Driver/Src/stm32f1xx_hal_dma.c ****   {
 1456              		.loc 1 576 3 is_stmt 1 view .LVU463
 576:Drivers/STM32F1xx_HAL_Driver/Src/stm32f1xx_hal_dma.c ****   {
 1457              		.loc 1 576 5 is_stmt 0 view .LVU464
 1458 01fa 002F     		cmp	r7, #0
 1459 01fc CBD1     		bne	.L153
 1460              	.L152:
 579:Drivers/STM32F1xx_HAL_Driver/Src/stm32f1xx_hal_dma.c **** 
 1461              		.loc 1 579 5 is_stmt 1 view .LVU465
 1462 01fe 344B     		ldr	r3, .L215
 1463 0200 9842     		cmp	r0, r3
 1464 0202 25D0     		beq	.L186
 1465              	.L151:
 579:Drivers/STM32F1xx_HAL_Driver/Src/stm32f1xx_hal_dma.c **** 
 1466              		.loc 1 579 5 is_stmt 0 discriminator 1 view .LVU466
 1467 0204 364B     		ldr	r3, .L215+16
 1468 0206 9842     		cmp	r0, r3
 1469 0208 5FD0     		beq	.L174
 579:Drivers/STM32F1xx_HAL_Driver/Src/stm32f1xx_hal_dma.c **** 
 1470              		.loc 1 579 5 discriminator 3 view .LVU467
 1471 020a 1433     		adds	r3, r3, #20
 1472 020c 9842     		cmp	r0, r3
 1473 020e 72D0     		beq	.L175
 579:Drivers/STM32F1xx_HAL_Driver/Src/stm32f1xx_hal_dma.c **** 
 1474              		.loc 1 579 5 discriminator 5 view .LVU468
 1475 0210 1433     		adds	r3, r3, #20
 1476 0212 9842     		cmp	r0, r3
 1477 0214 7DD0     		beq	.L185
 579:Drivers/STM32F1xx_HAL_Driver/Src/stm32f1xx_hal_dma.c **** 
 1478              		.loc 1 579 5 discriminator 7 view .LVU469
 1479 0216 1433     		adds	r3, r3, #20
 1480 0218 9842     		cmp	r0, r3
 1481 021a 00F08680 		beq	.L188
 579:Drivers/STM32F1xx_HAL_Driver/Src/stm32f1xx_hal_dma.c **** 
 1482              		.loc 1 579 5 discriminator 9 view .LVU470
 1483 021e 1433     		adds	r3, r3, #20
 1484 0220 9842     		cmp	r0, r3
 1485 0222 0CBF     		ite	eq
 1486 0224 4FF40010 		moveq	r0, #2097152
 1487 0228 4FF00070 		movne	r0, #33554432
 1488              	.L147:
 583:Drivers/STM32F1xx_HAL_Driver/Src/stm32f1xx_hal_dma.c ****   }
 1489              		.loc 1 583 17 discriminator 24 view .LVU471
 1490 022c 0123     		movs	r3, #1
 579:Drivers/STM32F1xx_HAL_Driver/Src/stm32f1xx_hal_dma.c **** 
ARM GAS  C:\Users\WENHUA~1\AppData\Local\Temp\ccQSIM2h.s 			page 49


 1491              		.loc 1 579 5 discriminator 24 view .LVU472
 1492 022e 2E4A     		ldr	r2, .L215+24
 1493 0230 5060     		str	r0, [r2, #4]
 583:Drivers/STM32F1xx_HAL_Driver/Src/stm32f1xx_hal_dma.c ****   }
 1494              		.loc 1 583 5 is_stmt 1 discriminator 24 view .LVU473
 583:Drivers/STM32F1xx_HAL_Driver/Src/stm32f1xx_hal_dma.c ****   }
 1495              		.loc 1 583 17 is_stmt 0 discriminator 24 view .LVU474
 1496 0232 84F82130 		strb	r3, [r4, #33]
 1497 0236 CFE7     		b	.L148
 1498              	.LVL85:
 1499              	.L164:
 531:Drivers/STM32F1xx_HAL_Driver/Src/stm32f1xx_hal_dma.c ****   }
 1500              		.loc 1 531 12 view .LVU475
 1501 0238 4FF48045 		mov	r5, #16384
 1502 023c 11E7     		b	.L121
 1503              	.L158:
 526:Drivers/STM32F1xx_HAL_Driver/Src/stm32f1xx_hal_dma.c ****   }
 1504              		.loc 1 526 12 view .LVU476
 1505 023e 4FF40055 		mov	r5, #8192
 1506 0242 0EE7     		b	.L121
 1507              	.L161:
 531:Drivers/STM32F1xx_HAL_Driver/Src/stm32f1xx_hal_dma.c ****   }
 1508              		.loc 1 531 12 view .LVU477
 1509 0244 0425     		movs	r5, #4
 1510 0246 0CE7     		b	.L121
 1511              	.L156:
 526:Drivers/STM32F1xx_HAL_Driver/Src/stm32f1xx_hal_dma.c ****   }
 1512              		.loc 1 526 12 view .LVU478
 1513 0248 2025     		movs	r5, #32
 1514 024a 0AE7     		b	.L121
 1515              	.L162:
 531:Drivers/STM32F1xx_HAL_Driver/Src/stm32f1xx_hal_dma.c ****   }
 1516              		.loc 1 531 12 view .LVU479
 1517 024c 4025     		movs	r5, #64
 1518 024e 08E7     		b	.L121
 1519              	.LVL86:
 1520              	.L186:
 579:Drivers/STM32F1xx_HAL_Driver/Src/stm32f1xx_hal_dma.c **** 
 1521              		.loc 1 579 5 view .LVU480
 1522 0250 0220     		movs	r0, #2
 1523 0252 EBE7     		b	.L147
 1524              	.LVL87:
 1525              	.L157:
 526:Drivers/STM32F1xx_HAL_Driver/Src/stm32f1xx_hal_dma.c ****   }
 1526              		.loc 1 526 12 view .LVU481
 1527 0254 4FF40075 		mov	r5, #512
 1528 0258 03E7     		b	.L121
 1529              	.L163:
 531:Drivers/STM32F1xx_HAL_Driver/Src/stm32f1xx_hal_dma.c ****   }
 1530              		.loc 1 531 12 view .LVU482
 1531 025a 4FF48065 		mov	r5, #1024
 1532 025e 00E7     		b	.L121
 1533              	.LVL88:
 1534              	.L211:
 537:Drivers/STM32F1xx_HAL_Driver/Src/stm32f1xx_hal_dma.c ****   {
 1535              		.loc 1 537 8 is_stmt 1 view .LVU483
 1536 0260 15EA0E0F 		tst	r5, lr
ARM GAS  C:\Users\WENHUA~1\AppData\Local\Temp\ccQSIM2h.s 			page 50


 1537 0264 52D1     		bne	.L142
 539:Drivers/STM32F1xx_HAL_Driver/Src/stm32f1xx_hal_dma.c ****     {
 1538              		.loc 1 539 5 view .LVU484
 539:Drivers/STM32F1xx_HAL_Driver/Src/stm32f1xx_hal_dma.c ****     {
 1539              		.loc 1 539 9 is_stmt 0 view .LVU485
 1540 0266 DCF80000 		ldr	r0, [ip]
 539:Drivers/STM32F1xx_HAL_Driver/Src/stm32f1xx_hal_dma.c ****     {
 1541              		.loc 1 539 7 view .LVU486
 1542 026a 0304     		lsls	r3, r0, #16
 1543 026c 3FF573AF 		bmi	.L130
 1544              	.L123:
 560:Drivers/STM32F1xx_HAL_Driver/Src/stm32f1xx_hal_dma.c ****       {
 1545              		.loc 1 560 7 is_stmt 1 view .LVU487
 560:Drivers/STM32F1xx_HAL_Driver/Src/stm32f1xx_hal_dma.c ****       {
 1546              		.loc 1 560 9 is_stmt 0 view .LVU488
 1547 0270 4EB1     		cbz	r6, .L125
 560:Drivers/STM32F1xx_HAL_Driver/Src/stm32f1xx_hal_dma.c ****       {
 1548              		.loc 1 560 31 discriminator 1 view .LVU489
 1549 0272 FFF7FEFF 		bl	HAL_GetTick
 1550              	.LVL89:
 560:Drivers/STM32F1xx_HAL_Driver/Src/stm32f1xx_hal_dma.c ****       {
 1551              		.loc 1 560 45 discriminator 1 view .LVU490
 1552 0276 A0EB0800 		sub	r0, r0, r8
 560:Drivers/STM32F1xx_HAL_Driver/Src/stm32f1xx_hal_dma.c ****       {
 1553              		.loc 1 560 26 discriminator 1 view .LVU491
 1554 027a B042     		cmp	r0, r6
 1555 027c 154B     		ldr	r3, .L215+4
 1556 027e 164A     		ldr	r2, .L215+8
 1557 0280 1649     		ldr	r1, .L215+12
 1558 0282 7FF6FAAE 		bls	.L122
 1559              	.L125:
 563:Drivers/STM32F1xx_HAL_Driver/Src/stm32f1xx_hal_dma.c **** 
 1560              		.loc 1 563 9 is_stmt 1 view .LVU492
 569:Drivers/STM32F1xx_HAL_Driver/Src/stm32f1xx_hal_dma.c **** 
 1561              		.loc 1 569 9 is_stmt 0 view .LVU493
 1562 0286 4FF48072 		mov	r2, #256
 563:Drivers/STM32F1xx_HAL_Driver/Src/stm32f1xx_hal_dma.c **** 
 1563              		.loc 1 563 9 view .LVU494
 1564 028a A36B     		ldr	r3, [r4, #56]
 571:Drivers/STM32F1xx_HAL_Driver/Src/stm32f1xx_hal_dma.c ****       }
 1565              		.loc 1 571 16 view .LVU495
 1566 028c 0120     		movs	r0, #1
 563:Drivers/STM32F1xx_HAL_Driver/Src/stm32f1xx_hal_dma.c **** 
 1567              		.loc 1 563 9 view .LVU496
 1568 028e 43F02003 		orr	r3, r3, #32
 1569 0292 A363     		str	r3, [r4, #56]
 566:Drivers/STM32F1xx_HAL_Driver/Src/stm32f1xx_hal_dma.c **** 
 1570              		.loc 1 566 9 is_stmt 1 view .LVU497
 569:Drivers/STM32F1xx_HAL_Driver/Src/stm32f1xx_hal_dma.c **** 
 1571              		.loc 1 569 9 view .LVU498
 569:Drivers/STM32F1xx_HAL_Driver/Src/stm32f1xx_hal_dma.c **** 
 1572              		.loc 1 569 9 view .LVU499
 1573 0294 2284     		strh	r2, [r4, #32]	@ movhi
 569:Drivers/STM32F1xx_HAL_Driver/Src/stm32f1xx_hal_dma.c **** 
 1574              		.loc 1 569 9 view .LVU500
 571:Drivers/STM32F1xx_HAL_Driver/Src/stm32f1xx_hal_dma.c ****       }
 1575              		.loc 1 571 9 view .LVU501
ARM GAS  C:\Users\WENHUA~1\AppData\Local\Temp\ccQSIM2h.s 			page 51


 571:Drivers/STM32F1xx_HAL_Driver/Src/stm32f1xx_hal_dma.c ****       }
 1576              		.loc 1 571 16 is_stmt 0 view .LVU502
 1577 0296 C0E6     		b	.L200
 1578              	.L143:
 576:Drivers/STM32F1xx_HAL_Driver/Src/stm32f1xx_hal_dma.c ****   {
 1579              		.loc 1 576 3 is_stmt 1 view .LVU503
 576:Drivers/STM32F1xx_HAL_Driver/Src/stm32f1xx_hal_dma.c ****   {
 1580              		.loc 1 576 5 is_stmt 0 view .LVU504
 1581 0298 002F     		cmp	r7, #0
 1582 029a B0D0     		beq	.L152
 588:Drivers/STM32F1xx_HAL_Driver/Src/stm32f1xx_hal_dma.c ****   }
 1583              		.loc 1 588 5 is_stmt 1 view .LVU505
 1584 029c 0C4B     		ldr	r3, .L215
 1585 029e 9842     		cmp	r0, r3
 1586 02a0 97D0     		beq	.L205
 1587 02a2 75E7     		b	.L154
 1588              	.L210:
 537:Drivers/STM32F1xx_HAL_Driver/Src/stm32f1xx_hal_dma.c ****   {
 1589              		.loc 1 537 8 view .LVU506
 1590 02a4 15EA0E0F 		tst	r5, lr
 1591 02a8 3CD1     		bne	.L140
 539:Drivers/STM32F1xx_HAL_Driver/Src/stm32f1xx_hal_dma.c ****     {
 1592              		.loc 1 539 5 view .LVU507
 539:Drivers/STM32F1xx_HAL_Driver/Src/stm32f1xx_hal_dma.c ****     {
 1593              		.loc 1 539 9 is_stmt 0 view .LVU508
 1594 02aa DCF80000 		ldr	r0, [ip]
 539:Drivers/STM32F1xx_HAL_Driver/Src/stm32f1xx_hal_dma.c ****     {
 1595              		.loc 1 539 7 view .LVU509
 1596 02ae 0203     		lsls	r2, r0, #12
 1597 02b0 DED5     		bpl	.L123
 1598 02b2 50E7     		b	.L130
 1599              	.L138:
 537:Drivers/STM32F1xx_HAL_Driver/Src/stm32f1xx_hal_dma.c ****   {
 1600              		.loc 1 537 8 is_stmt 1 view .LVU510
 537:Drivers/STM32F1xx_HAL_Driver/Src/stm32f1xx_hal_dma.c ****   {
 1601              		.loc 1 537 9 is_stmt 0 view .LVU511
 1602 02b4 0C48     		ldr	r0, .L215+24
 1603 02b6 D0F800C0 		ldr	ip, [r0]
 537:Drivers/STM32F1xx_HAL_Driver/Src/stm32f1xx_hal_dma.c ****   {
 1604              		.loc 1 537 8 view .LVU512
 1605 02ba 1CEA050F 		tst	ip, r5
 1606 02be 7FF463AF 		bne	.L137
 539:Drivers/STM32F1xx_HAL_Driver/Src/stm32f1xx_hal_dma.c ****     {
 1607              		.loc 1 539 5 is_stmt 1 view .LVU513
 539:Drivers/STM32F1xx_HAL_Driver/Src/stm32f1xx_hal_dma.c ****     {
 1608              		.loc 1 539 9 is_stmt 0 view .LVU514
 1609 02c2 0068     		ldr	r0, [r0]
 539:Drivers/STM32F1xx_HAL_Driver/Src/stm32f1xx_hal_dma.c ****     {
 1610              		.loc 1 539 7 view .LVU515
 1611 02c4 0302     		lsls	r3, r0, #8
 1612 02c6 D3D5     		bpl	.L123
 1613 02c8 45E7     		b	.L130
 1614              	.LVL90:
 1615              	.L174:
 579:Drivers/STM32F1xx_HAL_Driver/Src/stm32f1xx_hal_dma.c **** 
 1616              		.loc 1 579 5 view .LVU516
 1617 02ca 2020     		movs	r0, #32
ARM GAS  C:\Users\WENHUA~1\AppData\Local\Temp\ccQSIM2h.s 			page 52


 1618 02cc AEE7     		b	.L147
 1619              	.L216:
 1620 02ce 00BF     		.align	2
 1621              	.L215:
 1622 02d0 08000240 		.word	1073872904
 1623 02d4 6C000240 		.word	1073873004
 1624 02d8 58000240 		.word	1073872984
 1625 02dc 44000240 		.word	1073872964
 1626 02e0 1C000240 		.word	1073872924
 1627 02e4 30000240 		.word	1073872944
 1628 02e8 00000240 		.word	1073872896
 1629              	.LVL91:
 1630              	.L170:
 539:Drivers/STM32F1xx_HAL_Driver/Src/stm32f1xx_hal_dma.c ****     {
 1631              		.loc 1 539 9 view .LVU517
 1632 02ec 0820     		movs	r0, #8
 1633 02ee 2EE7     		b	.L144
 1634              	.LVL92:
 1635              	.L159:
 526:Drivers/STM32F1xx_HAL_Driver/Src/stm32f1xx_hal_dma.c ****   }
 1636              		.loc 1 526 12 view .LVU518
 1637 02f0 4FF40035 		mov	r5, #131072
 1638 02f4 B5E6     		b	.L121
 1639              	.LVL93:
 1640              	.L175:
 579:Drivers/STM32F1xx_HAL_Driver/Src/stm32f1xx_hal_dma.c **** 
 1641              		.loc 1 579 5 view .LVU519
 1642 02f6 4FF40070 		mov	r0, #512
 1643 02fa 97E7     		b	.L147
 1644              	.LVL94:
 1645              	.L165:
 531:Drivers/STM32F1xx_HAL_Driver/Src/stm32f1xx_hal_dma.c ****   }
 1646              		.loc 1 531 12 view .LVU520
 1647 02fc 4FF48025 		mov	r5, #262144
 1648 0300 AFE6     		b	.L121
 1649              	.LVL95:
 1650              	.L181:
 588:Drivers/STM32F1xx_HAL_Driver/Src/stm32f1xx_hal_dma.c ****   }
 1651              		.loc 1 588 5 view .LVU521
 1652 0302 4FF48060 		mov	r0, #1024
 1653 0306 65E7     		b	.L149
 1654              	.LVL96:
 1655              	.L171:
 539:Drivers/STM32F1xx_HAL_Driver/Src/stm32f1xx_hal_dma.c ****     {
 1656              		.loc 1 539 9 view .LVU522
 1657 0308 8020     		movs	r0, #128
 1658 030a 20E7     		b	.L144
 1659              	.L142:
 576:Drivers/STM32F1xx_HAL_Driver/Src/stm32f1xx_hal_dma.c ****   {
 1660              		.loc 1 576 3 is_stmt 1 view .LVU523
 576:Drivers/STM32F1xx_HAL_Driver/Src/stm32f1xx_hal_dma.c ****   {
 1661              		.loc 1 576 5 is_stmt 0 view .LVU524
 1662 030c 002F     		cmp	r7, #0
 1663 030e 7FF43FAF 		bne	.L154
 1664              	.LVL97:
 1665              	.L185:
 579:Drivers/STM32F1xx_HAL_Driver/Src/stm32f1xx_hal_dma.c **** 
ARM GAS  C:\Users\WENHUA~1\AppData\Local\Temp\ccQSIM2h.s 			page 53


 1666              		.loc 1 579 5 view .LVU525
 1667 0312 4FF40050 		mov	r0, #8192
 1668 0316 89E7     		b	.L147
 1669              	.L182:
 588:Drivers/STM32F1xx_HAL_Driver/Src/stm32f1xx_hal_dma.c ****   }
 1670              		.loc 1 588 5 view .LVU526
 1671 0318 4FF48040 		mov	r0, #16384
 1672 031c 5AE7     		b	.L149
 1673              	.L183:
 1674 031e 4FF48020 		mov	r0, #262144
 1675 0322 57E7     		b	.L149
 1676              	.LVL98:
 1677              	.L140:
 576:Drivers/STM32F1xx_HAL_Driver/Src/stm32f1xx_hal_dma.c ****   {
 1678              		.loc 1 576 3 is_stmt 1 view .LVU527
 576:Drivers/STM32F1xx_HAL_Driver/Src/stm32f1xx_hal_dma.c ****   {
 1679              		.loc 1 576 5 is_stmt 0 view .LVU528
 1680 0324 002F     		cmp	r7, #0
 1681 0326 7FF433AF 		bne	.L154
 1682              	.LVL99:
 1683              	.L188:
 579:Drivers/STM32F1xx_HAL_Driver/Src/stm32f1xx_hal_dma.c **** 
 1684              		.loc 1 579 5 view .LVU529
 1685 032a 4FF40030 		mov	r0, #131072
 1686 032e 7DE7     		b	.L147
 1687              	.LVL100:
 1688              	.L187:
 579:Drivers/STM32F1xx_HAL_Driver/Src/stm32f1xx_hal_dma.c **** 
 1689              		.loc 1 579 5 view .LVU530
 1690 0330 4FF40010 		mov	r0, #2097152
 1691 0334 7AE7     		b	.L147
 1692              		.cfi_endproc
 1693              	.LFE71:
 1695 0336 00BF     		.section	.text.HAL_DMA_IRQHandler,"ax",%progbits
 1696              		.align	1
 1697              		.p2align 2,,3
 1698              		.global	HAL_DMA_IRQHandler
 1699              		.syntax unified
 1700              		.thumb
 1701              		.thumb_func
 1703              	HAL_DMA_IRQHandler:
 1704              	.LVL101:
 1705              	.LFB72:
 604:Drivers/STM32F1xx_HAL_Driver/Src/stm32f1xx_hal_dma.c ****   uint32_t flag_it = hdma->DmaBaseAddress->ISR;
 1706              		.loc 1 604 1 is_stmt 1 view -0
 1707              		.cfi_startproc
 1708              		@ args = 0, pretend = 0, frame = 0
 1709              		@ frame_needed = 0, uses_anonymous_args = 0
 1710              		@ link register save eliminated.
 605:Drivers/STM32F1xx_HAL_Driver/Src/stm32f1xx_hal_dma.c ****   uint32_t source_it = hdma->Instance->CCR;
 1711              		.loc 1 605 3 view .LVU532
 609:Drivers/STM32F1xx_HAL_Driver/Src/stm32f1xx_hal_dma.c ****   {
 1712              		.loc 1 609 33 is_stmt 0 view .LVU533
 1713 0000 0422     		movs	r2, #4
 604:Drivers/STM32F1xx_HAL_Driver/Src/stm32f1xx_hal_dma.c ****   uint32_t flag_it = hdma->DmaBaseAddress->ISR;
 1714              		.loc 1 604 1 view .LVU534
 1715 0002 70B4     		push	{r4, r5, r6}
ARM GAS  C:\Users\WENHUA~1\AppData\Local\Temp\ccQSIM2h.s 			page 54


 1716              	.LCFI10:
 1717              		.cfi_def_cfa_offset 12
 1718              		.cfi_offset 4, -12
 1719              		.cfi_offset 5, -8
 1720              		.cfi_offset 6, -4
 605:Drivers/STM32F1xx_HAL_Driver/Src/stm32f1xx_hal_dma.c ****   uint32_t source_it = hdma->Instance->CCR;
 1721              		.loc 1 605 26 view .LVU535
 1722 0004 C66B     		ldr	r6, [r0, #60]
 609:Drivers/STM32F1xx_HAL_Driver/Src/stm32f1xx_hal_dma.c ****   {
 1723              		.loc 1 609 40 view .LVU536
 1724 0006 016C     		ldr	r1, [r0, #64]
 605:Drivers/STM32F1xx_HAL_Driver/Src/stm32f1xx_hal_dma.c ****   uint32_t source_it = hdma->Instance->CCR;
 1725              		.loc 1 605 12 view .LVU537
 1726 0008 3468     		ldr	r4, [r6]
 1727              	.LVL102:
 606:Drivers/STM32F1xx_HAL_Driver/Src/stm32f1xx_hal_dma.c ****   
 1728              		.loc 1 606 3 is_stmt 1 view .LVU538
 606:Drivers/STM32F1xx_HAL_Driver/Src/stm32f1xx_hal_dma.c ****   
 1729              		.loc 1 606 28 is_stmt 0 view .LVU539
 1730 000a 0368     		ldr	r3, [r0]
 609:Drivers/STM32F1xx_HAL_Driver/Src/stm32f1xx_hal_dma.c ****   {
 1731              		.loc 1 609 33 view .LVU540
 1732 000c 8A40     		lsls	r2, r2, r1
 609:Drivers/STM32F1xx_HAL_Driver/Src/stm32f1xx_hal_dma.c ****   {
 1733              		.loc 1 609 6 view .LVU541
 1734 000e 2242     		tst	r2, r4
 606:Drivers/STM32F1xx_HAL_Driver/Src/stm32f1xx_hal_dma.c ****   
 1735              		.loc 1 606 12 view .LVU542
 1736 0010 1D68     		ldr	r5, [r3]
 1737              	.LVL103:
 609:Drivers/STM32F1xx_HAL_Driver/Src/stm32f1xx_hal_dma.c ****   {
 1738              		.loc 1 609 3 is_stmt 1 view .LVU543
 609:Drivers/STM32F1xx_HAL_Driver/Src/stm32f1xx_hal_dma.c ****   {
 1739              		.loc 1 609 6 is_stmt 0 view .LVU544
 1740 0012 1FD0     		beq	.L218
 609:Drivers/STM32F1xx_HAL_Driver/Src/stm32f1xx_hal_dma.c ****   {
 1741              		.loc 1 609 67 discriminator 1 view .LVU545
 1742 0014 6A07     		lsls	r2, r5, #29
 1743 0016 1DD5     		bpl	.L218
 612:Drivers/STM32F1xx_HAL_Driver/Src/stm32f1xx_hal_dma.c ****     {
 1744              		.loc 1 612 5 is_stmt 1 view .LVU546
 612:Drivers/STM32F1xx_HAL_Driver/Src/stm32f1xx_hal_dma.c ****     {
 1745              		.loc 1 612 23 is_stmt 0 view .LVU547
 1746 0018 1A68     		ldr	r2, [r3]
 612:Drivers/STM32F1xx_HAL_Driver/Src/stm32f1xx_hal_dma.c ****     {
 1747              		.loc 1 612 7 view .LVU548
 1748 001a 9106     		lsls	r1, r2, #26
 1749 001c 03D4     		bmi	.L219
 615:Drivers/STM32F1xx_HAL_Driver/Src/stm32f1xx_hal_dma.c ****     }
 1750              		.loc 1 615 7 is_stmt 1 view .LVU549
 1751 001e 1A68     		ldr	r2, [r3]
 1752 0020 22F00402 		bic	r2, r2, #4
 1753 0024 1A60     		str	r2, [r3]
 1754              	.L219:
 618:Drivers/STM32F1xx_HAL_Driver/Src/stm32f1xx_hal_dma.c **** 
 1755              		.loc 1 618 5 view .LVU550
 1756 0026 3E4A     		ldr	r2, .L265
ARM GAS  C:\Users\WENHUA~1\AppData\Local\Temp\ccQSIM2h.s 			page 55


 1757 0028 9342     		cmp	r3, r2
 1758 002a 50D0     		beq	.L227
 618:Drivers/STM32F1xx_HAL_Driver/Src/stm32f1xx_hal_dma.c **** 
 1759              		.loc 1 618 5 is_stmt 0 discriminator 1 view .LVU551
 1760 002c 1432     		adds	r2, r2, #20
 1761 002e 9342     		cmp	r3, r2
 1762 0030 60D0     		beq	.L228
 618:Drivers/STM32F1xx_HAL_Driver/Src/stm32f1xx_hal_dma.c **** 
 1763              		.loc 1 618 5 discriminator 3 view .LVU552
 1764 0032 1432     		adds	r2, r2, #20
 1765 0034 9342     		cmp	r3, r2
 1766 0036 67D0     		beq	.L229
 618:Drivers/STM32F1xx_HAL_Driver/Src/stm32f1xx_hal_dma.c **** 
 1767              		.loc 1 618 5 discriminator 5 view .LVU553
 1768 0038 1432     		adds	r2, r2, #20
 1769 003a 9342     		cmp	r3, r2
 1770 003c 6AD0     		beq	.L230
 618:Drivers/STM32F1xx_HAL_Driver/Src/stm32f1xx_hal_dma.c **** 
 1771              		.loc 1 618 5 discriminator 7 view .LVU554
 1772 003e 1432     		adds	r2, r2, #20
 1773 0040 9342     		cmp	r3, r2
 1774 0042 5CD0     		beq	.L231
 618:Drivers/STM32F1xx_HAL_Driver/Src/stm32f1xx_hal_dma.c **** 
 1775              		.loc 1 618 5 discriminator 9 view .LVU555
 1776 0044 1432     		adds	r2, r2, #20
 1777 0046 9342     		cmp	r3, r2
 1778 0048 0CBF     		ite	eq
 1779 004a 4FF48003 		moveq	r3, #4194304
 1780 004e 4FF08063 		movne	r3, #67108864
 1781 0052 3DE0     		b	.L220
 1782              	.L218:
 631:Drivers/STM32F1xx_HAL_Driver/Src/stm32f1xx_hal_dma.c ****   {
 1783              		.loc 1 631 8 is_stmt 1 view .LVU556
 631:Drivers/STM32F1xx_HAL_Driver/Src/stm32f1xx_hal_dma.c ****   {
 1784              		.loc 1 631 38 is_stmt 0 view .LVU557
 1785 0054 0222     		movs	r2, #2
 1786 0056 8A40     		lsls	r2, r2, r1
 631:Drivers/STM32F1xx_HAL_Driver/Src/stm32f1xx_hal_dma.c ****   {
 1787              		.loc 1 631 11 view .LVU558
 1788 0058 2242     		tst	r2, r4
 1789 005a 22D0     		beq	.L223
 631:Drivers/STM32F1xx_HAL_Driver/Src/stm32f1xx_hal_dma.c ****   {
 1790              		.loc 1 631 72 discriminator 1 view .LVU559
 1791 005c AA07     		lsls	r2, r5, #30
 1792 005e 20D5     		bpl	.L223
 633:Drivers/STM32F1xx_HAL_Driver/Src/stm32f1xx_hal_dma.c ****     {
 1793              		.loc 1 633 5 is_stmt 1 view .LVU560
 633:Drivers/STM32F1xx_HAL_Driver/Src/stm32f1xx_hal_dma.c ****     {
 1794              		.loc 1 633 23 is_stmt 0 view .LVU561
 1795 0060 1A68     		ldr	r2, [r3]
 633:Drivers/STM32F1xx_HAL_Driver/Src/stm32f1xx_hal_dma.c ****     {
 1796              		.loc 1 633 7 view .LVU562
 1797 0062 9106     		lsls	r1, r2, #26
 1798 0064 06D4     		bmi	.L224
 636:Drivers/STM32F1xx_HAL_Driver/Src/stm32f1xx_hal_dma.c **** 
 1799              		.loc 1 636 7 is_stmt 1 view .LVU563
 639:Drivers/STM32F1xx_HAL_Driver/Src/stm32f1xx_hal_dma.c ****     }
ARM GAS  C:\Users\WENHUA~1\AppData\Local\Temp\ccQSIM2h.s 			page 56


 1800              		.loc 1 639 19 is_stmt 0 view .LVU564
 1801 0066 0121     		movs	r1, #1
 636:Drivers/STM32F1xx_HAL_Driver/Src/stm32f1xx_hal_dma.c **** 
 1802              		.loc 1 636 7 view .LVU565
 1803 0068 1A68     		ldr	r2, [r3]
 1804 006a 22F00A02 		bic	r2, r2, #10
 1805 006e 1A60     		str	r2, [r3]
 639:Drivers/STM32F1xx_HAL_Driver/Src/stm32f1xx_hal_dma.c ****     }
 1806              		.loc 1 639 7 is_stmt 1 view .LVU566
 639:Drivers/STM32F1xx_HAL_Driver/Src/stm32f1xx_hal_dma.c ****     }
 1807              		.loc 1 639 19 is_stmt 0 view .LVU567
 1808 0070 80F82110 		strb	r1, [r0, #33]
 1809              	.L224:
 642:Drivers/STM32F1xx_HAL_Driver/Src/stm32f1xx_hal_dma.c **** 
 1810              		.loc 1 642 7 is_stmt 1 view .LVU568
 1811 0074 2A4A     		ldr	r2, .L265
 1812 0076 9342     		cmp	r3, r2
 1813 0078 31D0     		beq	.L233
 642:Drivers/STM32F1xx_HAL_Driver/Src/stm32f1xx_hal_dma.c **** 
 1814              		.loc 1 642 7 is_stmt 0 discriminator 1 view .LVU569
 1815 007a 1432     		adds	r2, r2, #20
 1816 007c 9342     		cmp	r3, r2
 1817 007e 41D0     		beq	.L234
 642:Drivers/STM32F1xx_HAL_Driver/Src/stm32f1xx_hal_dma.c **** 
 1818              		.loc 1 642 7 discriminator 3 view .LVU570
 1819 0080 1432     		adds	r2, r2, #20
 1820 0082 9342     		cmp	r3, r2
 1821 0084 43D0     		beq	.L235
 642:Drivers/STM32F1xx_HAL_Driver/Src/stm32f1xx_hal_dma.c **** 
 1822              		.loc 1 642 7 discriminator 5 view .LVU571
 1823 0086 1432     		adds	r2, r2, #20
 1824 0088 9342     		cmp	r3, r2
 1825 008a 35D0     		beq	.L236
 642:Drivers/STM32F1xx_HAL_Driver/Src/stm32f1xx_hal_dma.c **** 
 1826              		.loc 1 642 7 discriminator 7 view .LVU572
 1827 008c 1432     		adds	r2, r2, #20
 1828 008e 9342     		cmp	r3, r2
 1829 0090 43D0     		beq	.L237
 642:Drivers/STM32F1xx_HAL_Driver/Src/stm32f1xx_hal_dma.c **** 
 1830              		.loc 1 642 7 discriminator 9 view .LVU573
 1831 0092 1432     		adds	r2, r2, #20
 1832 0094 9342     		cmp	r3, r2
 1833 0096 0CBF     		ite	eq
 1834 0098 4FF40013 		moveq	r3, #2097152
 1835 009c 4FF00073 		movne	r3, #33554432
 1836 00a0 1EE0     		b	.L225
 1837              	.L223:
 655:Drivers/STM32F1xx_HAL_Driver/Src/stm32f1xx_hal_dma.c ****   {
 1838              		.loc 1 655 8 is_stmt 1 view .LVU574
 655:Drivers/STM32F1xx_HAL_Driver/Src/stm32f1xx_hal_dma.c ****   {
 1839              		.loc 1 655 48 is_stmt 0 view .LVU575
 1840 00a2 0822     		movs	r2, #8
 1841 00a4 8A40     		lsls	r2, r2, r1
 655:Drivers/STM32F1xx_HAL_Driver/Src/stm32f1xx_hal_dma.c ****   {
 1842              		.loc 1 655 11 view .LVU576
 1843 00a6 2242     		tst	r2, r4
 1844 00a8 17D0     		beq	.L217
ARM GAS  C:\Users\WENHUA~1\AppData\Local\Temp\ccQSIM2h.s 			page 57


 655:Drivers/STM32F1xx_HAL_Driver/Src/stm32f1xx_hal_dma.c ****   {
 1845              		.loc 1 655 73 discriminator 1 view .LVU577
 1846 00aa 2A07     		lsls	r2, r5, #28
 1847 00ac 15D5     		bpl	.L217
 660:Drivers/STM32F1xx_HAL_Driver/Src/stm32f1xx_hal_dma.c **** 
 1848              		.loc 1 660 5 is_stmt 1 view .LVU578
 1849 00ae 1A68     		ldr	r2, [r3]
 672:Drivers/STM32F1xx_HAL_Driver/Src/stm32f1xx_hal_dma.c **** 
 1850              		.loc 1 672 5 is_stmt 0 view .LVU579
 1851 00b0 4FF48074 		mov	r4, #256
 1852              	.LVL104:
 660:Drivers/STM32F1xx_HAL_Driver/Src/stm32f1xx_hal_dma.c **** 
 1853              		.loc 1 660 5 view .LVU580
 1854 00b4 22F00E02 		bic	r2, r2, #14
 1855 00b8 1A60     		str	r2, [r3]
 663:Drivers/STM32F1xx_HAL_Driver/Src/stm32f1xx_hal_dma.c **** 
 1856              		.loc 1 663 5 is_stmt 1 view .LVU581
 663:Drivers/STM32F1xx_HAL_Driver/Src/stm32f1xx_hal_dma.c **** 
 1857              		.loc 1 663 48 is_stmt 0 view .LVU582
 1858 00ba 0123     		movs	r3, #1
 674:Drivers/STM32F1xx_HAL_Driver/Src/stm32f1xx_hal_dma.c ****     {
 1859              		.loc 1 674 13 view .LVU583
 1860 00bc 026B     		ldr	r2, [r0, #48]
 663:Drivers/STM32F1xx_HAL_Driver/Src/stm32f1xx_hal_dma.c **** 
 1861              		.loc 1 663 48 view .LVU584
 1862 00be 03FA01F1 		lsl	r1, r3, r1
 663:Drivers/STM32F1xx_HAL_Driver/Src/stm32f1xx_hal_dma.c **** 
 1863              		.loc 1 663 32 view .LVU585
 1864 00c2 7160     		str	r1, [r6, #4]
 666:Drivers/STM32F1xx_HAL_Driver/Src/stm32f1xx_hal_dma.c **** 
 1865              		.loc 1 666 5 is_stmt 1 view .LVU586
 666:Drivers/STM32F1xx_HAL_Driver/Src/stm32f1xx_hal_dma.c **** 
 1866              		.loc 1 666 21 is_stmt 0 view .LVU587
 1867 00c4 8363     		str	r3, [r0, #56]
 669:Drivers/STM32F1xx_HAL_Driver/Src/stm32f1xx_hal_dma.c **** 
 1868              		.loc 1 669 5 is_stmt 1 view .LVU588
 672:Drivers/STM32F1xx_HAL_Driver/Src/stm32f1xx_hal_dma.c **** 
 1869              		.loc 1 672 5 view .LVU589
 672:Drivers/STM32F1xx_HAL_Driver/Src/stm32f1xx_hal_dma.c **** 
 1870              		.loc 1 672 5 view .LVU590
 1871 00c6 0484     		strh	r4, [r0, #32]	@ movhi
 672:Drivers/STM32F1xx_HAL_Driver/Src/stm32f1xx_hal_dma.c **** 
 1872              		.loc 1 672 5 view .LVU591
 674:Drivers/STM32F1xx_HAL_Driver/Src/stm32f1xx_hal_dma.c ****     {
 1873              		.loc 1 674 5 view .LVU592
 674:Drivers/STM32F1xx_HAL_Driver/Src/stm32f1xx_hal_dma.c ****     {
 1874              		.loc 1 674 8 is_stmt 0 view .LVU593
 1875 00c8 3AB1     		cbz	r2, .L217
 1876              	.L264:
 677:Drivers/STM32F1xx_HAL_Driver/Src/stm32f1xx_hal_dma.c ****     }
 1877              		.loc 1 677 7 is_stmt 1 view .LVU594
 681:Drivers/STM32F1xx_HAL_Driver/Src/stm32f1xx_hal_dma.c **** 
 1878              		.loc 1 681 1 is_stmt 0 view .LVU595
 1879 00ca 70BC     		pop	{r4, r5, r6}
 1880              	.LCFI11:
 1881              		.cfi_remember_state
 1882              		.cfi_restore 6
ARM GAS  C:\Users\WENHUA~1\AppData\Local\Temp\ccQSIM2h.s 			page 58


 1883              		.cfi_restore 5
 1884              		.cfi_restore 4
 1885              		.cfi_def_cfa_offset 0
 1886              	.LVL105:
 677:Drivers/STM32F1xx_HAL_Driver/Src/stm32f1xx_hal_dma.c ****     }
 1887              		.loc 1 677 7 view .LVU596
 1888 00cc 1047     		bx	r2	@ indirect register sibling call
 1889              	.LVL106:
 1890              	.L227:
 1891              	.LCFI12:
 1892              		.cfi_restore_state
 618:Drivers/STM32F1xx_HAL_Driver/Src/stm32f1xx_hal_dma.c **** 
 1893              		.loc 1 618 5 view .LVU597
 1894 00ce 0423     		movs	r3, #4
 1895              	.L220:
 618:Drivers/STM32F1xx_HAL_Driver/Src/stm32f1xx_hal_dma.c **** 
 1896              		.loc 1 618 5 discriminator 24 view .LVU598
 1897 00d0 1449     		ldr	r1, .L265+4
 623:Drivers/STM32F1xx_HAL_Driver/Src/stm32f1xx_hal_dma.c ****     {
 1898              		.loc 1 623 12 discriminator 24 view .LVU599
 1899 00d2 C26A     		ldr	r2, [r0, #44]
 618:Drivers/STM32F1xx_HAL_Driver/Src/stm32f1xx_hal_dma.c **** 
 1900              		.loc 1 618 5 discriminator 24 view .LVU600
 1901 00d4 4B60     		str	r3, [r1, #4]
 623:Drivers/STM32F1xx_HAL_Driver/Src/stm32f1xx_hal_dma.c ****     {
 1902              		.loc 1 623 5 is_stmt 1 discriminator 24 view .LVU601
 623:Drivers/STM32F1xx_HAL_Driver/Src/stm32f1xx_hal_dma.c ****     {
 1903              		.loc 1 623 7 is_stmt 0 discriminator 24 view .LVU602
 1904 00d6 002A     		cmp	r2, #0
 1905 00d8 F7D1     		bne	.L264
 1906              	.LVL107:
 1907              	.L217:
 681:Drivers/STM32F1xx_HAL_Driver/Src/stm32f1xx_hal_dma.c **** 
 1908              		.loc 1 681 1 view .LVU603
 1909 00da 70BC     		pop	{r4, r5, r6}
 1910              	.LCFI13:
 1911              		.cfi_remember_state
 1912              		.cfi_restore 6
 1913              		.cfi_restore 5
 1914              		.cfi_restore 4
 1915              		.cfi_def_cfa_offset 0
 1916              	.LVL108:
 681:Drivers/STM32F1xx_HAL_Driver/Src/stm32f1xx_hal_dma.c **** 
 1917              		.loc 1 681 1 view .LVU604
 1918 00dc 7047     		bx	lr
 1919              	.LVL109:
 1920              	.L233:
 1921              	.LCFI14:
 1922              		.cfi_restore_state
 642:Drivers/STM32F1xx_HAL_Driver/Src/stm32f1xx_hal_dma.c **** 
 1923              		.loc 1 642 7 view .LVU605
 1924 00de 0223     		movs	r3, #2
 1925              	.L225:
 645:Drivers/STM32F1xx_HAL_Driver/Src/stm32f1xx_hal_dma.c **** 
 1926              		.loc 1 645 5 discriminator 24 view .LVU606
 1927 00e0 0021     		movs	r1, #0
 642:Drivers/STM32F1xx_HAL_Driver/Src/stm32f1xx_hal_dma.c **** 
ARM GAS  C:\Users\WENHUA~1\AppData\Local\Temp\ccQSIM2h.s 			page 59


 1928              		.loc 1 642 7 discriminator 24 view .LVU607
 1929 00e2 104C     		ldr	r4, .L265+4
 1930              	.LVL110:
 647:Drivers/STM32F1xx_HAL_Driver/Src/stm32f1xx_hal_dma.c ****     {
 1931              		.loc 1 647 12 discriminator 24 view .LVU608
 1932 00e4 826A     		ldr	r2, [r0, #40]
 642:Drivers/STM32F1xx_HAL_Driver/Src/stm32f1xx_hal_dma.c **** 
 1933              		.loc 1 642 7 discriminator 24 view .LVU609
 1934 00e6 6360     		str	r3, [r4, #4]
 645:Drivers/STM32F1xx_HAL_Driver/Src/stm32f1xx_hal_dma.c **** 
 1935              		.loc 1 645 5 is_stmt 1 discriminator 24 view .LVU610
 645:Drivers/STM32F1xx_HAL_Driver/Src/stm32f1xx_hal_dma.c **** 
 1936              		.loc 1 645 5 discriminator 24 view .LVU611
 1937 00e8 80F82010 		strb	r1, [r0, #32]
 645:Drivers/STM32F1xx_HAL_Driver/Src/stm32f1xx_hal_dma.c **** 
 1938              		.loc 1 645 5 discriminator 24 view .LVU612
 647:Drivers/STM32F1xx_HAL_Driver/Src/stm32f1xx_hal_dma.c ****     {
 1939              		.loc 1 647 5 discriminator 24 view .LVU613
 647:Drivers/STM32F1xx_HAL_Driver/Src/stm32f1xx_hal_dma.c ****     {
 1940              		.loc 1 647 7 is_stmt 0 discriminator 24 view .LVU614
 1941 00ec 002A     		cmp	r2, #0
 1942 00ee F4D0     		beq	.L217
 677:Drivers/STM32F1xx_HAL_Driver/Src/stm32f1xx_hal_dma.c ****     }
 1943              		.loc 1 677 7 is_stmt 1 view .LVU615
 681:Drivers/STM32F1xx_HAL_Driver/Src/stm32f1xx_hal_dma.c **** 
 1944              		.loc 1 681 1 is_stmt 0 view .LVU616
 1945 00f0 70BC     		pop	{r4, r5, r6}
 1946              	.LCFI15:
 1947              		.cfi_remember_state
 1948              		.cfi_restore 6
 1949              		.cfi_restore 5
 1950              		.cfi_restore 4
 1951              		.cfi_def_cfa_offset 0
 1952              	.LVL111:
 677:Drivers/STM32F1xx_HAL_Driver/Src/stm32f1xx_hal_dma.c ****     }
 1953              		.loc 1 677 7 view .LVU617
 1954 00f2 1047     		bx	r2	@ indirect register sibling call
 1955              	.LVL112:
 1956              	.L228:
 1957              	.LCFI16:
 1958              		.cfi_restore_state
 618:Drivers/STM32F1xx_HAL_Driver/Src/stm32f1xx_hal_dma.c **** 
 1959              		.loc 1 618 5 view .LVU618
 1960 00f4 4023     		movs	r3, #64
 1961 00f6 EBE7     		b	.L220
 1962              	.L236:
 642:Drivers/STM32F1xx_HAL_Driver/Src/stm32f1xx_hal_dma.c **** 
 1963              		.loc 1 642 7 view .LVU619
 1964 00f8 4FF40053 		mov	r3, #8192
 1965 00fc F0E7     		b	.L225
 1966              	.L231:
 618:Drivers/STM32F1xx_HAL_Driver/Src/stm32f1xx_hal_dma.c **** 
 1967              		.loc 1 618 5 view .LVU620
 1968 00fe 4FF48023 		mov	r3, #262144
 1969 0102 E5E7     		b	.L220
 1970              	.L234:
 642:Drivers/STM32F1xx_HAL_Driver/Src/stm32f1xx_hal_dma.c **** 
ARM GAS  C:\Users\WENHUA~1\AppData\Local\Temp\ccQSIM2h.s 			page 60


 1971              		.loc 1 642 7 view .LVU621
 1972 0104 2023     		movs	r3, #32
 1973 0106 EBE7     		b	.L225
 1974              	.L229:
 618:Drivers/STM32F1xx_HAL_Driver/Src/stm32f1xx_hal_dma.c **** 
 1975              		.loc 1 618 5 view .LVU622
 1976 0108 4FF48063 		mov	r3, #1024
 1977 010c E0E7     		b	.L220
 1978              	.L235:
 642:Drivers/STM32F1xx_HAL_Driver/Src/stm32f1xx_hal_dma.c **** 
 1979              		.loc 1 642 7 view .LVU623
 1980 010e 4FF40073 		mov	r3, #512
 1981 0112 E5E7     		b	.L225
 1982              	.L230:
 618:Drivers/STM32F1xx_HAL_Driver/Src/stm32f1xx_hal_dma.c **** 
 1983              		.loc 1 618 5 view .LVU624
 1984 0114 4FF48043 		mov	r3, #16384
 1985 0118 DAE7     		b	.L220
 1986              	.L237:
 642:Drivers/STM32F1xx_HAL_Driver/Src/stm32f1xx_hal_dma.c **** 
 1987              		.loc 1 642 7 view .LVU625
 1988 011a 4FF40033 		mov	r3, #131072
 1989 011e DFE7     		b	.L225
 1990              	.L266:
 1991              		.align	2
 1992              	.L265:
 1993 0120 08000240 		.word	1073872904
 1994 0124 00000240 		.word	1073872896
 1995              		.cfi_endproc
 1996              	.LFE72:
 1998              		.section	.text.HAL_DMA_RegisterCallback,"ax",%progbits
 1999              		.align	1
 2000              		.p2align 2,,3
 2001              		.global	HAL_DMA_RegisterCallback
 2002              		.syntax unified
 2003              		.thumb
 2004              		.thumb_func
 2006              	HAL_DMA_RegisterCallback:
 2007              	.LVL113:
 2008              	.LFB73:
 694:Drivers/STM32F1xx_HAL_Driver/Src/stm32f1xx_hal_dma.c ****   HAL_StatusTypeDef status = HAL_OK;
 2009              		.loc 1 694 1 is_stmt 1 view -0
 2010              		.cfi_startproc
 2011              		@ args = 0, pretend = 0, frame = 0
 2012              		@ frame_needed = 0, uses_anonymous_args = 0
 2013              		@ link register save eliminated.
 695:Drivers/STM32F1xx_HAL_Driver/Src/stm32f1xx_hal_dma.c ****   
 2014              		.loc 1 695 3 view .LVU627
 698:Drivers/STM32F1xx_HAL_Driver/Src/stm32f1xx_hal_dma.c ****   
 2015              		.loc 1 698 3 view .LVU628
 698:Drivers/STM32F1xx_HAL_Driver/Src/stm32f1xx_hal_dma.c ****   
 2016              		.loc 1 698 3 view .LVU629
 694:Drivers/STM32F1xx_HAL_Driver/Src/stm32f1xx_hal_dma.c ****   HAL_StatusTypeDef status = HAL_OK;
 2017              		.loc 1 694 1 is_stmt 0 view .LVU630
 2018 0000 0346     		mov	r3, r0
 698:Drivers/STM32F1xx_HAL_Driver/Src/stm32f1xx_hal_dma.c ****   
 2019              		.loc 1 698 3 view .LVU631
ARM GAS  C:\Users\WENHUA~1\AppData\Local\Temp\ccQSIM2h.s 			page 61


 2020 0002 90F82000 		ldrb	r0, [r0, #32]	@ zero_extendqisi2
 2021              	.LVL114:
 698:Drivers/STM32F1xx_HAL_Driver/Src/stm32f1xx_hal_dma.c ****   
 2022              		.loc 1 698 3 view .LVU632
 2023 0006 0128     		cmp	r0, #1
 2024 0008 1AD0     		beq	.L275
 698:Drivers/STM32F1xx_HAL_Driver/Src/stm32f1xx_hal_dma.c ****   
 2025              		.loc 1 698 3 is_stmt 1 discriminator 2 view .LVU633
 698:Drivers/STM32F1xx_HAL_Driver/Src/stm32f1xx_hal_dma.c ****   
 2026              		.loc 1 698 3 discriminator 2 view .LVU634
 700:Drivers/STM32F1xx_HAL_Driver/Src/stm32f1xx_hal_dma.c ****   {
 2027              		.loc 1 700 3 discriminator 2 view .LVU635
 700:Drivers/STM32F1xx_HAL_Driver/Src/stm32f1xx_hal_dma.c ****   {
 2028              		.loc 1 700 33 is_stmt 0 discriminator 2 view .LVU636
 2029 000a 93F82100 		ldrb	r0, [r3, #33]	@ zero_extendqisi2
 700:Drivers/STM32F1xx_HAL_Driver/Src/stm32f1xx_hal_dma.c ****   {
 2030              		.loc 1 700 5 discriminator 2 view .LVU637
 2031 000e 0128     		cmp	r0, #1
 2032 0010 04D0     		beq	.L277
 727:Drivers/STM32F1xx_HAL_Driver/Src/stm32f1xx_hal_dma.c ****   } 
 2033              		.loc 1 727 12 view .LVU638
 2034 0012 0120     		movs	r0, #1
 2035              	.L269:
 2036              	.LVL115:
 731:Drivers/STM32F1xx_HAL_Driver/Src/stm32f1xx_hal_dma.c ****   
 2037              		.loc 1 731 3 is_stmt 1 view .LVU639
 731:Drivers/STM32F1xx_HAL_Driver/Src/stm32f1xx_hal_dma.c ****   
 2038              		.loc 1 731 3 view .LVU640
 2039 0014 0022     		movs	r2, #0
 2040              	.LVL116:
 731:Drivers/STM32F1xx_HAL_Driver/Src/stm32f1xx_hal_dma.c ****   
 2041              		.loc 1 731 3 is_stmt 0 view .LVU641
 2042 0016 83F82020 		strb	r2, [r3, #32]
 731:Drivers/STM32F1xx_HAL_Driver/Src/stm32f1xx_hal_dma.c ****   
 2043              		.loc 1 731 3 is_stmt 1 view .LVU642
 733:Drivers/STM32F1xx_HAL_Driver/Src/stm32f1xx_hal_dma.c **** }
 2044              		.loc 1 733 3 view .LVU643
 733:Drivers/STM32F1xx_HAL_Driver/Src/stm32f1xx_hal_dma.c **** }
 2045              		.loc 1 733 10 is_stmt 0 view .LVU644
 2046 001a 7047     		bx	lr
 2047              	.LVL117:
 2048              	.L277:
 702:Drivers/STM32F1xx_HAL_Driver/Src/stm32f1xx_hal_dma.c ****     {
 2049              		.loc 1 702 5 is_stmt 1 view .LVU645
 2050 001c 0329     		cmp	r1, #3
 2051 001e F9D8     		bhi	.L269
 2052 0020 DFE801F0 		tbb	[pc, r1]
 2053              	.L271:
 2054 0024 0B       		.byte	(.L274-.L271)/2
 2055 0025 08       		.byte	(.L273-.L271)/2
 2056 0026 05       		.byte	(.L272-.L271)/2
 2057 0027 02       		.byte	(.L270-.L271)/2
 2058              		.p2align 1
 2059              	.L270:
 717:Drivers/STM32F1xx_HAL_Driver/Src/stm32f1xx_hal_dma.c ****       break; 
 2060              		.loc 1 717 7 view .LVU646
 695:Drivers/STM32F1xx_HAL_Driver/Src/stm32f1xx_hal_dma.c ****   
ARM GAS  C:\Users\WENHUA~1\AppData\Local\Temp\ccQSIM2h.s 			page 62


 2061              		.loc 1 695 21 is_stmt 0 view .LVU647
 2062 0028 0020     		movs	r0, #0
 717:Drivers/STM32F1xx_HAL_Driver/Src/stm32f1xx_hal_dma.c ****       break; 
 2063              		.loc 1 717 31 view .LVU648
 2064 002a 5A63     		str	r2, [r3, #52]
 718:Drivers/STM32F1xx_HAL_Driver/Src/stm32f1xx_hal_dma.c ****       
 2065              		.loc 1 718 7 is_stmt 1 view .LVU649
 2066 002c F2E7     		b	.L269
 2067              	.L272:
 713:Drivers/STM32F1xx_HAL_Driver/Src/stm32f1xx_hal_dma.c ****       break;         
 2068              		.loc 1 713 7 view .LVU650
 695:Drivers/STM32F1xx_HAL_Driver/Src/stm32f1xx_hal_dma.c ****   
 2069              		.loc 1 695 21 is_stmt 0 view .LVU651
 2070 002e 0020     		movs	r0, #0
 713:Drivers/STM32F1xx_HAL_Driver/Src/stm32f1xx_hal_dma.c ****       break;         
 2071              		.loc 1 713 31 view .LVU652
 2072 0030 1A63     		str	r2, [r3, #48]
 714:Drivers/STM32F1xx_HAL_Driver/Src/stm32f1xx_hal_dma.c ****       
 2073              		.loc 1 714 7 is_stmt 1 view .LVU653
 2074 0032 EFE7     		b	.L269
 2075              	.L273:
 709:Drivers/STM32F1xx_HAL_Driver/Src/stm32f1xx_hal_dma.c ****       break;         
 2076              		.loc 1 709 7 view .LVU654
 695:Drivers/STM32F1xx_HAL_Driver/Src/stm32f1xx_hal_dma.c ****   
 2077              		.loc 1 695 21 is_stmt 0 view .LVU655
 2078 0034 0020     		movs	r0, #0
 709:Drivers/STM32F1xx_HAL_Driver/Src/stm32f1xx_hal_dma.c ****       break;         
 2079              		.loc 1 709 34 view .LVU656
 2080 0036 DA62     		str	r2, [r3, #44]
 710:Drivers/STM32F1xx_HAL_Driver/Src/stm32f1xx_hal_dma.c **** 
 2081              		.loc 1 710 7 is_stmt 1 view .LVU657
 2082 0038 ECE7     		b	.L269
 2083              	.L274:
 705:Drivers/STM32F1xx_HAL_Driver/Src/stm32f1xx_hal_dma.c ****       break;
 2084              		.loc 1 705 7 view .LVU658
 695:Drivers/STM32F1xx_HAL_Driver/Src/stm32f1xx_hal_dma.c ****   
 2085              		.loc 1 695 21 is_stmt 0 view .LVU659
 2086 003a 0846     		mov	r0, r1
 705:Drivers/STM32F1xx_HAL_Driver/Src/stm32f1xx_hal_dma.c ****       break;
 2087              		.loc 1 705 30 view .LVU660
 2088 003c 9A62     		str	r2, [r3, #40]
 706:Drivers/STM32F1xx_HAL_Driver/Src/stm32f1xx_hal_dma.c ****       
 2089              		.loc 1 706 7 is_stmt 1 view .LVU661
 2090 003e E9E7     		b	.L269
 2091              	.L275:
 698:Drivers/STM32F1xx_HAL_Driver/Src/stm32f1xx_hal_dma.c ****   
 2092              		.loc 1 698 3 is_stmt 0 view .LVU662
 2093 0040 0220     		movs	r0, #2
 734:Drivers/STM32F1xx_HAL_Driver/Src/stm32f1xx_hal_dma.c **** 
 2094              		.loc 1 734 1 view .LVU663
 2095 0042 7047     		bx	lr
 2096              		.cfi_endproc
 2097              	.LFE73:
 2099              		.section	.text.HAL_DMA_UnRegisterCallback,"ax",%progbits
 2100              		.align	1
 2101              		.p2align 2,,3
 2102              		.global	HAL_DMA_UnRegisterCallback
ARM GAS  C:\Users\WENHUA~1\AppData\Local\Temp\ccQSIM2h.s 			page 63


 2103              		.syntax unified
 2104              		.thumb
 2105              		.thumb_func
 2107              	HAL_DMA_UnRegisterCallback:
 2108              	.LVL118:
 2109              	.LFB74:
 745:Drivers/STM32F1xx_HAL_Driver/Src/stm32f1xx_hal_dma.c ****   HAL_StatusTypeDef status = HAL_OK;
 2110              		.loc 1 745 1 is_stmt 1 view -0
 2111              		.cfi_startproc
 2112              		@ args = 0, pretend = 0, frame = 0
 2113              		@ frame_needed = 0, uses_anonymous_args = 0
 2114              		@ link register save eliminated.
 746:Drivers/STM32F1xx_HAL_Driver/Src/stm32f1xx_hal_dma.c **** 
 2115              		.loc 1 746 3 view .LVU665
 749:Drivers/STM32F1xx_HAL_Driver/Src/stm32f1xx_hal_dma.c ****   
 2116              		.loc 1 749 3 view .LVU666
 749:Drivers/STM32F1xx_HAL_Driver/Src/stm32f1xx_hal_dma.c ****   
 2117              		.loc 1 749 3 view .LVU667
 2118 0000 90F82020 		ldrb	r2, [r0, #32]	@ zero_extendqisi2
 745:Drivers/STM32F1xx_HAL_Driver/Src/stm32f1xx_hal_dma.c ****   HAL_StatusTypeDef status = HAL_OK;
 2119              		.loc 1 745 1 is_stmt 0 view .LVU668
 2120 0004 0346     		mov	r3, r0
 749:Drivers/STM32F1xx_HAL_Driver/Src/stm32f1xx_hal_dma.c ****   
 2121              		.loc 1 749 3 view .LVU669
 2122 0006 012A     		cmp	r2, #1
 2123 0008 12D0     		beq	.L287
 749:Drivers/STM32F1xx_HAL_Driver/Src/stm32f1xx_hal_dma.c ****   
 2124              		.loc 1 749 3 is_stmt 1 discriminator 2 view .LVU670
 2125 000a 0122     		movs	r2, #1
 751:Drivers/STM32F1xx_HAL_Driver/Src/stm32f1xx_hal_dma.c ****   {
 2126              		.loc 1 751 33 is_stmt 0 discriminator 2 view .LVU671
 2127 000c 90F82100 		ldrb	r0, [r0, #33]	@ zero_extendqisi2
 2128              	.LVL119:
 749:Drivers/STM32F1xx_HAL_Driver/Src/stm32f1xx_hal_dma.c ****   
 2129              		.loc 1 749 3 discriminator 2 view .LVU672
 2130 0010 83F82020 		strb	r2, [r3, #32]
 749:Drivers/STM32F1xx_HAL_Driver/Src/stm32f1xx_hal_dma.c ****   
 2131              		.loc 1 749 3 is_stmt 1 discriminator 2 view .LVU673
 751:Drivers/STM32F1xx_HAL_Driver/Src/stm32f1xx_hal_dma.c ****   {
 2132              		.loc 1 751 3 discriminator 2 view .LVU674
 751:Drivers/STM32F1xx_HAL_Driver/Src/stm32f1xx_hal_dma.c ****   {
 2133              		.loc 1 751 5 is_stmt 0 discriminator 2 view .LVU675
 2134 0014 9042     		cmp	r0, r2
 2135 0016 04D0     		beq	.L289
 785:Drivers/STM32F1xx_HAL_Driver/Src/stm32f1xx_hal_dma.c ****   } 
 2136              		.loc 1 785 12 view .LVU676
 2137 0018 1046     		mov	r0, r2
 2138              	.L280:
 2139              	.LVL120:
 789:Drivers/STM32F1xx_HAL_Driver/Src/stm32f1xx_hal_dma.c ****   
 2140              		.loc 1 789 3 is_stmt 1 view .LVU677
 789:Drivers/STM32F1xx_HAL_Driver/Src/stm32f1xx_hal_dma.c ****   
 2141              		.loc 1 789 3 view .LVU678
 2142 001a 0022     		movs	r2, #0
 2143 001c 83F82020 		strb	r2, [r3, #32]
 789:Drivers/STM32F1xx_HAL_Driver/Src/stm32f1xx_hal_dma.c ****   
 2144              		.loc 1 789 3 view .LVU679
ARM GAS  C:\Users\WENHUA~1\AppData\Local\Temp\ccQSIM2h.s 			page 64


 791:Drivers/STM32F1xx_HAL_Driver/Src/stm32f1xx_hal_dma.c **** }
 2145              		.loc 1 791 3 view .LVU680
 791:Drivers/STM32F1xx_HAL_Driver/Src/stm32f1xx_hal_dma.c **** }
 2146              		.loc 1 791 10 is_stmt 0 view .LVU681
 2147 0020 7047     		bx	lr
 2148              	.LVL121:
 2149              	.L289:
 753:Drivers/STM32F1xx_HAL_Driver/Src/stm32f1xx_hal_dma.c ****     {
 2150              		.loc 1 753 5 is_stmt 1 view .LVU682
 2151 0022 0429     		cmp	r1, #4
 2152 0024 F9D8     		bhi	.L280
 2153 0026 DFE801F0 		tbb	[pc, r1]
 2154              	.L282:
 2155 002a 0C       		.byte	(.L286-.L282)/2
 2156 002b 10       		.byte	(.L285-.L282)/2
 2157 002c 14       		.byte	(.L284-.L282)/2
 2158 002d 18       		.byte	(.L283-.L282)/2
 2159 002e 05       		.byte	(.L281-.L282)/2
 2160              	.LVL122:
 2161 002f 00       		.p2align 1
 2162              	.L287:
 749:Drivers/STM32F1xx_HAL_Driver/Src/stm32f1xx_hal_dma.c ****   
 2163              		.loc 1 749 3 is_stmt 0 view .LVU683
 2164 0030 0220     		movs	r0, #2
 2165              	.LVL123:
 792:Drivers/STM32F1xx_HAL_Driver/Src/stm32f1xx_hal_dma.c ****   
 2166              		.loc 1 792 1 view .LVU684
 2167 0032 7047     		bx	lr
 2168              	.L281:
 772:Drivers/STM32F1xx_HAL_Driver/Src/stm32f1xx_hal_dma.c ****       hdma->XferHalfCpltCallback = NULL;
 2169              		.loc 1 772 7 is_stmt 1 view .LVU685
 772:Drivers/STM32F1xx_HAL_Driver/Src/stm32f1xx_hal_dma.c ****       hdma->XferHalfCpltCallback = NULL;
 2170              		.loc 1 772 30 is_stmt 0 view .LVU686
 2171 0034 0022     		movs	r2, #0
 746:Drivers/STM32F1xx_HAL_Driver/Src/stm32f1xx_hal_dma.c **** 
 2172              		.loc 1 746 21 view .LVU687
 2173 0036 1046     		mov	r0, r2
 773:Drivers/STM32F1xx_HAL_Driver/Src/stm32f1xx_hal_dma.c ****       hdma->XferErrorCallback = NULL;
 2174              		.loc 1 773 34 view .LVU688
 2175 0038 C3E90A22 		strd	r2, r2, [r3, #40]
 774:Drivers/STM32F1xx_HAL_Driver/Src/stm32f1xx_hal_dma.c ****       hdma->XferAbortCallback = NULL;
 2176              		.loc 1 774 7 is_stmt 1 view .LVU689
 775:Drivers/STM32F1xx_HAL_Driver/Src/stm32f1xx_hal_dma.c ****       break; 
 2177              		.loc 1 775 31 is_stmt 0 view .LVU690
 2178 003c C3E90C22 		strd	r2, r2, [r3, #48]
 776:Drivers/STM32F1xx_HAL_Driver/Src/stm32f1xx_hal_dma.c **** 
 2179              		.loc 1 776 7 is_stmt 1 view .LVU691
 2180 0040 EBE7     		b	.L280
 2181              	.L286:
 756:Drivers/STM32F1xx_HAL_Driver/Src/stm32f1xx_hal_dma.c ****       break;
 2182              		.loc 1 756 7 view .LVU692
 756:Drivers/STM32F1xx_HAL_Driver/Src/stm32f1xx_hal_dma.c ****       break;
 2183              		.loc 1 756 30 is_stmt 0 view .LVU693
 2184 0042 0022     		movs	r2, #0
 746:Drivers/STM32F1xx_HAL_Driver/Src/stm32f1xx_hal_dma.c **** 
 2185              		.loc 1 746 21 view .LVU694
 2186 0044 0846     		mov	r0, r1
ARM GAS  C:\Users\WENHUA~1\AppData\Local\Temp\ccQSIM2h.s 			page 65


 756:Drivers/STM32F1xx_HAL_Driver/Src/stm32f1xx_hal_dma.c ****       break;
 2187              		.loc 1 756 30 view .LVU695
 2188 0046 9A62     		str	r2, [r3, #40]
 757:Drivers/STM32F1xx_HAL_Driver/Src/stm32f1xx_hal_dma.c **** 
 2189              		.loc 1 757 7 is_stmt 1 view .LVU696
 2190 0048 E7E7     		b	.L280
 2191              	.L285:
 760:Drivers/STM32F1xx_HAL_Driver/Src/stm32f1xx_hal_dma.c ****       break;         
 2192              		.loc 1 760 7 view .LVU697
 760:Drivers/STM32F1xx_HAL_Driver/Src/stm32f1xx_hal_dma.c ****       break;         
 2193              		.loc 1 760 34 is_stmt 0 view .LVU698
 2194 004a 0022     		movs	r2, #0
 746:Drivers/STM32F1xx_HAL_Driver/Src/stm32f1xx_hal_dma.c **** 
 2195              		.loc 1 746 21 view .LVU699
 2196 004c 1046     		mov	r0, r2
 760:Drivers/STM32F1xx_HAL_Driver/Src/stm32f1xx_hal_dma.c ****       break;         
 2197              		.loc 1 760 34 view .LVU700
 2198 004e DA62     		str	r2, [r3, #44]
 761:Drivers/STM32F1xx_HAL_Driver/Src/stm32f1xx_hal_dma.c **** 
 2199              		.loc 1 761 7 is_stmt 1 view .LVU701
 2200 0050 E3E7     		b	.L280
 2201              	.L284:
 764:Drivers/STM32F1xx_HAL_Driver/Src/stm32f1xx_hal_dma.c ****       break;         
 2202              		.loc 1 764 7 view .LVU702
 764:Drivers/STM32F1xx_HAL_Driver/Src/stm32f1xx_hal_dma.c ****       break;         
 2203              		.loc 1 764 31 is_stmt 0 view .LVU703
 2204 0052 0022     		movs	r2, #0
 746:Drivers/STM32F1xx_HAL_Driver/Src/stm32f1xx_hal_dma.c **** 
 2205              		.loc 1 746 21 view .LVU704
 2206 0054 1046     		mov	r0, r2
 764:Drivers/STM32F1xx_HAL_Driver/Src/stm32f1xx_hal_dma.c ****       break;         
 2207              		.loc 1 764 31 view .LVU705
 2208 0056 1A63     		str	r2, [r3, #48]
 765:Drivers/STM32F1xx_HAL_Driver/Src/stm32f1xx_hal_dma.c **** 
 2209              		.loc 1 765 7 is_stmt 1 view .LVU706
 2210 0058 DFE7     		b	.L280
 2211              	.L283:
 768:Drivers/STM32F1xx_HAL_Driver/Src/stm32f1xx_hal_dma.c ****       break; 
 2212              		.loc 1 768 7 view .LVU707
 768:Drivers/STM32F1xx_HAL_Driver/Src/stm32f1xx_hal_dma.c ****       break; 
 2213              		.loc 1 768 31 is_stmt 0 view .LVU708
 2214 005a 0022     		movs	r2, #0
 746:Drivers/STM32F1xx_HAL_Driver/Src/stm32f1xx_hal_dma.c **** 
 2215              		.loc 1 746 21 view .LVU709
 2216 005c 1046     		mov	r0, r2
 768:Drivers/STM32F1xx_HAL_Driver/Src/stm32f1xx_hal_dma.c ****       break; 
 2217              		.loc 1 768 31 view .LVU710
 2218 005e 5A63     		str	r2, [r3, #52]
 769:Drivers/STM32F1xx_HAL_Driver/Src/stm32f1xx_hal_dma.c **** 
 2219              		.loc 1 769 7 is_stmt 1 view .LVU711
 2220 0060 DBE7     		b	.L280
 2221              		.cfi_endproc
 2222              	.LFE74:
 2224 0062 00BF     		.section	.text.HAL_DMA_GetState,"ax",%progbits
 2225              		.align	1
 2226              		.p2align 2,,3
 2227              		.global	HAL_DMA_GetState
ARM GAS  C:\Users\WENHUA~1\AppData\Local\Temp\ccQSIM2h.s 			page 66


 2228              		.syntax unified
 2229              		.thumb
 2230              		.thumb_func
 2232              	HAL_DMA_GetState:
 2233              	.LVL124:
 2234              	.LFB75:
 821:Drivers/STM32F1xx_HAL_Driver/Src/stm32f1xx_hal_dma.c ****   /* Return DMA handle state */
 2235              		.loc 1 821 1 view -0
 2236              		.cfi_startproc
 2237              		@ args = 0, pretend = 0, frame = 0
 2238              		@ frame_needed = 0, uses_anonymous_args = 0
 2239              		@ link register save eliminated.
 823:Drivers/STM32F1xx_HAL_Driver/Src/stm32f1xx_hal_dma.c **** }
 2240              		.loc 1 823 3 view .LVU713
 824:Drivers/STM32F1xx_HAL_Driver/Src/stm32f1xx_hal_dma.c **** 
 2241              		.loc 1 824 1 is_stmt 0 view .LVU714
 2242 0000 90F82100 		ldrb	r0, [r0, #33]	@ zero_extendqisi2
 2243              	.LVL125:
 824:Drivers/STM32F1xx_HAL_Driver/Src/stm32f1xx_hal_dma.c **** 
 2244              		.loc 1 824 1 view .LVU715
 2245 0004 7047     		bx	lr
 2246              		.cfi_endproc
 2247              	.LFE75:
 2249 0006 00BF     		.section	.text.HAL_DMA_GetError,"ax",%progbits
 2250              		.align	1
 2251              		.p2align 2,,3
 2252              		.global	HAL_DMA_GetError
 2253              		.syntax unified
 2254              		.thumb
 2255              		.thumb_func
 2257              	HAL_DMA_GetError:
 2258              	.LVL126:
 2259              	.LFB76:
 833:Drivers/STM32F1xx_HAL_Driver/Src/stm32f1xx_hal_dma.c ****   return hdma->ErrorCode;
 2260              		.loc 1 833 1 is_stmt 1 view -0
 2261              		.cfi_startproc
 2262              		@ args = 0, pretend = 0, frame = 0
 2263              		@ frame_needed = 0, uses_anonymous_args = 0
 2264              		@ link register save eliminated.
 834:Drivers/STM32F1xx_HAL_Driver/Src/stm32f1xx_hal_dma.c **** }
 2265              		.loc 1 834 3 view .LVU717
 834:Drivers/STM32F1xx_HAL_Driver/Src/stm32f1xx_hal_dma.c **** }
 2266              		.loc 1 834 14 is_stmt 0 view .LVU718
 2267 0000 806B     		ldr	r0, [r0, #56]
 2268              	.LVL127:
 835:Drivers/STM32F1xx_HAL_Driver/Src/stm32f1xx_hal_dma.c **** 
 2269              		.loc 1 835 1 view .LVU719
 2270 0002 7047     		bx	lr
 2271              		.cfi_endproc
 2272              	.LFE76:
 2274              		.text
 2275              	.Letext0:
 2276              		.file 2 "d:\\program files (x86)\\gnu arm embedded toolchain\\10 2021.10\\arm-none-eabi\\include\\
 2277              		.file 3 "d:\\program files (x86)\\gnu arm embedded toolchain\\10 2021.10\\arm-none-eabi\\include\\
 2278              		.file 4 "Drivers/CMSIS/Device/ST/STM32F1xx/Include/stm32f103xb.h"
 2279              		.file 5 "Drivers/CMSIS/Device/ST/STM32F1xx/Include/stm32f1xx.h"
 2280              		.file 6 "Drivers/STM32F1xx_HAL_Driver/Inc/stm32f1xx_hal_def.h"
ARM GAS  C:\Users\WENHUA~1\AppData\Local\Temp\ccQSIM2h.s 			page 67


 2281              		.file 7 "Drivers/STM32F1xx_HAL_Driver/Inc/stm32f1xx_hal_dma.h"
 2282              		.file 8 "Drivers/STM32F1xx_HAL_Driver/Inc/stm32f1xx_hal.h"
 2283              		.file 9 "Core/Inc/stm32f1xx_hal_conf.h"
ARM GAS  C:\Users\WENHUA~1\AppData\Local\Temp\ccQSIM2h.s 			page 68

