ARM GAS  C:\Users\WENHUA~1\AppData\Local\Temp\ccM6dVR4.s 			page 1


   1              		.cpu cortex-m3
   2              		.arch armv7-m
   3              		.fpu softvfp
   4              		.eabi_attribute 20, 1
   5              		.eabi_attribute 21, 1
   6              		.eabi_attribute 23, 3
   7              		.eabi_attribute 24, 1
   8              		.eabi_attribute 25, 1
   9              		.eabi_attribute 26, 1
  10              		.eabi_attribute 30, 2
  11              		.eabi_attribute 34, 1
  12              		.eabi_attribute 18, 4
  13              		.file	"stm32f1xx_hal_rtc_ex.c"
  14              		.text
  15              	.Ltext0:
  16              		.cfi_sections	.debug_frame
  17              		.section	.rodata.HAL_RTCEx_SetTamper.str1.4,"aMS",%progbits,1
  18              		.align	2
  19              	.LC0:
  20 0000 44726976 		.ascii	"Drivers/STM32F1xx_HAL_Driver/Src/stm32f1xx_hal_rtc_"
  20      6572732F 
  20      53544D33 
  20      32463178 
  20      785F4841 
  21 0033 65782E63 		.ascii	"ex.c\000"
  21      00
  22              		.section	.text.HAL_RTCEx_SetTamper,"ax",%progbits
  23              		.align	1
  24              		.p2align 2,,3
  25              		.global	HAL_RTCEx_SetTamper
  26              		.syntax unified
  27              		.thumb
  28              		.thumb_func
  30              	HAL_RTCEx_SetTamper:
  31              	.LVL0:
  32              	.LFB65:
  33              		.file 1 "Drivers/STM32F1xx_HAL_Driver/Src/stm32f1xx_hal_rtc_ex.c"
   1:Drivers/STM32F1xx_HAL_Driver/Src/stm32f1xx_hal_rtc_ex.c **** /**
   2:Drivers/STM32F1xx_HAL_Driver/Src/stm32f1xx_hal_rtc_ex.c ****   ******************************************************************************
   3:Drivers/STM32F1xx_HAL_Driver/Src/stm32f1xx_hal_rtc_ex.c ****   * @file    stm32f1xx_hal_rtc_ex.c
   4:Drivers/STM32F1xx_HAL_Driver/Src/stm32f1xx_hal_rtc_ex.c ****   * @author  MCD Application Team
   5:Drivers/STM32F1xx_HAL_Driver/Src/stm32f1xx_hal_rtc_ex.c ****   * @brief   Extended RTC HAL module driver.
   6:Drivers/STM32F1xx_HAL_Driver/Src/stm32f1xx_hal_rtc_ex.c ****   *          This file provides firmware functions to manage the following
   7:Drivers/STM32F1xx_HAL_Driver/Src/stm32f1xx_hal_rtc_ex.c ****   *          functionalities of the Real Time Clock (RTC) Extension peripheral:
   8:Drivers/STM32F1xx_HAL_Driver/Src/stm32f1xx_hal_rtc_ex.c ****   *           + RTC Tamper functions
   9:Drivers/STM32F1xx_HAL_Driver/Src/stm32f1xx_hal_rtc_ex.c ****   *           + Extension Control functions
  10:Drivers/STM32F1xx_HAL_Driver/Src/stm32f1xx_hal_rtc_ex.c ****   *           + Extension RTC features functions
  11:Drivers/STM32F1xx_HAL_Driver/Src/stm32f1xx_hal_rtc_ex.c ****   *
  12:Drivers/STM32F1xx_HAL_Driver/Src/stm32f1xx_hal_rtc_ex.c ****   ******************************************************************************
  13:Drivers/STM32F1xx_HAL_Driver/Src/stm32f1xx_hal_rtc_ex.c ****   * @attention
  14:Drivers/STM32F1xx_HAL_Driver/Src/stm32f1xx_hal_rtc_ex.c ****   *
  15:Drivers/STM32F1xx_HAL_Driver/Src/stm32f1xx_hal_rtc_ex.c ****   * <h2><center>&copy; Copyright (c) 2016 STMicroelectronics.
  16:Drivers/STM32F1xx_HAL_Driver/Src/stm32f1xx_hal_rtc_ex.c ****   * All rights reserved.</center></h2>
  17:Drivers/STM32F1xx_HAL_Driver/Src/stm32f1xx_hal_rtc_ex.c ****   *
  18:Drivers/STM32F1xx_HAL_Driver/Src/stm32f1xx_hal_rtc_ex.c ****   * This software component is licensed by ST under BSD 3-Clause license,
  19:Drivers/STM32F1xx_HAL_Driver/Src/stm32f1xx_hal_rtc_ex.c ****   * the "License"; You may not use this file except in compliance with the
  20:Drivers/STM32F1xx_HAL_Driver/Src/stm32f1xx_hal_rtc_ex.c ****   * License. You may obtain a copy of the License at:
ARM GAS  C:\Users\WENHUA~1\AppData\Local\Temp\ccM6dVR4.s 			page 2


  21:Drivers/STM32F1xx_HAL_Driver/Src/stm32f1xx_hal_rtc_ex.c ****   *                        opensource.org/licenses/BSD-3-Clause
  22:Drivers/STM32F1xx_HAL_Driver/Src/stm32f1xx_hal_rtc_ex.c ****   *
  23:Drivers/STM32F1xx_HAL_Driver/Src/stm32f1xx_hal_rtc_ex.c ****   ******************************************************************************
  24:Drivers/STM32F1xx_HAL_Driver/Src/stm32f1xx_hal_rtc_ex.c ****   */
  25:Drivers/STM32F1xx_HAL_Driver/Src/stm32f1xx_hal_rtc_ex.c **** 
  26:Drivers/STM32F1xx_HAL_Driver/Src/stm32f1xx_hal_rtc_ex.c **** /* Includes ------------------------------------------------------------------*/
  27:Drivers/STM32F1xx_HAL_Driver/Src/stm32f1xx_hal_rtc_ex.c **** #include "stm32f1xx_hal.h"
  28:Drivers/STM32F1xx_HAL_Driver/Src/stm32f1xx_hal_rtc_ex.c **** 
  29:Drivers/STM32F1xx_HAL_Driver/Src/stm32f1xx_hal_rtc_ex.c **** /** @addtogroup STM32F1xx_HAL_Driver
  30:Drivers/STM32F1xx_HAL_Driver/Src/stm32f1xx_hal_rtc_ex.c ****   * @{
  31:Drivers/STM32F1xx_HAL_Driver/Src/stm32f1xx_hal_rtc_ex.c ****   */
  32:Drivers/STM32F1xx_HAL_Driver/Src/stm32f1xx_hal_rtc_ex.c **** 
  33:Drivers/STM32F1xx_HAL_Driver/Src/stm32f1xx_hal_rtc_ex.c **** #ifdef HAL_RTC_MODULE_ENABLED
  34:Drivers/STM32F1xx_HAL_Driver/Src/stm32f1xx_hal_rtc_ex.c **** 
  35:Drivers/STM32F1xx_HAL_Driver/Src/stm32f1xx_hal_rtc_ex.c **** /** @defgroup RTCEx RTCEx
  36:Drivers/STM32F1xx_HAL_Driver/Src/stm32f1xx_hal_rtc_ex.c ****   * @brief RTC Extended HAL module driver
  37:Drivers/STM32F1xx_HAL_Driver/Src/stm32f1xx_hal_rtc_ex.c ****   * @{
  38:Drivers/STM32F1xx_HAL_Driver/Src/stm32f1xx_hal_rtc_ex.c ****   */
  39:Drivers/STM32F1xx_HAL_Driver/Src/stm32f1xx_hal_rtc_ex.c **** 
  40:Drivers/STM32F1xx_HAL_Driver/Src/stm32f1xx_hal_rtc_ex.c **** /* Private typedef -----------------------------------------------------------*/
  41:Drivers/STM32F1xx_HAL_Driver/Src/stm32f1xx_hal_rtc_ex.c **** /* Private define ------------------------------------------------------------*/
  42:Drivers/STM32F1xx_HAL_Driver/Src/stm32f1xx_hal_rtc_ex.c **** /* Private macro -------------------------------------------------------------*/
  43:Drivers/STM32F1xx_HAL_Driver/Src/stm32f1xx_hal_rtc_ex.c **** /** @defgroup RTCEx_Private_Macros RTCEx Private Macros
  44:Drivers/STM32F1xx_HAL_Driver/Src/stm32f1xx_hal_rtc_ex.c ****   * @{
  45:Drivers/STM32F1xx_HAL_Driver/Src/stm32f1xx_hal_rtc_ex.c ****   */
  46:Drivers/STM32F1xx_HAL_Driver/Src/stm32f1xx_hal_rtc_ex.c **** /**
  47:Drivers/STM32F1xx_HAL_Driver/Src/stm32f1xx_hal_rtc_ex.c ****   * @}
  48:Drivers/STM32F1xx_HAL_Driver/Src/stm32f1xx_hal_rtc_ex.c ****   */
  49:Drivers/STM32F1xx_HAL_Driver/Src/stm32f1xx_hal_rtc_ex.c **** 
  50:Drivers/STM32F1xx_HAL_Driver/Src/stm32f1xx_hal_rtc_ex.c **** /* Private variables ---------------------------------------------------------*/
  51:Drivers/STM32F1xx_HAL_Driver/Src/stm32f1xx_hal_rtc_ex.c **** /* Private function prototypes -----------------------------------------------*/
  52:Drivers/STM32F1xx_HAL_Driver/Src/stm32f1xx_hal_rtc_ex.c **** /* Private functions ---------------------------------------------------------*/
  53:Drivers/STM32F1xx_HAL_Driver/Src/stm32f1xx_hal_rtc_ex.c **** 
  54:Drivers/STM32F1xx_HAL_Driver/Src/stm32f1xx_hal_rtc_ex.c **** /** @defgroup RTCEx_Exported_Functions RTCEx Exported Functions
  55:Drivers/STM32F1xx_HAL_Driver/Src/stm32f1xx_hal_rtc_ex.c ****   * @{
  56:Drivers/STM32F1xx_HAL_Driver/Src/stm32f1xx_hal_rtc_ex.c ****   */
  57:Drivers/STM32F1xx_HAL_Driver/Src/stm32f1xx_hal_rtc_ex.c **** 
  58:Drivers/STM32F1xx_HAL_Driver/Src/stm32f1xx_hal_rtc_ex.c **** /** @defgroup RTCEx_Exported_Functions_Group1 RTC Tamper functions
  59:Drivers/STM32F1xx_HAL_Driver/Src/stm32f1xx_hal_rtc_ex.c ****   * @brief    RTC Tamper functions
  60:Drivers/STM32F1xx_HAL_Driver/Src/stm32f1xx_hal_rtc_ex.c ****   *
  61:Drivers/STM32F1xx_HAL_Driver/Src/stm32f1xx_hal_rtc_ex.c **** @verbatim
  62:Drivers/STM32F1xx_HAL_Driver/Src/stm32f1xx_hal_rtc_ex.c ****  ===============================================================================
  63:Drivers/STM32F1xx_HAL_Driver/Src/stm32f1xx_hal_rtc_ex.c ****                  ##### RTC Tamper functions #####
  64:Drivers/STM32F1xx_HAL_Driver/Src/stm32f1xx_hal_rtc_ex.c ****  ===============================================================================
  65:Drivers/STM32F1xx_HAL_Driver/Src/stm32f1xx_hal_rtc_ex.c **** 
  66:Drivers/STM32F1xx_HAL_Driver/Src/stm32f1xx_hal_rtc_ex.c ****  [..] This section provides functions allowing to configure Tamper feature
  67:Drivers/STM32F1xx_HAL_Driver/Src/stm32f1xx_hal_rtc_ex.c **** 
  68:Drivers/STM32F1xx_HAL_Driver/Src/stm32f1xx_hal_rtc_ex.c **** @endverbatim
  69:Drivers/STM32F1xx_HAL_Driver/Src/stm32f1xx_hal_rtc_ex.c ****   * @{
  70:Drivers/STM32F1xx_HAL_Driver/Src/stm32f1xx_hal_rtc_ex.c ****   */
  71:Drivers/STM32F1xx_HAL_Driver/Src/stm32f1xx_hal_rtc_ex.c **** 
  72:Drivers/STM32F1xx_HAL_Driver/Src/stm32f1xx_hal_rtc_ex.c **** /**
  73:Drivers/STM32F1xx_HAL_Driver/Src/stm32f1xx_hal_rtc_ex.c ****   * @brief  Sets Tamper
  74:Drivers/STM32F1xx_HAL_Driver/Src/stm32f1xx_hal_rtc_ex.c ****   * @note   By calling this API we disable the tamper interrupt for all tampers.
  75:Drivers/STM32F1xx_HAL_Driver/Src/stm32f1xx_hal_rtc_ex.c ****   * @param  hrtc: pointer to a RTC_HandleTypeDef structure that contains
  76:Drivers/STM32F1xx_HAL_Driver/Src/stm32f1xx_hal_rtc_ex.c ****   *                the configuration information for RTC.
  77:Drivers/STM32F1xx_HAL_Driver/Src/stm32f1xx_hal_rtc_ex.c ****   * @param  sTamper: Pointer to Tamper Structure.
ARM GAS  C:\Users\WENHUA~1\AppData\Local\Temp\ccM6dVR4.s 			page 3


  78:Drivers/STM32F1xx_HAL_Driver/Src/stm32f1xx_hal_rtc_ex.c ****   * @note   Tamper can be enabled only if ASOE and CCO bit are reset
  79:Drivers/STM32F1xx_HAL_Driver/Src/stm32f1xx_hal_rtc_ex.c ****   * @retval HAL status
  80:Drivers/STM32F1xx_HAL_Driver/Src/stm32f1xx_hal_rtc_ex.c ****   */
  81:Drivers/STM32F1xx_HAL_Driver/Src/stm32f1xx_hal_rtc_ex.c **** HAL_StatusTypeDef HAL_RTCEx_SetTamper(RTC_HandleTypeDef *hrtc, RTC_TamperTypeDef *sTamper)
  82:Drivers/STM32F1xx_HAL_Driver/Src/stm32f1xx_hal_rtc_ex.c **** {
  34              		.loc 1 82 1 view -0
  35              		.cfi_startproc
  36              		@ args = 0, pretend = 0, frame = 0
  37              		@ frame_needed = 0, uses_anonymous_args = 0
  83:Drivers/STM32F1xx_HAL_Driver/Src/stm32f1xx_hal_rtc_ex.c ****   /* Check input parameters */
  84:Drivers/STM32F1xx_HAL_Driver/Src/stm32f1xx_hal_rtc_ex.c ****   if ((hrtc == NULL) || (sTamper == NULL))
  38              		.loc 1 84 3 view .LVU1
  39              		.loc 1 84 6 is_stmt 0 view .LVU2
  40 0000 0028     		cmp	r0, #0
  41 0002 39D0     		beq	.L6
  82:Drivers/STM32F1xx_HAL_Driver/Src/stm32f1xx_hal_rtc_ex.c ****   /* Check input parameters */
  42              		.loc 1 82 1 discriminator 1 view .LVU3
  43 0004 38B5     		push	{r3, r4, r5, lr}
  44              	.LCFI0:
  45              		.cfi_def_cfa_offset 16
  46              		.cfi_offset 3, -16
  47              		.cfi_offset 4, -12
  48              		.cfi_offset 5, -8
  49              		.cfi_offset 14, -4
  50 0006 0D46     		mov	r5, r1
  51              		.loc 1 84 22 discriminator 1 view .LVU4
  52 0008 0029     		cmp	r1, #0
  53 000a 37D0     		beq	.L7
  85:Drivers/STM32F1xx_HAL_Driver/Src/stm32f1xx_hal_rtc_ex.c ****   {
  86:Drivers/STM32F1xx_HAL_Driver/Src/stm32f1xx_hal_rtc_ex.c ****     return HAL_ERROR;
  87:Drivers/STM32F1xx_HAL_Driver/Src/stm32f1xx_hal_rtc_ex.c ****   }
  88:Drivers/STM32F1xx_HAL_Driver/Src/stm32f1xx_hal_rtc_ex.c **** 
  89:Drivers/STM32F1xx_HAL_Driver/Src/stm32f1xx_hal_rtc_ex.c ****   /* Check the parameters */
  90:Drivers/STM32F1xx_HAL_Driver/Src/stm32f1xx_hal_rtc_ex.c ****   assert_param(IS_RTC_TAMPER(sTamper->Tamper));
  54              		.loc 1 90 3 view .LVU5
  55 000c 0B68     		ldr	r3, [r1]
  56 000e 0446     		mov	r4, r0
  57              		.loc 1 90 3 is_stmt 1 view .LVU6
  58 0010 012B     		cmp	r3, #1
  59 0012 1ED1     		bne	.L20
  91:Drivers/STM32F1xx_HAL_Driver/Src/stm32f1xx_hal_rtc_ex.c ****   assert_param(IS_RTC_TAMPER_TRIGGER(sTamper->Trigger));
  60              		.loc 1 91 3 view .LVU7
  61 0014 6B68     		ldr	r3, [r5, #4]
  62 0016 33F00203 		bics	r3, r3, #2
  63 001a 22D1     		bne	.L21
  64              	.LVL1:
  65              	.L4:
  92:Drivers/STM32F1xx_HAL_Driver/Src/stm32f1xx_hal_rtc_ex.c **** 
  93:Drivers/STM32F1xx_HAL_Driver/Src/stm32f1xx_hal_rtc_ex.c ****   /* Process Locked */
  94:Drivers/STM32F1xx_HAL_Driver/Src/stm32f1xx_hal_rtc_ex.c ****   __HAL_LOCK(hrtc);
  66              		.loc 1 94 3 view .LVU8
  67              		.loc 1 94 3 view .LVU9
  68 001c 237C     		ldrb	r3, [r4, #16]	@ zero_extendqisi2
  69 001e 012B     		cmp	r3, #1
  70 0020 2ED0     		beq	.L8
  71              		.loc 1 94 3 discriminator 2 view .LVU10
  95:Drivers/STM32F1xx_HAL_Driver/Src/stm32f1xx_hal_rtc_ex.c **** 
ARM GAS  C:\Users\WENHUA~1\AppData\Local\Temp\ccM6dVR4.s 			page 4


  96:Drivers/STM32F1xx_HAL_Driver/Src/stm32f1xx_hal_rtc_ex.c ****   hrtc->State = HAL_RTC_STATE_BUSY;
  72              		.loc 1 96 15 is_stmt 0 discriminator 2 view .LVU11
  73 0022 0223     		movs	r3, #2
  94:Drivers/STM32F1xx_HAL_Driver/Src/stm32f1xx_hal_rtc_ex.c **** 
  74              		.loc 1 94 3 discriminator 2 view .LVU12
  75 0024 4FF0010C 		mov	ip, #1
  97:Drivers/STM32F1xx_HAL_Driver/Src/stm32f1xx_hal_rtc_ex.c **** 
  98:Drivers/STM32F1xx_HAL_Driver/Src/stm32f1xx_hal_rtc_ex.c ****   if (HAL_IS_BIT_SET(BKP->RTCCR, (BKP_RTCCR_CCO | BKP_RTCCR_ASOE)))
  76              		.loc 1 98 7 discriminator 2 view .LVU13
  77 0028 1649     		ldr	r1, .L23
  94:Drivers/STM32F1xx_HAL_Driver/Src/stm32f1xx_hal_rtc_ex.c **** 
  78              		.loc 1 94 3 discriminator 2 view .LVU14
  79 002a 84F810C0 		strb	ip, [r4, #16]
  94:Drivers/STM32F1xx_HAL_Driver/Src/stm32f1xx_hal_rtc_ex.c **** 
  80              		.loc 1 94 3 is_stmt 1 discriminator 2 view .LVU15
  96:Drivers/STM32F1xx_HAL_Driver/Src/stm32f1xx_hal_rtc_ex.c **** 
  81              		.loc 1 96 3 discriminator 2 view .LVU16
  96:Drivers/STM32F1xx_HAL_Driver/Src/stm32f1xx_hal_rtc_ex.c **** 
  82              		.loc 1 96 15 is_stmt 0 discriminator 2 view .LVU17
  83 002e 6374     		strb	r3, [r4, #17]
  84              		.loc 1 98 3 is_stmt 1 discriminator 2 view .LVU18
  85              		.loc 1 98 7 is_stmt 0 discriminator 2 view .LVU19
  86 0030 CB6A     		ldr	r3, [r1, #44]
  87              		.loc 1 98 6 discriminator 2 view .LVU20
  88 0032 13F4C073 		ands	r3, r3, #384
  89 0036 19D1     		bne	.L22
  99:Drivers/STM32F1xx_HAL_Driver/Src/stm32f1xx_hal_rtc_ex.c ****   {
 100:Drivers/STM32F1xx_HAL_Driver/Src/stm32f1xx_hal_rtc_ex.c ****     hrtc->State = HAL_RTC_STATE_ERROR;
 101:Drivers/STM32F1xx_HAL_Driver/Src/stm32f1xx_hal_rtc_ex.c **** 
 102:Drivers/STM32F1xx_HAL_Driver/Src/stm32f1xx_hal_rtc_ex.c ****     /* Process Unlocked */
 103:Drivers/STM32F1xx_HAL_Driver/Src/stm32f1xx_hal_rtc_ex.c ****     __HAL_UNLOCK(hrtc);
 104:Drivers/STM32F1xx_HAL_Driver/Src/stm32f1xx_hal_rtc_ex.c **** 
 105:Drivers/STM32F1xx_HAL_Driver/Src/stm32f1xx_hal_rtc_ex.c ****     return HAL_ERROR;
 106:Drivers/STM32F1xx_HAL_Driver/Src/stm32f1xx_hal_rtc_ex.c ****   }
 107:Drivers/STM32F1xx_HAL_Driver/Src/stm32f1xx_hal_rtc_ex.c **** 
 108:Drivers/STM32F1xx_HAL_Driver/Src/stm32f1xx_hal_rtc_ex.c ****   MODIFY_REG(BKP->CR, (BKP_CR_TPE | BKP_CR_TPAL), (sTamper->Tamper | (sTamper->Trigger)));
  90              		.loc 1 108 3 is_stmt 1 view .LVU21
  91 0038 D5E90025 		ldrd	r2, r5, [r5]
  92              	.LVL2:
  93              		.loc 1 108 3 is_stmt 0 view .LVU22
  94 003c 086B     		ldr	r0, [r1, #48]
  95 003e 2A43     		orrs	r2, r2, r5
  96 0040 20F00300 		bic	r0, r0, #3
  97 0044 0243     		orrs	r2, r2, r0
  98 0046 0A63     		str	r2, [r1, #48]
 109:Drivers/STM32F1xx_HAL_Driver/Src/stm32f1xx_hal_rtc_ex.c **** 
 110:Drivers/STM32F1xx_HAL_Driver/Src/stm32f1xx_hal_rtc_ex.c ****   hrtc->State = HAL_RTC_STATE_READY;
  99              		.loc 1 110 3 is_stmt 1 view .LVU23
 100              		.loc 1 110 15 is_stmt 0 view .LVU24
 101 0048 84F811C0 		strb	ip, [r4, #17]
 111:Drivers/STM32F1xx_HAL_Driver/Src/stm32f1xx_hal_rtc_ex.c **** 
 112:Drivers/STM32F1xx_HAL_Driver/Src/stm32f1xx_hal_rtc_ex.c ****   /* Process Unlocked */
 113:Drivers/STM32F1xx_HAL_Driver/Src/stm32f1xx_hal_rtc_ex.c ****   __HAL_UNLOCK(hrtc);
 102              		.loc 1 113 3 is_stmt 1 view .LVU25
 103              		.loc 1 113 3 view .LVU26
 104 004c 2374     		strb	r3, [r4, #16]
 105              		.loc 1 113 3 view .LVU27
ARM GAS  C:\Users\WENHUA~1\AppData\Local\Temp\ccM6dVR4.s 			page 5


 114:Drivers/STM32F1xx_HAL_Driver/Src/stm32f1xx_hal_rtc_ex.c **** 
 115:Drivers/STM32F1xx_HAL_Driver/Src/stm32f1xx_hal_rtc_ex.c ****   return HAL_OK;
 106              		.loc 1 115 3 view .LVU28
 107              		.loc 1 115 10 is_stmt 0 view .LVU29
 108 004e 1846     		mov	r0, r3
 116:Drivers/STM32F1xx_HAL_Driver/Src/stm32f1xx_hal_rtc_ex.c **** }
 109              		.loc 1 116 1 view .LVU30
 110 0050 38BD     		pop	{r3, r4, r5, pc}
 111              	.LVL3:
 112              	.L20:
  90:Drivers/STM32F1xx_HAL_Driver/Src/stm32f1xx_hal_rtc_ex.c ****   assert_param(IS_RTC_TAMPER_TRIGGER(sTamper->Trigger));
 113              		.loc 1 90 3 discriminator 1 view .LVU31
 114 0052 5A21     		movs	r1, #90
 115              	.LVL4:
  90:Drivers/STM32F1xx_HAL_Driver/Src/stm32f1xx_hal_rtc_ex.c ****   assert_param(IS_RTC_TAMPER_TRIGGER(sTamper->Trigger));
 116              		.loc 1 90 3 discriminator 1 view .LVU32
 117 0054 0C48     		ldr	r0, .L23+4
 118              	.LVL5:
  90:Drivers/STM32F1xx_HAL_Driver/Src/stm32f1xx_hal_rtc_ex.c ****   assert_param(IS_RTC_TAMPER_TRIGGER(sTamper->Trigger));
 119              		.loc 1 90 3 discriminator 1 view .LVU33
 120 0056 FFF7FEFF 		bl	assert_failed
 121              	.LVL6:
  91:Drivers/STM32F1xx_HAL_Driver/Src/stm32f1xx_hal_rtc_ex.c **** 
 122              		.loc 1 91 3 is_stmt 1 discriminator 1 view .LVU34
 123 005a 6B68     		ldr	r3, [r5, #4]
 124 005c 33F00203 		bics	r3, r3, #2
 125 0060 DCD0     		beq	.L4
 126              	.L21:
  91:Drivers/STM32F1xx_HAL_Driver/Src/stm32f1xx_hal_rtc_ex.c **** 
 127              		.loc 1 91 3 is_stmt 0 discriminator 2 view .LVU35
 128 0062 5B21     		movs	r1, #91
 129 0064 0848     		ldr	r0, .L23+4
 130 0066 FFF7FEFF 		bl	assert_failed
 131              	.LVL7:
 132 006a D7E7     		b	.L4
 133              	.L22:
 100:Drivers/STM32F1xx_HAL_Driver/Src/stm32f1xx_hal_rtc_ex.c **** 
 134              		.loc 1 100 5 is_stmt 1 view .LVU36
 100:Drivers/STM32F1xx_HAL_Driver/Src/stm32f1xx_hal_rtc_ex.c **** 
 135              		.loc 1 100 17 is_stmt 0 view .LVU37
 136 006c 0422     		movs	r2, #4
 103:Drivers/STM32F1xx_HAL_Driver/Src/stm32f1xx_hal_rtc_ex.c **** 
 137              		.loc 1 103 5 view .LVU38
 138 006e 0023     		movs	r3, #0
 100:Drivers/STM32F1xx_HAL_Driver/Src/stm32f1xx_hal_rtc_ex.c **** 
 139              		.loc 1 100 17 view .LVU39
 140 0070 6274     		strb	r2, [r4, #17]
 103:Drivers/STM32F1xx_HAL_Driver/Src/stm32f1xx_hal_rtc_ex.c **** 
 141              		.loc 1 103 5 is_stmt 1 view .LVU40
 103:Drivers/STM32F1xx_HAL_Driver/Src/stm32f1xx_hal_rtc_ex.c **** 
 142              		.loc 1 103 5 view .LVU41
 143 0072 2374     		strb	r3, [r4, #16]
 103:Drivers/STM32F1xx_HAL_Driver/Src/stm32f1xx_hal_rtc_ex.c **** 
 144              		.loc 1 103 5 view .LVU42
 105:Drivers/STM32F1xx_HAL_Driver/Src/stm32f1xx_hal_rtc_ex.c ****   }
 145              		.loc 1 105 5 view .LVU43
 105:Drivers/STM32F1xx_HAL_Driver/Src/stm32f1xx_hal_rtc_ex.c ****   }
ARM GAS  C:\Users\WENHUA~1\AppData\Local\Temp\ccM6dVR4.s 			page 6


 146              		.loc 1 105 12 is_stmt 0 view .LVU44
 147 0074 6046     		mov	r0, ip
 148              		.loc 1 116 1 view .LVU45
 149 0076 38BD     		pop	{r3, r4, r5, pc}
 150              	.LVL8:
 151              	.L6:
 152              	.LCFI1:
 153              		.cfi_def_cfa_offset 0
 154              		.cfi_restore 3
 155              		.cfi_restore 4
 156              		.cfi_restore 5
 157              		.cfi_restore 14
  86:Drivers/STM32F1xx_HAL_Driver/Src/stm32f1xx_hal_rtc_ex.c ****   }
 158              		.loc 1 86 12 view .LVU46
 159 0078 0120     		movs	r0, #1
 160              	.LVL9:
 161              		.loc 1 116 1 view .LVU47
 162 007a 7047     		bx	lr
 163              	.LVL10:
 164              	.L7:
 165              	.LCFI2:
 166              		.cfi_def_cfa_offset 16
 167              		.cfi_offset 3, -16
 168              		.cfi_offset 4, -12
 169              		.cfi_offset 5, -8
 170              		.cfi_offset 14, -4
  86:Drivers/STM32F1xx_HAL_Driver/Src/stm32f1xx_hal_rtc_ex.c ****   }
 171              		.loc 1 86 12 view .LVU48
 172 007c 0120     		movs	r0, #1
 173              	.LVL11:
 174              		.loc 1 116 1 view .LVU49
 175 007e 38BD     		pop	{r3, r4, r5, pc}
 176              	.LVL12:
 177              	.L8:
  94:Drivers/STM32F1xx_HAL_Driver/Src/stm32f1xx_hal_rtc_ex.c **** 
 178              		.loc 1 94 3 view .LVU50
 179 0080 0220     		movs	r0, #2
 180              		.loc 1 116 1 view .LVU51
 181 0082 38BD     		pop	{r3, r4, r5, pc}
 182              	.LVL13:
 183              	.L24:
 184              		.loc 1 116 1 view .LVU52
 185              		.align	2
 186              	.L23:
 187 0084 006C0040 		.word	1073769472
 188 0088 00000000 		.word	.LC0
 189              		.cfi_endproc
 190              	.LFE65:
 192              		.section	.text.HAL_RTCEx_SetTamper_IT,"ax",%progbits
 193              		.align	1
 194              		.p2align 2,,3
 195              		.global	HAL_RTCEx_SetTamper_IT
 196              		.syntax unified
 197              		.thumb
 198              		.thumb_func
 200              	HAL_RTCEx_SetTamper_IT:
 201              	.LVL14:
ARM GAS  C:\Users\WENHUA~1\AppData\Local\Temp\ccM6dVR4.s 			page 7


 202              	.LFB66:
 117:Drivers/STM32F1xx_HAL_Driver/Src/stm32f1xx_hal_rtc_ex.c **** 
 118:Drivers/STM32F1xx_HAL_Driver/Src/stm32f1xx_hal_rtc_ex.c **** /**
 119:Drivers/STM32F1xx_HAL_Driver/Src/stm32f1xx_hal_rtc_ex.c ****   * @brief  Sets Tamper with interrupt.
 120:Drivers/STM32F1xx_HAL_Driver/Src/stm32f1xx_hal_rtc_ex.c ****   * @note   By calling this API we force the tamper interrupt for all tampers.
 121:Drivers/STM32F1xx_HAL_Driver/Src/stm32f1xx_hal_rtc_ex.c ****   * @param  hrtc: pointer to a RTC_HandleTypeDef structure that contains
 122:Drivers/STM32F1xx_HAL_Driver/Src/stm32f1xx_hal_rtc_ex.c ****   *                the configuration information for RTC.
 123:Drivers/STM32F1xx_HAL_Driver/Src/stm32f1xx_hal_rtc_ex.c ****   * @param  sTamper: Pointer to RTC Tamper.
 124:Drivers/STM32F1xx_HAL_Driver/Src/stm32f1xx_hal_rtc_ex.c ****   * @note   Tamper can be enabled only if ASOE and CCO bit are reset
 125:Drivers/STM32F1xx_HAL_Driver/Src/stm32f1xx_hal_rtc_ex.c ****   * @retval HAL status
 126:Drivers/STM32F1xx_HAL_Driver/Src/stm32f1xx_hal_rtc_ex.c ****   */
 127:Drivers/STM32F1xx_HAL_Driver/Src/stm32f1xx_hal_rtc_ex.c **** HAL_StatusTypeDef HAL_RTCEx_SetTamper_IT(RTC_HandleTypeDef *hrtc, RTC_TamperTypeDef *sTamper)
 128:Drivers/STM32F1xx_HAL_Driver/Src/stm32f1xx_hal_rtc_ex.c **** {
 203              		.loc 1 128 1 is_stmt 1 view -0
 204              		.cfi_startproc
 205              		@ args = 0, pretend = 0, frame = 0
 206              		@ frame_needed = 0, uses_anonymous_args = 0
 129:Drivers/STM32F1xx_HAL_Driver/Src/stm32f1xx_hal_rtc_ex.c ****   /* Check input parameters */
 130:Drivers/STM32F1xx_HAL_Driver/Src/stm32f1xx_hal_rtc_ex.c ****   if ((hrtc == NULL) || (sTamper == NULL))
 207              		.loc 1 130 3 view .LVU54
 208              		.loc 1 130 6 is_stmt 0 view .LVU55
 209 0000 0028     		cmp	r0, #0
 210 0002 3DD0     		beq	.L30
 128:Drivers/STM32F1xx_HAL_Driver/Src/stm32f1xx_hal_rtc_ex.c ****   /* Check input parameters */
 211              		.loc 1 128 1 discriminator 1 view .LVU56
 212 0004 38B5     		push	{r3, r4, r5, lr}
 213              	.LCFI3:
 214              		.cfi_def_cfa_offset 16
 215              		.cfi_offset 3, -16
 216              		.cfi_offset 4, -12
 217              		.cfi_offset 5, -8
 218              		.cfi_offset 14, -4
 219 0006 0D46     		mov	r5, r1
 220              		.loc 1 130 22 discriminator 1 view .LVU57
 221 0008 0029     		cmp	r1, #0
 222 000a 3BD0     		beq	.L31
 131:Drivers/STM32F1xx_HAL_Driver/Src/stm32f1xx_hal_rtc_ex.c ****   {
 132:Drivers/STM32F1xx_HAL_Driver/Src/stm32f1xx_hal_rtc_ex.c ****     return HAL_ERROR;
 133:Drivers/STM32F1xx_HAL_Driver/Src/stm32f1xx_hal_rtc_ex.c ****   }
 134:Drivers/STM32F1xx_HAL_Driver/Src/stm32f1xx_hal_rtc_ex.c **** 
 135:Drivers/STM32F1xx_HAL_Driver/Src/stm32f1xx_hal_rtc_ex.c ****   /* Check the parameters */
 136:Drivers/STM32F1xx_HAL_Driver/Src/stm32f1xx_hal_rtc_ex.c ****   assert_param(IS_RTC_TAMPER(sTamper->Tamper));
 223              		.loc 1 136 3 view .LVU58
 224 000c 0B68     		ldr	r3, [r1]
 225 000e 0446     		mov	r4, r0
 226              		.loc 1 136 3 is_stmt 1 view .LVU59
 227 0010 012B     		cmp	r3, #1
 228 0012 22D1     		bne	.L43
 137:Drivers/STM32F1xx_HAL_Driver/Src/stm32f1xx_hal_rtc_ex.c ****   assert_param(IS_RTC_TAMPER_TRIGGER(sTamper->Trigger));
 229              		.loc 1 137 3 view .LVU60
 230 0014 6B68     		ldr	r3, [r5, #4]
 231 0016 33F00203 		bics	r3, r3, #2
 232 001a 26D1     		bne	.L44
 233              	.LVL15:
 234              	.L28:
 138:Drivers/STM32F1xx_HAL_Driver/Src/stm32f1xx_hal_rtc_ex.c **** 
 139:Drivers/STM32F1xx_HAL_Driver/Src/stm32f1xx_hal_rtc_ex.c ****   /* Process Locked */
ARM GAS  C:\Users\WENHUA~1\AppData\Local\Temp\ccM6dVR4.s 			page 8


 140:Drivers/STM32F1xx_HAL_Driver/Src/stm32f1xx_hal_rtc_ex.c ****   __HAL_LOCK(hrtc);
 235              		.loc 1 140 3 view .LVU61
 236              		.loc 1 140 3 view .LVU62
 237 001c 237C     		ldrb	r3, [r4, #16]	@ zero_extendqisi2
 238 001e 012B     		cmp	r3, #1
 239 0020 32D0     		beq	.L32
 240              		.loc 1 140 3 discriminator 2 view .LVU63
 141:Drivers/STM32F1xx_HAL_Driver/Src/stm32f1xx_hal_rtc_ex.c **** 
 142:Drivers/STM32F1xx_HAL_Driver/Src/stm32f1xx_hal_rtc_ex.c ****   hrtc->State = HAL_RTC_STATE_BUSY;
 241              		.loc 1 142 15 is_stmt 0 discriminator 2 view .LVU64
 242 0022 0223     		movs	r3, #2
 140:Drivers/STM32F1xx_HAL_Driver/Src/stm32f1xx_hal_rtc_ex.c **** 
 243              		.loc 1 140 3 discriminator 2 view .LVU65
 244 0024 4FF0010C 		mov	ip, #1
 143:Drivers/STM32F1xx_HAL_Driver/Src/stm32f1xx_hal_rtc_ex.c **** 
 144:Drivers/STM32F1xx_HAL_Driver/Src/stm32f1xx_hal_rtc_ex.c ****   if (HAL_IS_BIT_SET(BKP->RTCCR, (BKP_RTCCR_CCO | BKP_RTCCR_ASOE)))
 245              		.loc 1 144 7 discriminator 2 view .LVU66
 246 0028 184A     		ldr	r2, .L46
 140:Drivers/STM32F1xx_HAL_Driver/Src/stm32f1xx_hal_rtc_ex.c **** 
 247              		.loc 1 140 3 discriminator 2 view .LVU67
 248 002a 84F810C0 		strb	ip, [r4, #16]
 140:Drivers/STM32F1xx_HAL_Driver/Src/stm32f1xx_hal_rtc_ex.c **** 
 249              		.loc 1 140 3 is_stmt 1 discriminator 2 view .LVU68
 142:Drivers/STM32F1xx_HAL_Driver/Src/stm32f1xx_hal_rtc_ex.c **** 
 250              		.loc 1 142 3 discriminator 2 view .LVU69
 142:Drivers/STM32F1xx_HAL_Driver/Src/stm32f1xx_hal_rtc_ex.c **** 
 251              		.loc 1 142 15 is_stmt 0 discriminator 2 view .LVU70
 252 002e 6374     		strb	r3, [r4, #17]
 253              		.loc 1 144 3 is_stmt 1 discriminator 2 view .LVU71
 254              		.loc 1 144 7 is_stmt 0 discriminator 2 view .LVU72
 255 0030 D36A     		ldr	r3, [r2, #44]
 256              		.loc 1 144 6 discriminator 2 view .LVU73
 257 0032 13F4C073 		ands	r3, r3, #384
 258 0036 1DD1     		bne	.L45
 145:Drivers/STM32F1xx_HAL_Driver/Src/stm32f1xx_hal_rtc_ex.c ****   {
 146:Drivers/STM32F1xx_HAL_Driver/Src/stm32f1xx_hal_rtc_ex.c ****     hrtc->State = HAL_RTC_STATE_ERROR;
 147:Drivers/STM32F1xx_HAL_Driver/Src/stm32f1xx_hal_rtc_ex.c **** 
 148:Drivers/STM32F1xx_HAL_Driver/Src/stm32f1xx_hal_rtc_ex.c ****     /* Process Unlocked */
 149:Drivers/STM32F1xx_HAL_Driver/Src/stm32f1xx_hal_rtc_ex.c ****     __HAL_UNLOCK(hrtc);
 150:Drivers/STM32F1xx_HAL_Driver/Src/stm32f1xx_hal_rtc_ex.c **** 
 151:Drivers/STM32F1xx_HAL_Driver/Src/stm32f1xx_hal_rtc_ex.c ****     return HAL_ERROR;
 152:Drivers/STM32F1xx_HAL_Driver/Src/stm32f1xx_hal_rtc_ex.c ****   }
 153:Drivers/STM32F1xx_HAL_Driver/Src/stm32f1xx_hal_rtc_ex.c **** 
 154:Drivers/STM32F1xx_HAL_Driver/Src/stm32f1xx_hal_rtc_ex.c ****   MODIFY_REG(BKP->CR, (BKP_CR_TPE | BKP_CR_TPAL), (sTamper->Tamper | (sTamper->Trigger)));
 259              		.loc 1 154 3 is_stmt 1 view .LVU74
 260 0038 D5E90015 		ldrd	r1, r5, [r5]
 261              	.LVL16:
 262              		.loc 1 154 3 is_stmt 0 view .LVU75
 263 003c 106B     		ldr	r0, [r2, #48]
 264 003e 2943     		orrs	r1, r1, r5
 265 0040 20F00300 		bic	r0, r0, #3
 266 0044 0143     		orrs	r1, r1, r0
 267 0046 1163     		str	r1, [r2, #48]
 155:Drivers/STM32F1xx_HAL_Driver/Src/stm32f1xx_hal_rtc_ex.c **** 
 156:Drivers/STM32F1xx_HAL_Driver/Src/stm32f1xx_hal_rtc_ex.c ****   /* Configure the Tamper Interrupt in the BKP->CSR */
 157:Drivers/STM32F1xx_HAL_Driver/Src/stm32f1xx_hal_rtc_ex.c ****   __HAL_RTC_TAMPER_ENABLE_IT(hrtc, RTC_IT_TAMP1);
 268              		.loc 1 157 3 is_stmt 1 view .LVU76
ARM GAS  C:\Users\WENHUA~1\AppData\Local\Temp\ccM6dVR4.s 			page 9


 269 0048 516B     		ldr	r1, [r2, #52]
 158:Drivers/STM32F1xx_HAL_Driver/Src/stm32f1xx_hal_rtc_ex.c **** 
 159:Drivers/STM32F1xx_HAL_Driver/Src/stm32f1xx_hal_rtc_ex.c ****   hrtc->State = HAL_RTC_STATE_READY;
 160:Drivers/STM32F1xx_HAL_Driver/Src/stm32f1xx_hal_rtc_ex.c **** 
 161:Drivers/STM32F1xx_HAL_Driver/Src/stm32f1xx_hal_rtc_ex.c ****   /* Process Unlocked */
 162:Drivers/STM32F1xx_HAL_Driver/Src/stm32f1xx_hal_rtc_ex.c ****   __HAL_UNLOCK(hrtc);
 163:Drivers/STM32F1xx_HAL_Driver/Src/stm32f1xx_hal_rtc_ex.c **** 
 164:Drivers/STM32F1xx_HAL_Driver/Src/stm32f1xx_hal_rtc_ex.c ****   return HAL_OK;
 270              		.loc 1 164 10 is_stmt 0 view .LVU77
 271 004a 1846     		mov	r0, r3
 157:Drivers/STM32F1xx_HAL_Driver/Src/stm32f1xx_hal_rtc_ex.c **** 
 272              		.loc 1 157 3 view .LVU78
 273 004c 41F00401 		orr	r1, r1, #4
 274 0050 5163     		str	r1, [r2, #52]
 159:Drivers/STM32F1xx_HAL_Driver/Src/stm32f1xx_hal_rtc_ex.c **** 
 275              		.loc 1 159 3 is_stmt 1 view .LVU79
 159:Drivers/STM32F1xx_HAL_Driver/Src/stm32f1xx_hal_rtc_ex.c **** 
 276              		.loc 1 159 15 is_stmt 0 view .LVU80
 277 0052 84F811C0 		strb	ip, [r4, #17]
 162:Drivers/STM32F1xx_HAL_Driver/Src/stm32f1xx_hal_rtc_ex.c **** 
 278              		.loc 1 162 3 is_stmt 1 view .LVU81
 162:Drivers/STM32F1xx_HAL_Driver/Src/stm32f1xx_hal_rtc_ex.c **** 
 279              		.loc 1 162 3 view .LVU82
 280 0056 2374     		strb	r3, [r4, #16]
 162:Drivers/STM32F1xx_HAL_Driver/Src/stm32f1xx_hal_rtc_ex.c **** 
 281              		.loc 1 162 3 view .LVU83
 282              		.loc 1 164 3 view .LVU84
 165:Drivers/STM32F1xx_HAL_Driver/Src/stm32f1xx_hal_rtc_ex.c **** }
 283              		.loc 1 165 1 is_stmt 0 view .LVU85
 284 0058 38BD     		pop	{r3, r4, r5, pc}
 285              	.LVL17:
 286              	.L43:
 136:Drivers/STM32F1xx_HAL_Driver/Src/stm32f1xx_hal_rtc_ex.c ****   assert_param(IS_RTC_TAMPER_TRIGGER(sTamper->Trigger));
 287              		.loc 1 136 3 discriminator 1 view .LVU86
 288 005a 8821     		movs	r1, #136
 289              	.LVL18:
 136:Drivers/STM32F1xx_HAL_Driver/Src/stm32f1xx_hal_rtc_ex.c ****   assert_param(IS_RTC_TAMPER_TRIGGER(sTamper->Trigger));
 290              		.loc 1 136 3 discriminator 1 view .LVU87
 291 005c 0C48     		ldr	r0, .L46+4
 292              	.LVL19:
 136:Drivers/STM32F1xx_HAL_Driver/Src/stm32f1xx_hal_rtc_ex.c ****   assert_param(IS_RTC_TAMPER_TRIGGER(sTamper->Trigger));
 293              		.loc 1 136 3 discriminator 1 view .LVU88
 294 005e FFF7FEFF 		bl	assert_failed
 295              	.LVL20:
 137:Drivers/STM32F1xx_HAL_Driver/Src/stm32f1xx_hal_rtc_ex.c **** 
 296              		.loc 1 137 3 is_stmt 1 discriminator 1 view .LVU89
 297 0062 6B68     		ldr	r3, [r5, #4]
 298 0064 33F00203 		bics	r3, r3, #2
 299 0068 D8D0     		beq	.L28
 300              	.L44:
 137:Drivers/STM32F1xx_HAL_Driver/Src/stm32f1xx_hal_rtc_ex.c **** 
 301              		.loc 1 137 3 is_stmt 0 discriminator 2 view .LVU90
 302 006a 8921     		movs	r1, #137
 303 006c 0848     		ldr	r0, .L46+4
 304 006e FFF7FEFF 		bl	assert_failed
 305              	.LVL21:
 306 0072 D3E7     		b	.L28
ARM GAS  C:\Users\WENHUA~1\AppData\Local\Temp\ccM6dVR4.s 			page 10


 307              	.L45:
 146:Drivers/STM32F1xx_HAL_Driver/Src/stm32f1xx_hal_rtc_ex.c **** 
 308              		.loc 1 146 5 is_stmt 1 view .LVU91
 146:Drivers/STM32F1xx_HAL_Driver/Src/stm32f1xx_hal_rtc_ex.c **** 
 309              		.loc 1 146 17 is_stmt 0 view .LVU92
 310 0074 0422     		movs	r2, #4
 149:Drivers/STM32F1xx_HAL_Driver/Src/stm32f1xx_hal_rtc_ex.c **** 
 311              		.loc 1 149 5 view .LVU93
 312 0076 0023     		movs	r3, #0
 146:Drivers/STM32F1xx_HAL_Driver/Src/stm32f1xx_hal_rtc_ex.c **** 
 313              		.loc 1 146 17 view .LVU94
 314 0078 6274     		strb	r2, [r4, #17]
 149:Drivers/STM32F1xx_HAL_Driver/Src/stm32f1xx_hal_rtc_ex.c **** 
 315              		.loc 1 149 5 is_stmt 1 view .LVU95
 149:Drivers/STM32F1xx_HAL_Driver/Src/stm32f1xx_hal_rtc_ex.c **** 
 316              		.loc 1 149 5 view .LVU96
 317 007a 2374     		strb	r3, [r4, #16]
 149:Drivers/STM32F1xx_HAL_Driver/Src/stm32f1xx_hal_rtc_ex.c **** 
 318              		.loc 1 149 5 view .LVU97
 151:Drivers/STM32F1xx_HAL_Driver/Src/stm32f1xx_hal_rtc_ex.c ****   }
 319              		.loc 1 151 5 view .LVU98
 151:Drivers/STM32F1xx_HAL_Driver/Src/stm32f1xx_hal_rtc_ex.c ****   }
 320              		.loc 1 151 12 is_stmt 0 view .LVU99
 321 007c 6046     		mov	r0, ip
 322              		.loc 1 165 1 view .LVU100
 323 007e 38BD     		pop	{r3, r4, r5, pc}
 324              	.LVL22:
 325              	.L30:
 326              	.LCFI4:
 327              		.cfi_def_cfa_offset 0
 328              		.cfi_restore 3
 329              		.cfi_restore 4
 330              		.cfi_restore 5
 331              		.cfi_restore 14
 132:Drivers/STM32F1xx_HAL_Driver/Src/stm32f1xx_hal_rtc_ex.c ****   }
 332              		.loc 1 132 12 view .LVU101
 333 0080 0120     		movs	r0, #1
 334              	.LVL23:
 335              		.loc 1 165 1 view .LVU102
 336 0082 7047     		bx	lr
 337              	.LVL24:
 338              	.L31:
 339              	.LCFI5:
 340              		.cfi_def_cfa_offset 16
 341              		.cfi_offset 3, -16
 342              		.cfi_offset 4, -12
 343              		.cfi_offset 5, -8
 344              		.cfi_offset 14, -4
 132:Drivers/STM32F1xx_HAL_Driver/Src/stm32f1xx_hal_rtc_ex.c ****   }
 345              		.loc 1 132 12 view .LVU103
 346 0084 0120     		movs	r0, #1
 347              	.LVL25:
 348              		.loc 1 165 1 view .LVU104
 349 0086 38BD     		pop	{r3, r4, r5, pc}
 350              	.LVL26:
 351              	.L32:
 140:Drivers/STM32F1xx_HAL_Driver/Src/stm32f1xx_hal_rtc_ex.c **** 
ARM GAS  C:\Users\WENHUA~1\AppData\Local\Temp\ccM6dVR4.s 			page 11


 352              		.loc 1 140 3 view .LVU105
 353 0088 0220     		movs	r0, #2
 354              		.loc 1 165 1 view .LVU106
 355 008a 38BD     		pop	{r3, r4, r5, pc}
 356              	.LVL27:
 357              	.L47:
 358              		.loc 1 165 1 view .LVU107
 359              		.align	2
 360              	.L46:
 361 008c 006C0040 		.word	1073769472
 362 0090 00000000 		.word	.LC0
 363              		.cfi_endproc
 364              	.LFE66:
 366              		.section	.text.HAL_RTCEx_DeactivateTamper,"ax",%progbits
 367              		.align	1
 368              		.p2align 2,,3
 369              		.global	HAL_RTCEx_DeactivateTamper
 370              		.syntax unified
 371              		.thumb
 372              		.thumb_func
 374              	HAL_RTCEx_DeactivateTamper:
 375              	.LVL28:
 376              	.LFB67:
 166:Drivers/STM32F1xx_HAL_Driver/Src/stm32f1xx_hal_rtc_ex.c **** 
 167:Drivers/STM32F1xx_HAL_Driver/Src/stm32f1xx_hal_rtc_ex.c **** /**
 168:Drivers/STM32F1xx_HAL_Driver/Src/stm32f1xx_hal_rtc_ex.c ****   * @brief  Deactivates Tamper.
 169:Drivers/STM32F1xx_HAL_Driver/Src/stm32f1xx_hal_rtc_ex.c ****   * @param  hrtc: pointer to a RTC_HandleTypeDef structure that contains
 170:Drivers/STM32F1xx_HAL_Driver/Src/stm32f1xx_hal_rtc_ex.c ****   *                the configuration information for RTC.
 171:Drivers/STM32F1xx_HAL_Driver/Src/stm32f1xx_hal_rtc_ex.c ****   * @param  Tamper: Selected tamper pin.
 172:Drivers/STM32F1xx_HAL_Driver/Src/stm32f1xx_hal_rtc_ex.c ****   *          This parameter can be a value of @ref RTCEx_Tamper_Pins_Definitions
 173:Drivers/STM32F1xx_HAL_Driver/Src/stm32f1xx_hal_rtc_ex.c ****   * @retval HAL status
 174:Drivers/STM32F1xx_HAL_Driver/Src/stm32f1xx_hal_rtc_ex.c ****   */
 175:Drivers/STM32F1xx_HAL_Driver/Src/stm32f1xx_hal_rtc_ex.c **** HAL_StatusTypeDef HAL_RTCEx_DeactivateTamper(RTC_HandleTypeDef *hrtc, uint32_t Tamper)
 176:Drivers/STM32F1xx_HAL_Driver/Src/stm32f1xx_hal_rtc_ex.c **** {
 377              		.loc 1 176 1 is_stmt 1 view -0
 378              		.cfi_startproc
 379              		@ args = 0, pretend = 0, frame = 0
 380              		@ frame_needed = 0, uses_anonymous_args = 0
 177:Drivers/STM32F1xx_HAL_Driver/Src/stm32f1xx_hal_rtc_ex.c ****   /* Check input parameters */
 178:Drivers/STM32F1xx_HAL_Driver/Src/stm32f1xx_hal_rtc_ex.c ****   if (hrtc == NULL)
 381              		.loc 1 178 3 view .LVU109
 382              		.loc 1 178 6 is_stmt 0 view .LVU110
 383 0000 50B3     		cbz	r0, .L51
 179:Drivers/STM32F1xx_HAL_Driver/Src/stm32f1xx_hal_rtc_ex.c ****   {
 180:Drivers/STM32F1xx_HAL_Driver/Src/stm32f1xx_hal_rtc_ex.c ****     return HAL_ERROR;
 181:Drivers/STM32F1xx_HAL_Driver/Src/stm32f1xx_hal_rtc_ex.c ****   }
 182:Drivers/STM32F1xx_HAL_Driver/Src/stm32f1xx_hal_rtc_ex.c ****   /* Prevent unused argument(s) compilation warning */
 183:Drivers/STM32F1xx_HAL_Driver/Src/stm32f1xx_hal_rtc_ex.c ****   UNUSED(Tamper);
 184:Drivers/STM32F1xx_HAL_Driver/Src/stm32f1xx_hal_rtc_ex.c **** 
 185:Drivers/STM32F1xx_HAL_Driver/Src/stm32f1xx_hal_rtc_ex.c ****   assert_param(IS_RTC_TAMPER(Tamper));
 384              		.loc 1 185 3 view .LVU111
 385 0002 0129     		cmp	r1, #1
 176:Drivers/STM32F1xx_HAL_Driver/Src/stm32f1xx_hal_rtc_ex.c ****   /* Check input parameters */
 386              		.loc 1 176 1 view .LVU112
 387 0004 10B5     		push	{r4, lr}
 388              	.LCFI6:
 389              		.cfi_def_cfa_offset 8
ARM GAS  C:\Users\WENHUA~1\AppData\Local\Temp\ccM6dVR4.s 			page 12


 390              		.cfi_offset 4, -8
 391              		.cfi_offset 14, -4
 392 0006 0446     		mov	r4, r0
 183:Drivers/STM32F1xx_HAL_Driver/Src/stm32f1xx_hal_rtc_ex.c **** 
 393              		.loc 1 183 3 is_stmt 1 view .LVU113
 394              		.loc 1 185 3 view .LVU114
 395 0008 1DD1     		bne	.L60
 186:Drivers/STM32F1xx_HAL_Driver/Src/stm32f1xx_hal_rtc_ex.c **** 
 187:Drivers/STM32F1xx_HAL_Driver/Src/stm32f1xx_hal_rtc_ex.c ****   /* Process Locked */
 188:Drivers/STM32F1xx_HAL_Driver/Src/stm32f1xx_hal_rtc_ex.c ****   __HAL_LOCK(hrtc);
 396              		.loc 1 188 3 view .LVU115
 397              		.loc 1 188 3 view .LVU116
 398 000a 237C     		ldrb	r3, [r4, #16]	@ zero_extendqisi2
 399 000c 012B     		cmp	r3, #1
 400 000e 21D0     		beq	.L52
 401              	.LVL29:
 402              	.L61:
 403              		.loc 1 188 3 discriminator 2 view .LVU117
 404              		.loc 1 188 3 discriminator 2 view .LVU118
 189:Drivers/STM32F1xx_HAL_Driver/Src/stm32f1xx_hal_rtc_ex.c **** 
 190:Drivers/STM32F1xx_HAL_Driver/Src/stm32f1xx_hal_rtc_ex.c ****   hrtc->State = HAL_RTC_STATE_BUSY;
 405              		.loc 1 190 3 discriminator 2 view .LVU119
 406              		.loc 1 190 15 is_stmt 0 discriminator 2 view .LVU120
 407 0010 0222     		movs	r2, #2
 191:Drivers/STM32F1xx_HAL_Driver/Src/stm32f1xx_hal_rtc_ex.c **** 
 192:Drivers/STM32F1xx_HAL_Driver/Src/stm32f1xx_hal_rtc_ex.c ****   /* Disable the selected Tamper pin */
 193:Drivers/STM32F1xx_HAL_Driver/Src/stm32f1xx_hal_rtc_ex.c ****   CLEAR_BIT(BKP->CR, BKP_CR_TPE);
 194:Drivers/STM32F1xx_HAL_Driver/Src/stm32f1xx_hal_rtc_ex.c **** 
 195:Drivers/STM32F1xx_HAL_Driver/Src/stm32f1xx_hal_rtc_ex.c ****   /* Disable the Tamper Interrupt in the BKP->CSR */
 196:Drivers/STM32F1xx_HAL_Driver/Src/stm32f1xx_hal_rtc_ex.c ****   /* Configure the Tamper Interrupt in the BKP->CSR */
 197:Drivers/STM32F1xx_HAL_Driver/Src/stm32f1xx_hal_rtc_ex.c ****   __HAL_RTC_TAMPER_DISABLE_IT(hrtc, RTC_IT_TAMP1);
 198:Drivers/STM32F1xx_HAL_Driver/Src/stm32f1xx_hal_rtc_ex.c **** 
 199:Drivers/STM32F1xx_HAL_Driver/Src/stm32f1xx_hal_rtc_ex.c ****   /* Clear the Tamper interrupt pending bit */
 200:Drivers/STM32F1xx_HAL_Driver/Src/stm32f1xx_hal_rtc_ex.c ****   __HAL_RTC_TAMPER_CLEAR_FLAG(hrtc, RTC_FLAG_TAMP1F);
 201:Drivers/STM32F1xx_HAL_Driver/Src/stm32f1xx_hal_rtc_ex.c ****   SET_BIT(BKP->CSR, BKP_CSR_CTE);
 202:Drivers/STM32F1xx_HAL_Driver/Src/stm32f1xx_hal_rtc_ex.c **** 
 203:Drivers/STM32F1xx_HAL_Driver/Src/stm32f1xx_hal_rtc_ex.c ****   hrtc->State = HAL_RTC_STATE_READY;
 408              		.loc 1 203 15 discriminator 2 view .LVU121
 409 0012 4FF0010C 		mov	ip, #1
 204:Drivers/STM32F1xx_HAL_Driver/Src/stm32f1xx_hal_rtc_ex.c **** 
 205:Drivers/STM32F1xx_HAL_Driver/Src/stm32f1xx_hal_rtc_ex.c ****   /* Process Unlocked */
 206:Drivers/STM32F1xx_HAL_Driver/Src/stm32f1xx_hal_rtc_ex.c ****   __HAL_UNLOCK(hrtc);
 410              		.loc 1 206 3 discriminator 2 view .LVU122
 411 0016 0021     		movs	r1, #0
 193:Drivers/STM32F1xx_HAL_Driver/Src/stm32f1xx_hal_rtc_ex.c **** 
 412              		.loc 1 193 3 discriminator 2 view .LVU123
 413 0018 104B     		ldr	r3, .L62
 190:Drivers/STM32F1xx_HAL_Driver/Src/stm32f1xx_hal_rtc_ex.c **** 
 414              		.loc 1 190 15 discriminator 2 view .LVU124
 415 001a 6274     		strb	r2, [r4, #17]
 193:Drivers/STM32F1xx_HAL_Driver/Src/stm32f1xx_hal_rtc_ex.c **** 
 416              		.loc 1 193 3 is_stmt 1 discriminator 2 view .LVU125
 417 001c 1A6B     		ldr	r2, [r3, #48]
 207:Drivers/STM32F1xx_HAL_Driver/Src/stm32f1xx_hal_rtc_ex.c **** 
 208:Drivers/STM32F1xx_HAL_Driver/Src/stm32f1xx_hal_rtc_ex.c ****   return HAL_OK;
 418              		.loc 1 208 10 is_stmt 0 discriminator 2 view .LVU126
 419 001e 0846     		mov	r0, r1
ARM GAS  C:\Users\WENHUA~1\AppData\Local\Temp\ccM6dVR4.s 			page 13


 193:Drivers/STM32F1xx_HAL_Driver/Src/stm32f1xx_hal_rtc_ex.c **** 
 420              		.loc 1 193 3 discriminator 2 view .LVU127
 421 0020 22F00102 		bic	r2, r2, #1
 422 0024 1A63     		str	r2, [r3, #48]
 197:Drivers/STM32F1xx_HAL_Driver/Src/stm32f1xx_hal_rtc_ex.c **** 
 423              		.loc 1 197 3 is_stmt 1 discriminator 2 view .LVU128
 424 0026 5A6B     		ldr	r2, [r3, #52]
 425 0028 22F00402 		bic	r2, r2, #4
 426 002c 5A63     		str	r2, [r3, #52]
 200:Drivers/STM32F1xx_HAL_Driver/Src/stm32f1xx_hal_rtc_ex.c ****   SET_BIT(BKP->CSR, BKP_CSR_CTE);
 427              		.loc 1 200 3 discriminator 2 view .LVU129
 428 002e 5A6B     		ldr	r2, [r3, #52]
 429 0030 42F00302 		orr	r2, r2, #3
 430 0034 5A63     		str	r2, [r3, #52]
 201:Drivers/STM32F1xx_HAL_Driver/Src/stm32f1xx_hal_rtc_ex.c **** 
 431              		.loc 1 201 3 discriminator 2 view .LVU130
 432 0036 5A6B     		ldr	r2, [r3, #52]
 433 0038 42EA0C02 		orr	r2, r2, ip
 434 003c 5A63     		str	r2, [r3, #52]
 203:Drivers/STM32F1xx_HAL_Driver/Src/stm32f1xx_hal_rtc_ex.c **** 
 435              		.loc 1 203 3 discriminator 2 view .LVU131
 203:Drivers/STM32F1xx_HAL_Driver/Src/stm32f1xx_hal_rtc_ex.c **** 
 436              		.loc 1 203 15 is_stmt 0 discriminator 2 view .LVU132
 437 003e 84F811C0 		strb	ip, [r4, #17]
 206:Drivers/STM32F1xx_HAL_Driver/Src/stm32f1xx_hal_rtc_ex.c **** 
 438              		.loc 1 206 3 is_stmt 1 discriminator 2 view .LVU133
 206:Drivers/STM32F1xx_HAL_Driver/Src/stm32f1xx_hal_rtc_ex.c **** 
 439              		.loc 1 206 3 discriminator 2 view .LVU134
 440 0042 2174     		strb	r1, [r4, #16]
 206:Drivers/STM32F1xx_HAL_Driver/Src/stm32f1xx_hal_rtc_ex.c **** 
 441              		.loc 1 206 3 discriminator 2 view .LVU135
 442              		.loc 1 208 3 discriminator 2 view .LVU136
 209:Drivers/STM32F1xx_HAL_Driver/Src/stm32f1xx_hal_rtc_ex.c **** }
 443              		.loc 1 209 1 is_stmt 0 discriminator 2 view .LVU137
 444 0044 10BD     		pop	{r4, pc}
 445              	.LVL30:
 446              	.L60:
 185:Drivers/STM32F1xx_HAL_Driver/Src/stm32f1xx_hal_rtc_ex.c **** 
 447              		.loc 1 185 3 discriminator 1 view .LVU138
 448 0046 B921     		movs	r1, #185
 449              	.LVL31:
 185:Drivers/STM32F1xx_HAL_Driver/Src/stm32f1xx_hal_rtc_ex.c **** 
 450              		.loc 1 185 3 discriminator 1 view .LVU139
 451 0048 0548     		ldr	r0, .L62+4
 452              	.LVL32:
 185:Drivers/STM32F1xx_HAL_Driver/Src/stm32f1xx_hal_rtc_ex.c **** 
 453              		.loc 1 185 3 discriminator 1 view .LVU140
 454 004a FFF7FEFF 		bl	assert_failed
 455              	.LVL33:
 188:Drivers/STM32F1xx_HAL_Driver/Src/stm32f1xx_hal_rtc_ex.c **** 
 456              		.loc 1 188 3 is_stmt 1 discriminator 1 view .LVU141
 188:Drivers/STM32F1xx_HAL_Driver/Src/stm32f1xx_hal_rtc_ex.c **** 
 457              		.loc 1 188 3 discriminator 1 view .LVU142
 458 004e 237C     		ldrb	r3, [r4, #16]	@ zero_extendqisi2
 459 0050 012B     		cmp	r3, #1
 460 0052 DDD1     		bne	.L61
 461              	.L52:
ARM GAS  C:\Users\WENHUA~1\AppData\Local\Temp\ccM6dVR4.s 			page 14


 188:Drivers/STM32F1xx_HAL_Driver/Src/stm32f1xx_hal_rtc_ex.c **** 
 462              		.loc 1 188 3 is_stmt 0 view .LVU143
 463 0054 0220     		movs	r0, #2
 464              		.loc 1 209 1 view .LVU144
 465 0056 10BD     		pop	{r4, pc}
 466              	.LVL34:
 467              	.L51:
 468              	.LCFI7:
 469              		.cfi_def_cfa_offset 0
 470              		.cfi_restore 4
 471              		.cfi_restore 14
 180:Drivers/STM32F1xx_HAL_Driver/Src/stm32f1xx_hal_rtc_ex.c ****   }
 472              		.loc 1 180 12 view .LVU145
 473 0058 0120     		movs	r0, #1
 474              	.LVL35:
 475              		.loc 1 209 1 view .LVU146
 476 005a 7047     		bx	lr
 477              	.L63:
 478              		.align	2
 479              	.L62:
 480 005c 006C0040 		.word	1073769472
 481 0060 00000000 		.word	.LC0
 482              		.cfi_endproc
 483              	.LFE67:
 485              		.section	.text.HAL_RTCEx_Tamper1EventCallback,"ax",%progbits
 486              		.align	1
 487              		.p2align 2,,3
 488              		.weak	HAL_RTCEx_Tamper1EventCallback
 489              		.syntax unified
 490              		.thumb
 491              		.thumb_func
 493              	HAL_RTCEx_Tamper1EventCallback:
 494              	.LVL36:
 495              	.LFB69:
 210:Drivers/STM32F1xx_HAL_Driver/Src/stm32f1xx_hal_rtc_ex.c **** 
 211:Drivers/STM32F1xx_HAL_Driver/Src/stm32f1xx_hal_rtc_ex.c **** /**
 212:Drivers/STM32F1xx_HAL_Driver/Src/stm32f1xx_hal_rtc_ex.c ****   * @brief  This function handles Tamper interrupt request.
 213:Drivers/STM32F1xx_HAL_Driver/Src/stm32f1xx_hal_rtc_ex.c ****   * @param  hrtc: pointer to a RTC_HandleTypeDef structure that contains
 214:Drivers/STM32F1xx_HAL_Driver/Src/stm32f1xx_hal_rtc_ex.c ****   *                the configuration information for RTC.
 215:Drivers/STM32F1xx_HAL_Driver/Src/stm32f1xx_hal_rtc_ex.c ****   * @retval None
 216:Drivers/STM32F1xx_HAL_Driver/Src/stm32f1xx_hal_rtc_ex.c ****   */
 217:Drivers/STM32F1xx_HAL_Driver/Src/stm32f1xx_hal_rtc_ex.c **** void HAL_RTCEx_TamperIRQHandler(RTC_HandleTypeDef *hrtc)
 218:Drivers/STM32F1xx_HAL_Driver/Src/stm32f1xx_hal_rtc_ex.c **** {
 219:Drivers/STM32F1xx_HAL_Driver/Src/stm32f1xx_hal_rtc_ex.c ****   /* Get the status of the Interrupt */
 220:Drivers/STM32F1xx_HAL_Driver/Src/stm32f1xx_hal_rtc_ex.c ****   if (__HAL_RTC_TAMPER_GET_IT_SOURCE(hrtc, RTC_IT_TAMP1))
 221:Drivers/STM32F1xx_HAL_Driver/Src/stm32f1xx_hal_rtc_ex.c ****   {
 222:Drivers/STM32F1xx_HAL_Driver/Src/stm32f1xx_hal_rtc_ex.c ****     /* Get the TAMPER Interrupt enable bit and pending bit */
 223:Drivers/STM32F1xx_HAL_Driver/Src/stm32f1xx_hal_rtc_ex.c ****     if (__HAL_RTC_TAMPER_GET_FLAG(hrtc, RTC_FLAG_TAMP1F) != (uint32_t)RESET)
 224:Drivers/STM32F1xx_HAL_Driver/Src/stm32f1xx_hal_rtc_ex.c ****     {
 225:Drivers/STM32F1xx_HAL_Driver/Src/stm32f1xx_hal_rtc_ex.c ****       /* Tamper callback */
 226:Drivers/STM32F1xx_HAL_Driver/Src/stm32f1xx_hal_rtc_ex.c **** #if (USE_HAL_RTC_REGISTER_CALLBACKS == 1)
 227:Drivers/STM32F1xx_HAL_Driver/Src/stm32f1xx_hal_rtc_ex.c ****       hrtc->Tamper1EventCallback(hrtc);
 228:Drivers/STM32F1xx_HAL_Driver/Src/stm32f1xx_hal_rtc_ex.c **** #else
 229:Drivers/STM32F1xx_HAL_Driver/Src/stm32f1xx_hal_rtc_ex.c ****       HAL_RTCEx_Tamper1EventCallback(hrtc);
 230:Drivers/STM32F1xx_HAL_Driver/Src/stm32f1xx_hal_rtc_ex.c **** #endif /* USE_HAL_RTC_REGISTER_CALLBACKS */
 231:Drivers/STM32F1xx_HAL_Driver/Src/stm32f1xx_hal_rtc_ex.c **** 
 232:Drivers/STM32F1xx_HAL_Driver/Src/stm32f1xx_hal_rtc_ex.c ****       /* Clear the Tamper interrupt pending bit */
ARM GAS  C:\Users\WENHUA~1\AppData\Local\Temp\ccM6dVR4.s 			page 15


 233:Drivers/STM32F1xx_HAL_Driver/Src/stm32f1xx_hal_rtc_ex.c ****       __HAL_RTC_TAMPER_CLEAR_FLAG(hrtc, RTC_FLAG_TAMP1F);
 234:Drivers/STM32F1xx_HAL_Driver/Src/stm32f1xx_hal_rtc_ex.c ****     }
 235:Drivers/STM32F1xx_HAL_Driver/Src/stm32f1xx_hal_rtc_ex.c ****   }
 236:Drivers/STM32F1xx_HAL_Driver/Src/stm32f1xx_hal_rtc_ex.c **** 
 237:Drivers/STM32F1xx_HAL_Driver/Src/stm32f1xx_hal_rtc_ex.c ****   /* Change RTC state */
 238:Drivers/STM32F1xx_HAL_Driver/Src/stm32f1xx_hal_rtc_ex.c ****   hrtc->State = HAL_RTC_STATE_READY;
 239:Drivers/STM32F1xx_HAL_Driver/Src/stm32f1xx_hal_rtc_ex.c **** }
 240:Drivers/STM32F1xx_HAL_Driver/Src/stm32f1xx_hal_rtc_ex.c **** 
 241:Drivers/STM32F1xx_HAL_Driver/Src/stm32f1xx_hal_rtc_ex.c **** /**
 242:Drivers/STM32F1xx_HAL_Driver/Src/stm32f1xx_hal_rtc_ex.c ****   * @brief  Tamper 1 callback.
 243:Drivers/STM32F1xx_HAL_Driver/Src/stm32f1xx_hal_rtc_ex.c ****   * @param  hrtc: pointer to a RTC_HandleTypeDef structure that contains
 244:Drivers/STM32F1xx_HAL_Driver/Src/stm32f1xx_hal_rtc_ex.c ****   *                the configuration information for RTC.
 245:Drivers/STM32F1xx_HAL_Driver/Src/stm32f1xx_hal_rtc_ex.c ****   * @retval None
 246:Drivers/STM32F1xx_HAL_Driver/Src/stm32f1xx_hal_rtc_ex.c ****   */
 247:Drivers/STM32F1xx_HAL_Driver/Src/stm32f1xx_hal_rtc_ex.c **** __weak void HAL_RTCEx_Tamper1EventCallback(RTC_HandleTypeDef *hrtc)
 248:Drivers/STM32F1xx_HAL_Driver/Src/stm32f1xx_hal_rtc_ex.c **** {
 496              		.loc 1 248 1 is_stmt 1 view -0
 497              		.cfi_startproc
 498              		@ args = 0, pretend = 0, frame = 0
 499              		@ frame_needed = 0, uses_anonymous_args = 0
 500              		@ link register save eliminated.
 249:Drivers/STM32F1xx_HAL_Driver/Src/stm32f1xx_hal_rtc_ex.c ****   /* Prevent unused argument(s) compilation warning */
 250:Drivers/STM32F1xx_HAL_Driver/Src/stm32f1xx_hal_rtc_ex.c ****   UNUSED(hrtc);
 501              		.loc 1 250 3 view .LVU148
 251:Drivers/STM32F1xx_HAL_Driver/Src/stm32f1xx_hal_rtc_ex.c ****   /* NOTE : This function Should not be modified, when the callback is needed,
 252:Drivers/STM32F1xx_HAL_Driver/Src/stm32f1xx_hal_rtc_ex.c ****             the HAL_RTCEx_Tamper1EventCallback could be implemented in the user file
 253:Drivers/STM32F1xx_HAL_Driver/Src/stm32f1xx_hal_rtc_ex.c ****    */
 254:Drivers/STM32F1xx_HAL_Driver/Src/stm32f1xx_hal_rtc_ex.c **** }
 502              		.loc 1 254 1 is_stmt 0 view .LVU149
 503 0000 7047     		bx	lr
 504              		.cfi_endproc
 505              	.LFE69:
 507 0002 00BF     		.section	.text.HAL_RTCEx_TamperIRQHandler,"ax",%progbits
 508              		.align	1
 509              		.p2align 2,,3
 510              		.global	HAL_RTCEx_TamperIRQHandler
 511              		.syntax unified
 512              		.thumb
 513              		.thumb_func
 515              	HAL_RTCEx_TamperIRQHandler:
 516              	.LVL37:
 517              	.LFB68:
 218:Drivers/STM32F1xx_HAL_Driver/Src/stm32f1xx_hal_rtc_ex.c ****   /* Get the status of the Interrupt */
 518              		.loc 1 218 1 is_stmt 1 view -0
 519              		.cfi_startproc
 520              		@ args = 0, pretend = 0, frame = 0
 521              		@ frame_needed = 0, uses_anonymous_args = 0
 220:Drivers/STM32F1xx_HAL_Driver/Src/stm32f1xx_hal_rtc_ex.c ****   {
 522              		.loc 1 220 3 view .LVU151
 218:Drivers/STM32F1xx_HAL_Driver/Src/stm32f1xx_hal_rtc_ex.c ****   /* Get the status of the Interrupt */
 523              		.loc 1 218 1 is_stmt 0 view .LVU152
 524 0000 38B5     		push	{r3, r4, r5, lr}
 525              	.LCFI8:
 526              		.cfi_def_cfa_offset 16
 527              		.cfi_offset 3, -16
 528              		.cfi_offset 4, -12
 529              		.cfi_offset 5, -8
ARM GAS  C:\Users\WENHUA~1\AppData\Local\Temp\ccM6dVR4.s 			page 16


 530              		.cfi_offset 14, -4
 220:Drivers/STM32F1xx_HAL_Driver/Src/stm32f1xx_hal_rtc_ex.c ****   {
 531              		.loc 1 220 7 view .LVU153
 532 0002 0A4D     		ldr	r5, .L75
 218:Drivers/STM32F1xx_HAL_Driver/Src/stm32f1xx_hal_rtc_ex.c ****   /* Get the status of the Interrupt */
 533              		.loc 1 218 1 view .LVU154
 534 0004 0446     		mov	r4, r0
 220:Drivers/STM32F1xx_HAL_Driver/Src/stm32f1xx_hal_rtc_ex.c ****   {
 535              		.loc 1 220 7 view .LVU155
 536 0006 6B6B     		ldr	r3, [r5, #52]
 220:Drivers/STM32F1xx_HAL_Driver/Src/stm32f1xx_hal_rtc_ex.c ****   {
 537              		.loc 1 220 6 view .LVU156
 538 0008 5A07     		lsls	r2, r3, #29
 539 000a 02D5     		bpl	.L66
 223:Drivers/STM32F1xx_HAL_Driver/Src/stm32f1xx_hal_rtc_ex.c ****     {
 540              		.loc 1 223 5 is_stmt 1 view .LVU157
 223:Drivers/STM32F1xx_HAL_Driver/Src/stm32f1xx_hal_rtc_ex.c ****     {
 541              		.loc 1 223 9 is_stmt 0 view .LVU158
 542 000c 6B6B     		ldr	r3, [r5, #52]
 223:Drivers/STM32F1xx_HAL_Driver/Src/stm32f1xx_hal_rtc_ex.c ****     {
 543              		.loc 1 223 8 view .LVU159
 544 000e DB05     		lsls	r3, r3, #23
 545 0010 02D4     		bmi	.L74
 546              	.L66:
 238:Drivers/STM32F1xx_HAL_Driver/Src/stm32f1xx_hal_rtc_ex.c **** }
 547              		.loc 1 238 3 is_stmt 1 view .LVU160
 238:Drivers/STM32F1xx_HAL_Driver/Src/stm32f1xx_hal_rtc_ex.c **** }
 548              		.loc 1 238 15 is_stmt 0 view .LVU161
 549 0012 0123     		movs	r3, #1
 550 0014 6374     		strb	r3, [r4, #17]
 239:Drivers/STM32F1xx_HAL_Driver/Src/stm32f1xx_hal_rtc_ex.c **** 
 551              		.loc 1 239 1 view .LVU162
 552 0016 38BD     		pop	{r3, r4, r5, pc}
 553              	.L74:
 229:Drivers/STM32F1xx_HAL_Driver/Src/stm32f1xx_hal_rtc_ex.c **** #endif /* USE_HAL_RTC_REGISTER_CALLBACKS */
 554              		.loc 1 229 7 is_stmt 1 view .LVU163
 555 0018 FFF7FEFF 		bl	HAL_RTCEx_Tamper1EventCallback
 556              	.LVL38:
 233:Drivers/STM32F1xx_HAL_Driver/Src/stm32f1xx_hal_rtc_ex.c ****     }
 557              		.loc 1 233 7 view .LVU164
 558 001c 6B6B     		ldr	r3, [r5, #52]
 559 001e 43F00303 		orr	r3, r3, #3
 560 0022 6B63     		str	r3, [r5, #52]
 238:Drivers/STM32F1xx_HAL_Driver/Src/stm32f1xx_hal_rtc_ex.c **** }
 561              		.loc 1 238 3 view .LVU165
 238:Drivers/STM32F1xx_HAL_Driver/Src/stm32f1xx_hal_rtc_ex.c **** }
 562              		.loc 1 238 15 is_stmt 0 view .LVU166
 563 0024 0123     		movs	r3, #1
 564 0026 6374     		strb	r3, [r4, #17]
 239:Drivers/STM32F1xx_HAL_Driver/Src/stm32f1xx_hal_rtc_ex.c **** 
 565              		.loc 1 239 1 view .LVU167
 566 0028 38BD     		pop	{r3, r4, r5, pc}
 567              	.LVL39:
 568              	.L76:
 239:Drivers/STM32F1xx_HAL_Driver/Src/stm32f1xx_hal_rtc_ex.c **** 
 569              		.loc 1 239 1 view .LVU168
 570 002a 00BF     		.align	2
ARM GAS  C:\Users\WENHUA~1\AppData\Local\Temp\ccM6dVR4.s 			page 17


 571              	.L75:
 572 002c 006C0040 		.word	1073769472
 573              		.cfi_endproc
 574              	.LFE68:
 576              		.section	.text.HAL_RTCEx_PollForTamper1Event,"ax",%progbits
 577              		.align	1
 578              		.p2align 2,,3
 579              		.global	HAL_RTCEx_PollForTamper1Event
 580              		.syntax unified
 581              		.thumb
 582              		.thumb_func
 584              	HAL_RTCEx_PollForTamper1Event:
 585              	.LVL40:
 586              	.LFB70:
 255:Drivers/STM32F1xx_HAL_Driver/Src/stm32f1xx_hal_rtc_ex.c **** 
 256:Drivers/STM32F1xx_HAL_Driver/Src/stm32f1xx_hal_rtc_ex.c **** /**
 257:Drivers/STM32F1xx_HAL_Driver/Src/stm32f1xx_hal_rtc_ex.c ****   * @brief  This function handles Tamper1 Polling.
 258:Drivers/STM32F1xx_HAL_Driver/Src/stm32f1xx_hal_rtc_ex.c ****   * @param  hrtc: pointer to a RTC_HandleTypeDef structure that contains
 259:Drivers/STM32F1xx_HAL_Driver/Src/stm32f1xx_hal_rtc_ex.c ****   *                the configuration information for RTC.
 260:Drivers/STM32F1xx_HAL_Driver/Src/stm32f1xx_hal_rtc_ex.c ****   * @param  Timeout: Timeout duration
 261:Drivers/STM32F1xx_HAL_Driver/Src/stm32f1xx_hal_rtc_ex.c ****   * @retval HAL status
 262:Drivers/STM32F1xx_HAL_Driver/Src/stm32f1xx_hal_rtc_ex.c ****   */
 263:Drivers/STM32F1xx_HAL_Driver/Src/stm32f1xx_hal_rtc_ex.c **** HAL_StatusTypeDef HAL_RTCEx_PollForTamper1Event(RTC_HandleTypeDef *hrtc, uint32_t Timeout)
 264:Drivers/STM32F1xx_HAL_Driver/Src/stm32f1xx_hal_rtc_ex.c **** {
 587              		.loc 1 264 1 is_stmt 1 view -0
 588              		.cfi_startproc
 589              		@ args = 0, pretend = 0, frame = 0
 590              		@ frame_needed = 0, uses_anonymous_args = 0
 265:Drivers/STM32F1xx_HAL_Driver/Src/stm32f1xx_hal_rtc_ex.c ****   uint32_t tickstart = HAL_GetTick();
 591              		.loc 1 265 3 view .LVU170
 264:Drivers/STM32F1xx_HAL_Driver/Src/stm32f1xx_hal_rtc_ex.c ****   uint32_t tickstart = HAL_GetTick();
 592              		.loc 1 264 1 is_stmt 0 view .LVU171
 593 0000 F8B5     		push	{r3, r4, r5, r6, r7, lr}
 594              	.LCFI9:
 595              		.cfi_def_cfa_offset 24
 596              		.cfi_offset 3, -24
 597              		.cfi_offset 4, -20
 598              		.cfi_offset 5, -16
 599              		.cfi_offset 6, -12
 600              		.cfi_offset 7, -8
 601              		.cfi_offset 14, -4
 264:Drivers/STM32F1xx_HAL_Driver/Src/stm32f1xx_hal_rtc_ex.c ****   uint32_t tickstart = HAL_GetTick();
 602              		.loc 1 264 1 view .LVU172
 603 0002 0546     		mov	r5, r0
 604 0004 0C46     		mov	r4, r1
 605              		.loc 1 265 24 view .LVU173
 606 0006 FFF7FEFF 		bl	HAL_GetTick
 607              	.LVL41:
 266:Drivers/STM32F1xx_HAL_Driver/Src/stm32f1xx_hal_rtc_ex.c **** 
 267:Drivers/STM32F1xx_HAL_Driver/Src/stm32f1xx_hal_rtc_ex.c ****   /* Check input parameters */
 268:Drivers/STM32F1xx_HAL_Driver/Src/stm32f1xx_hal_rtc_ex.c ****   if (hrtc == NULL)
 608              		.loc 1 268 3 is_stmt 1 view .LVU174
 609              		.loc 1 268 6 is_stmt 0 view .LVU175
 610 000a EDB1     		cbz	r5, .L85
 611 000c 0646     		mov	r6, r0
 269:Drivers/STM32F1xx_HAL_Driver/Src/stm32f1xx_hal_rtc_ex.c ****   {
 270:Drivers/STM32F1xx_HAL_Driver/Src/stm32f1xx_hal_rtc_ex.c ****     return HAL_ERROR;
ARM GAS  C:\Users\WENHUA~1\AppData\Local\Temp\ccM6dVR4.s 			page 18


 271:Drivers/STM32F1xx_HAL_Driver/Src/stm32f1xx_hal_rtc_ex.c ****   }
 272:Drivers/STM32F1xx_HAL_Driver/Src/stm32f1xx_hal_rtc_ex.c **** 
 273:Drivers/STM32F1xx_HAL_Driver/Src/stm32f1xx_hal_rtc_ex.c ****   /* Get the status of the Interrupt */
 274:Drivers/STM32F1xx_HAL_Driver/Src/stm32f1xx_hal_rtc_ex.c ****   while (__HAL_RTC_TAMPER_GET_FLAG(hrtc, RTC_FLAG_TAMP1F) == RESET)
 612              		.loc 1 274 10 view .LVU176
 613 000e 0F4F     		ldr	r7, .L93
 614              	.LVL42:
 615              	.L79:
 616              		.loc 1 274 10 view .LVU177
 617 0010 601C     		adds	r0, r4, #1
 618 0012 0CD1     		bne	.L81
 619 0014 0D4A     		ldr	r2, .L93
 620              	.L82:
 621              		.loc 1 274 9 is_stmt 1 view .LVU178
 622              		.loc 1 274 10 is_stmt 0 view .LVU179
 623 0016 536B     		ldr	r3, [r2, #52]
 624              		.loc 1 274 9 view .LVU180
 625 0018 D905     		lsls	r1, r3, #23
 626 001a FCD5     		bpl	.L82
 627              	.L83:
 275:Drivers/STM32F1xx_HAL_Driver/Src/stm32f1xx_hal_rtc_ex.c ****   {
 276:Drivers/STM32F1xx_HAL_Driver/Src/stm32f1xx_hal_rtc_ex.c ****     if (Timeout != HAL_MAX_DELAY)
 277:Drivers/STM32F1xx_HAL_Driver/Src/stm32f1xx_hal_rtc_ex.c ****     {
 278:Drivers/STM32F1xx_HAL_Driver/Src/stm32f1xx_hal_rtc_ex.c ****       if ((Timeout == 0U) || ((HAL_GetTick() - tickstart) > Timeout))
 279:Drivers/STM32F1xx_HAL_Driver/Src/stm32f1xx_hal_rtc_ex.c ****       {
 280:Drivers/STM32F1xx_HAL_Driver/Src/stm32f1xx_hal_rtc_ex.c ****         hrtc->State = HAL_RTC_STATE_TIMEOUT;
 281:Drivers/STM32F1xx_HAL_Driver/Src/stm32f1xx_hal_rtc_ex.c ****         return HAL_TIMEOUT;
 282:Drivers/STM32F1xx_HAL_Driver/Src/stm32f1xx_hal_rtc_ex.c ****       }
 283:Drivers/STM32F1xx_HAL_Driver/Src/stm32f1xx_hal_rtc_ex.c ****     }
 284:Drivers/STM32F1xx_HAL_Driver/Src/stm32f1xx_hal_rtc_ex.c ****   }
 285:Drivers/STM32F1xx_HAL_Driver/Src/stm32f1xx_hal_rtc_ex.c **** 
 286:Drivers/STM32F1xx_HAL_Driver/Src/stm32f1xx_hal_rtc_ex.c ****   /* Clear the Tamper Flag */
 287:Drivers/STM32F1xx_HAL_Driver/Src/stm32f1xx_hal_rtc_ex.c ****   __HAL_RTC_TAMPER_CLEAR_FLAG(hrtc, RTC_FLAG_TAMP1F);
 628              		.loc 1 287 3 is_stmt 1 view .LVU181
 288:Drivers/STM32F1xx_HAL_Driver/Src/stm32f1xx_hal_rtc_ex.c **** 
 289:Drivers/STM32F1xx_HAL_Driver/Src/stm32f1xx_hal_rtc_ex.c ****   /* Change RTC state */
 290:Drivers/STM32F1xx_HAL_Driver/Src/stm32f1xx_hal_rtc_ex.c ****   hrtc->State = HAL_RTC_STATE_READY;
 629              		.loc 1 290 15 is_stmt 0 view .LVU182
 630 001c 0121     		movs	r1, #1
 287:Drivers/STM32F1xx_HAL_Driver/Src/stm32f1xx_hal_rtc_ex.c **** 
 631              		.loc 1 287 3 view .LVU183
 632 001e 0B4A     		ldr	r2, .L93
 291:Drivers/STM32F1xx_HAL_Driver/Src/stm32f1xx_hal_rtc_ex.c **** 
 292:Drivers/STM32F1xx_HAL_Driver/Src/stm32f1xx_hal_rtc_ex.c ****   return HAL_OK;
 633              		.loc 1 292 10 view .LVU184
 634 0020 0020     		movs	r0, #0
 287:Drivers/STM32F1xx_HAL_Driver/Src/stm32f1xx_hal_rtc_ex.c **** 
 635              		.loc 1 287 3 view .LVU185
 636 0022 536B     		ldr	r3, [r2, #52]
 637 0024 43F00303 		orr	r3, r3, #3
 638 0028 5363     		str	r3, [r2, #52]
 290:Drivers/STM32F1xx_HAL_Driver/Src/stm32f1xx_hal_rtc_ex.c **** 
 639              		.loc 1 290 3 is_stmt 1 view .LVU186
 290:Drivers/STM32F1xx_HAL_Driver/Src/stm32f1xx_hal_rtc_ex.c **** 
 640              		.loc 1 290 15 is_stmt 0 view .LVU187
 641 002a 6974     		strb	r1, [r5, #17]
 642              		.loc 1 292 3 is_stmt 1 view .LVU188
ARM GAS  C:\Users\WENHUA~1\AppData\Local\Temp\ccM6dVR4.s 			page 19


 293:Drivers/STM32F1xx_HAL_Driver/Src/stm32f1xx_hal_rtc_ex.c **** }
 643              		.loc 1 293 1 is_stmt 0 view .LVU189
 644 002c F8BD     		pop	{r3, r4, r5, r6, r7, pc}
 645              	.LVL43:
 646              	.L81:
 276:Drivers/STM32F1xx_HAL_Driver/Src/stm32f1xx_hal_rtc_ex.c ****     {
 647              		.loc 1 276 5 is_stmt 1 view .LVU190
 278:Drivers/STM32F1xx_HAL_Driver/Src/stm32f1xx_hal_rtc_ex.c ****       {
 648              		.loc 1 278 7 view .LVU191
 274:Drivers/STM32F1xx_HAL_Driver/Src/stm32f1xx_hal_rtc_ex.c ****   {
 649              		.loc 1 274 9 view .LVU192
 274:Drivers/STM32F1xx_HAL_Driver/Src/stm32f1xx_hal_rtc_ex.c ****   {
 650              		.loc 1 274 10 is_stmt 0 view .LVU193
 651 002e 7B6B     		ldr	r3, [r7, #52]
 274:Drivers/STM32F1xx_HAL_Driver/Src/stm32f1xx_hal_rtc_ex.c ****   {
 652              		.loc 1 274 9 view .LVU194
 653 0030 DB05     		lsls	r3, r3, #23
 654 0032 F3D4     		bmi	.L83
 278:Drivers/STM32F1xx_HAL_Driver/Src/stm32f1xx_hal_rtc_ex.c ****       {
 655              		.loc 1 278 10 view .LVU195
 656 0034 24B1     		cbz	r4, .L80
 278:Drivers/STM32F1xx_HAL_Driver/Src/stm32f1xx_hal_rtc_ex.c ****       {
 657              		.loc 1 278 32 discriminator 1 view .LVU196
 658 0036 FFF7FEFF 		bl	HAL_GetTick
 659              	.LVL44:
 278:Drivers/STM32F1xx_HAL_Driver/Src/stm32f1xx_hal_rtc_ex.c ****       {
 660              		.loc 1 278 46 discriminator 1 view .LVU197
 661 003a 801B     		subs	r0, r0, r6
 278:Drivers/STM32F1xx_HAL_Driver/Src/stm32f1xx_hal_rtc_ex.c ****       {
 662              		.loc 1 278 27 discriminator 1 view .LVU198
 663 003c A042     		cmp	r0, r4
 664 003e E7D9     		bls	.L79
 665              	.L80:
 280:Drivers/STM32F1xx_HAL_Driver/Src/stm32f1xx_hal_rtc_ex.c ****         return HAL_TIMEOUT;
 666              		.loc 1 280 9 is_stmt 1 view .LVU199
 280:Drivers/STM32F1xx_HAL_Driver/Src/stm32f1xx_hal_rtc_ex.c ****         return HAL_TIMEOUT;
 667              		.loc 1 280 21 is_stmt 0 view .LVU200
 668 0040 0323     		movs	r3, #3
 669 0042 6B74     		strb	r3, [r5, #17]
 281:Drivers/STM32F1xx_HAL_Driver/Src/stm32f1xx_hal_rtc_ex.c ****       }
 670              		.loc 1 281 9 is_stmt 1 view .LVU201
 281:Drivers/STM32F1xx_HAL_Driver/Src/stm32f1xx_hal_rtc_ex.c ****       }
 671              		.loc 1 281 16 is_stmt 0 view .LVU202
 672 0044 1846     		mov	r0, r3
 673              		.loc 1 293 1 view .LVU203
 674 0046 F8BD     		pop	{r3, r4, r5, r6, r7, pc}
 675              	.LVL45:
 676              	.L85:
 270:Drivers/STM32F1xx_HAL_Driver/Src/stm32f1xx_hal_rtc_ex.c ****   }
 677              		.loc 1 270 12 view .LVU204
 678 0048 0120     		movs	r0, #1
 679              	.LVL46:
 680              		.loc 1 293 1 view .LVU205
 681 004a F8BD     		pop	{r3, r4, r5, r6, r7, pc}
 682              	.LVL47:
 683              	.L94:
 684              		.loc 1 293 1 view .LVU206
ARM GAS  C:\Users\WENHUA~1\AppData\Local\Temp\ccM6dVR4.s 			page 20


 685              		.align	2
 686              	.L93:
 687 004c 006C0040 		.word	1073769472
 688              		.cfi_endproc
 689              	.LFE70:
 691              		.section	.text.HAL_RTCEx_SetSecond_IT,"ax",%progbits
 692              		.align	1
 693              		.p2align 2,,3
 694              		.global	HAL_RTCEx_SetSecond_IT
 695              		.syntax unified
 696              		.thumb
 697              		.thumb_func
 699              	HAL_RTCEx_SetSecond_IT:
 700              	.LVL48:
 701              	.LFB71:
 294:Drivers/STM32F1xx_HAL_Driver/Src/stm32f1xx_hal_rtc_ex.c **** 
 295:Drivers/STM32F1xx_HAL_Driver/Src/stm32f1xx_hal_rtc_ex.c **** /**
 296:Drivers/STM32F1xx_HAL_Driver/Src/stm32f1xx_hal_rtc_ex.c ****   * @}
 297:Drivers/STM32F1xx_HAL_Driver/Src/stm32f1xx_hal_rtc_ex.c ****   */
 298:Drivers/STM32F1xx_HAL_Driver/Src/stm32f1xx_hal_rtc_ex.c **** 
 299:Drivers/STM32F1xx_HAL_Driver/Src/stm32f1xx_hal_rtc_ex.c **** /** @defgroup RTCEx_Exported_Functions_Group2 RTC Second functions
 300:Drivers/STM32F1xx_HAL_Driver/Src/stm32f1xx_hal_rtc_ex.c ****   * @brief    RTC Second functions
 301:Drivers/STM32F1xx_HAL_Driver/Src/stm32f1xx_hal_rtc_ex.c ****   *
 302:Drivers/STM32F1xx_HAL_Driver/Src/stm32f1xx_hal_rtc_ex.c **** @verbatim
 303:Drivers/STM32F1xx_HAL_Driver/Src/stm32f1xx_hal_rtc_ex.c ****  ===============================================================================
 304:Drivers/STM32F1xx_HAL_Driver/Src/stm32f1xx_hal_rtc_ex.c ****                  ##### RTC Second functions #####
 305:Drivers/STM32F1xx_HAL_Driver/Src/stm32f1xx_hal_rtc_ex.c ****  ===============================================================================
 306:Drivers/STM32F1xx_HAL_Driver/Src/stm32f1xx_hal_rtc_ex.c **** 
 307:Drivers/STM32F1xx_HAL_Driver/Src/stm32f1xx_hal_rtc_ex.c ****  [..] This section provides functions implementing second interupt handlers
 308:Drivers/STM32F1xx_HAL_Driver/Src/stm32f1xx_hal_rtc_ex.c **** 
 309:Drivers/STM32F1xx_HAL_Driver/Src/stm32f1xx_hal_rtc_ex.c **** @endverbatim
 310:Drivers/STM32F1xx_HAL_Driver/Src/stm32f1xx_hal_rtc_ex.c ****   * @{
 311:Drivers/STM32F1xx_HAL_Driver/Src/stm32f1xx_hal_rtc_ex.c ****   */
 312:Drivers/STM32F1xx_HAL_Driver/Src/stm32f1xx_hal_rtc_ex.c **** 
 313:Drivers/STM32F1xx_HAL_Driver/Src/stm32f1xx_hal_rtc_ex.c **** /**
 314:Drivers/STM32F1xx_HAL_Driver/Src/stm32f1xx_hal_rtc_ex.c ****   * @brief  Sets Interrupt for second
 315:Drivers/STM32F1xx_HAL_Driver/Src/stm32f1xx_hal_rtc_ex.c ****   * @param  hrtc: pointer to a RTC_HandleTypeDef structure that contains
 316:Drivers/STM32F1xx_HAL_Driver/Src/stm32f1xx_hal_rtc_ex.c ****   *                the configuration information for RTC.
 317:Drivers/STM32F1xx_HAL_Driver/Src/stm32f1xx_hal_rtc_ex.c ****   * @retval HAL status
 318:Drivers/STM32F1xx_HAL_Driver/Src/stm32f1xx_hal_rtc_ex.c ****   */
 319:Drivers/STM32F1xx_HAL_Driver/Src/stm32f1xx_hal_rtc_ex.c **** HAL_StatusTypeDef HAL_RTCEx_SetSecond_IT(RTC_HandleTypeDef *hrtc)
 320:Drivers/STM32F1xx_HAL_Driver/Src/stm32f1xx_hal_rtc_ex.c **** {
 702              		.loc 1 320 1 is_stmt 1 view -0
 703              		.cfi_startproc
 704              		@ args = 0, pretend = 0, frame = 0
 705              		@ frame_needed = 0, uses_anonymous_args = 0
 706              		@ link register save eliminated.
 321:Drivers/STM32F1xx_HAL_Driver/Src/stm32f1xx_hal_rtc_ex.c ****   /* Check input parameters */
 322:Drivers/STM32F1xx_HAL_Driver/Src/stm32f1xx_hal_rtc_ex.c ****   if (hrtc == NULL)
 707              		.loc 1 322 3 view .LVU208
 708              		.loc 1 322 6 is_stmt 0 view .LVU209
 709 0000 0346     		mov	r3, r0
 710 0002 88B1     		cbz	r0, .L97
 323:Drivers/STM32F1xx_HAL_Driver/Src/stm32f1xx_hal_rtc_ex.c ****   {
 324:Drivers/STM32F1xx_HAL_Driver/Src/stm32f1xx_hal_rtc_ex.c ****     return HAL_ERROR;
 325:Drivers/STM32F1xx_HAL_Driver/Src/stm32f1xx_hal_rtc_ex.c ****   }
 326:Drivers/STM32F1xx_HAL_Driver/Src/stm32f1xx_hal_rtc_ex.c **** 
ARM GAS  C:\Users\WENHUA~1\AppData\Local\Temp\ccM6dVR4.s 			page 21


 327:Drivers/STM32F1xx_HAL_Driver/Src/stm32f1xx_hal_rtc_ex.c ****   /* Process Locked */
 328:Drivers/STM32F1xx_HAL_Driver/Src/stm32f1xx_hal_rtc_ex.c ****   __HAL_LOCK(hrtc);
 711              		.loc 1 328 3 is_stmt 1 view .LVU210
 712              		.loc 1 328 3 view .LVU211
 713 0004 027C     		ldrb	r2, [r0, #16]	@ zero_extendqisi2
 714 0006 012A     		cmp	r2, #1
 715 0008 10D0     		beq	.L98
 716              		.loc 1 328 3 discriminator 2 view .LVU212
 717              		.loc 1 328 3 discriminator 2 view .LVU213
 329:Drivers/STM32F1xx_HAL_Driver/Src/stm32f1xx_hal_rtc_ex.c **** 
 330:Drivers/STM32F1xx_HAL_Driver/Src/stm32f1xx_hal_rtc_ex.c ****   hrtc->State = HAL_RTC_STATE_BUSY;
 718              		.loc 1 330 3 discriminator 2 view .LVU214
 719              		.loc 1 330 15 is_stmt 0 discriminator 2 view .LVU215
 720 000a 0222     		movs	r2, #2
 331:Drivers/STM32F1xx_HAL_Driver/Src/stm32f1xx_hal_rtc_ex.c **** 
 332:Drivers/STM32F1xx_HAL_Driver/Src/stm32f1xx_hal_rtc_ex.c ****   /* Enable Second interuption */
 333:Drivers/STM32F1xx_HAL_Driver/Src/stm32f1xx_hal_rtc_ex.c ****   __HAL_RTC_SECOND_ENABLE_IT(hrtc, RTC_IT_SEC);
 334:Drivers/STM32F1xx_HAL_Driver/Src/stm32f1xx_hal_rtc_ex.c **** 
 335:Drivers/STM32F1xx_HAL_Driver/Src/stm32f1xx_hal_rtc_ex.c ****   hrtc->State = HAL_RTC_STATE_READY;
 721              		.loc 1 335 15 discriminator 2 view .LVU216
 722 000c 4FF0010C 		mov	ip, #1
 336:Drivers/STM32F1xx_HAL_Driver/Src/stm32f1xx_hal_rtc_ex.c **** 
 337:Drivers/STM32F1xx_HAL_Driver/Src/stm32f1xx_hal_rtc_ex.c ****   /* Process Unlocked */
 338:Drivers/STM32F1xx_HAL_Driver/Src/stm32f1xx_hal_rtc_ex.c ****   __HAL_UNLOCK(hrtc);
 723              		.loc 1 338 3 discriminator 2 view .LVU217
 724 0010 0021     		movs	r1, #0
 333:Drivers/STM32F1xx_HAL_Driver/Src/stm32f1xx_hal_rtc_ex.c **** 
 725              		.loc 1 333 3 discriminator 2 view .LVU218
 726 0012 0068     		ldr	r0, [r0]
 727              	.LVL49:
 330:Drivers/STM32F1xx_HAL_Driver/Src/stm32f1xx_hal_rtc_ex.c **** 
 728              		.loc 1 330 15 discriminator 2 view .LVU219
 729 0014 5A74     		strb	r2, [r3, #17]
 333:Drivers/STM32F1xx_HAL_Driver/Src/stm32f1xx_hal_rtc_ex.c **** 
 730              		.loc 1 333 3 is_stmt 1 discriminator 2 view .LVU220
 731 0016 0268     		ldr	r2, [r0]
 732 0018 42EA0C02 		orr	r2, r2, ip
 733 001c 0260     		str	r2, [r0]
 335:Drivers/STM32F1xx_HAL_Driver/Src/stm32f1xx_hal_rtc_ex.c **** 
 734              		.loc 1 335 3 discriminator 2 view .LVU221
 339:Drivers/STM32F1xx_HAL_Driver/Src/stm32f1xx_hal_rtc_ex.c **** 
 340:Drivers/STM32F1xx_HAL_Driver/Src/stm32f1xx_hal_rtc_ex.c ****   return HAL_OK;
 735              		.loc 1 340 10 is_stmt 0 discriminator 2 view .LVU222
 736 001e 0846     		mov	r0, r1
 335:Drivers/STM32F1xx_HAL_Driver/Src/stm32f1xx_hal_rtc_ex.c **** 
 737              		.loc 1 335 15 discriminator 2 view .LVU223
 738 0020 83F811C0 		strb	ip, [r3, #17]
 338:Drivers/STM32F1xx_HAL_Driver/Src/stm32f1xx_hal_rtc_ex.c **** 
 739              		.loc 1 338 3 is_stmt 1 discriminator 2 view .LVU224
 338:Drivers/STM32F1xx_HAL_Driver/Src/stm32f1xx_hal_rtc_ex.c **** 
 740              		.loc 1 338 3 discriminator 2 view .LVU225
 741 0024 1974     		strb	r1, [r3, #16]
 338:Drivers/STM32F1xx_HAL_Driver/Src/stm32f1xx_hal_rtc_ex.c **** 
 742              		.loc 1 338 3 discriminator 2 view .LVU226
 743              		.loc 1 340 3 discriminator 2 view .LVU227
 744              		.loc 1 340 10 is_stmt 0 discriminator 2 view .LVU228
 745 0026 7047     		bx	lr
ARM GAS  C:\Users\WENHUA~1\AppData\Local\Temp\ccM6dVR4.s 			page 22


 746              	.LVL50:
 747              	.L97:
 324:Drivers/STM32F1xx_HAL_Driver/Src/stm32f1xx_hal_rtc_ex.c ****   }
 748              		.loc 1 324 12 view .LVU229
 749 0028 0120     		movs	r0, #1
 750              	.LVL51:
 324:Drivers/STM32F1xx_HAL_Driver/Src/stm32f1xx_hal_rtc_ex.c ****   }
 751              		.loc 1 324 12 view .LVU230
 752 002a 7047     		bx	lr
 753              	.LVL52:
 754              	.L98:
 328:Drivers/STM32F1xx_HAL_Driver/Src/stm32f1xx_hal_rtc_ex.c **** 
 755              		.loc 1 328 3 view .LVU231
 756 002c 0220     		movs	r0, #2
 757              	.LVL53:
 341:Drivers/STM32F1xx_HAL_Driver/Src/stm32f1xx_hal_rtc_ex.c **** }
 758              		.loc 1 341 1 view .LVU232
 759 002e 7047     		bx	lr
 760              		.cfi_endproc
 761              	.LFE71:
 763              		.section	.text.HAL_RTCEx_DeactivateSecond,"ax",%progbits
 764              		.align	1
 765              		.p2align 2,,3
 766              		.global	HAL_RTCEx_DeactivateSecond
 767              		.syntax unified
 768              		.thumb
 769              		.thumb_func
 771              	HAL_RTCEx_DeactivateSecond:
 772              	.LVL54:
 773              	.LFB72:
 342:Drivers/STM32F1xx_HAL_Driver/Src/stm32f1xx_hal_rtc_ex.c **** 
 343:Drivers/STM32F1xx_HAL_Driver/Src/stm32f1xx_hal_rtc_ex.c **** /**
 344:Drivers/STM32F1xx_HAL_Driver/Src/stm32f1xx_hal_rtc_ex.c ****   * @brief  Deactivates Second.
 345:Drivers/STM32F1xx_HAL_Driver/Src/stm32f1xx_hal_rtc_ex.c ****   * @param  hrtc: pointer to a RTC_HandleTypeDef structure that contains
 346:Drivers/STM32F1xx_HAL_Driver/Src/stm32f1xx_hal_rtc_ex.c ****   *                the configuration information for RTC.
 347:Drivers/STM32F1xx_HAL_Driver/Src/stm32f1xx_hal_rtc_ex.c ****   * @retval HAL status
 348:Drivers/STM32F1xx_HAL_Driver/Src/stm32f1xx_hal_rtc_ex.c ****   */
 349:Drivers/STM32F1xx_HAL_Driver/Src/stm32f1xx_hal_rtc_ex.c **** HAL_StatusTypeDef HAL_RTCEx_DeactivateSecond(RTC_HandleTypeDef *hrtc)
 350:Drivers/STM32F1xx_HAL_Driver/Src/stm32f1xx_hal_rtc_ex.c **** {
 774              		.loc 1 350 1 is_stmt 1 view -0
 775              		.cfi_startproc
 776              		@ args = 0, pretend = 0, frame = 0
 777              		@ frame_needed = 0, uses_anonymous_args = 0
 778              		@ link register save eliminated.
 351:Drivers/STM32F1xx_HAL_Driver/Src/stm32f1xx_hal_rtc_ex.c ****   /* Check input parameters */
 352:Drivers/STM32F1xx_HAL_Driver/Src/stm32f1xx_hal_rtc_ex.c ****   if (hrtc == NULL)
 779              		.loc 1 352 3 view .LVU234
 780              		.loc 1 352 6 is_stmt 0 view .LVU235
 781 0000 0346     		mov	r3, r0
 782 0002 88B1     		cbz	r0, .L101
 353:Drivers/STM32F1xx_HAL_Driver/Src/stm32f1xx_hal_rtc_ex.c ****   {
 354:Drivers/STM32F1xx_HAL_Driver/Src/stm32f1xx_hal_rtc_ex.c ****     return HAL_ERROR;
 355:Drivers/STM32F1xx_HAL_Driver/Src/stm32f1xx_hal_rtc_ex.c ****   }
 356:Drivers/STM32F1xx_HAL_Driver/Src/stm32f1xx_hal_rtc_ex.c **** 
 357:Drivers/STM32F1xx_HAL_Driver/Src/stm32f1xx_hal_rtc_ex.c ****   /* Process Locked */
 358:Drivers/STM32F1xx_HAL_Driver/Src/stm32f1xx_hal_rtc_ex.c ****   __HAL_LOCK(hrtc);
 783              		.loc 1 358 3 is_stmt 1 view .LVU236
ARM GAS  C:\Users\WENHUA~1\AppData\Local\Temp\ccM6dVR4.s 			page 23


 784              		.loc 1 358 3 view .LVU237
 785 0004 027C     		ldrb	r2, [r0, #16]	@ zero_extendqisi2
 786 0006 012A     		cmp	r2, #1
 787 0008 10D0     		beq	.L102
 788              		.loc 1 358 3 discriminator 2 view .LVU238
 789              		.loc 1 358 3 discriminator 2 view .LVU239
 359:Drivers/STM32F1xx_HAL_Driver/Src/stm32f1xx_hal_rtc_ex.c **** 
 360:Drivers/STM32F1xx_HAL_Driver/Src/stm32f1xx_hal_rtc_ex.c ****   hrtc->State = HAL_RTC_STATE_BUSY;
 790              		.loc 1 360 3 discriminator 2 view .LVU240
 791              		.loc 1 360 15 is_stmt 0 discriminator 2 view .LVU241
 792 000a 0222     		movs	r2, #2
 361:Drivers/STM32F1xx_HAL_Driver/Src/stm32f1xx_hal_rtc_ex.c **** 
 362:Drivers/STM32F1xx_HAL_Driver/Src/stm32f1xx_hal_rtc_ex.c ****   /* Deactivate Second interuption*/
 363:Drivers/STM32F1xx_HAL_Driver/Src/stm32f1xx_hal_rtc_ex.c ****   __HAL_RTC_SECOND_DISABLE_IT(hrtc, RTC_IT_SEC);
 364:Drivers/STM32F1xx_HAL_Driver/Src/stm32f1xx_hal_rtc_ex.c **** 
 365:Drivers/STM32F1xx_HAL_Driver/Src/stm32f1xx_hal_rtc_ex.c ****   hrtc->State = HAL_RTC_STATE_READY;
 366:Drivers/STM32F1xx_HAL_Driver/Src/stm32f1xx_hal_rtc_ex.c **** 
 367:Drivers/STM32F1xx_HAL_Driver/Src/stm32f1xx_hal_rtc_ex.c ****   /* Process Unlocked */
 368:Drivers/STM32F1xx_HAL_Driver/Src/stm32f1xx_hal_rtc_ex.c ****   __HAL_UNLOCK(hrtc);
 793              		.loc 1 368 3 discriminator 2 view .LVU242
 794 000c 0021     		movs	r1, #0
 365:Drivers/STM32F1xx_HAL_Driver/Src/stm32f1xx_hal_rtc_ex.c **** 
 795              		.loc 1 365 15 discriminator 2 view .LVU243
 796 000e 4FF0010C 		mov	ip, #1
 363:Drivers/STM32F1xx_HAL_Driver/Src/stm32f1xx_hal_rtc_ex.c **** 
 797              		.loc 1 363 3 discriminator 2 view .LVU244
 798 0012 0068     		ldr	r0, [r0]
 799              	.LVL55:
 360:Drivers/STM32F1xx_HAL_Driver/Src/stm32f1xx_hal_rtc_ex.c **** 
 800              		.loc 1 360 15 discriminator 2 view .LVU245
 801 0014 5A74     		strb	r2, [r3, #17]
 363:Drivers/STM32F1xx_HAL_Driver/Src/stm32f1xx_hal_rtc_ex.c **** 
 802              		.loc 1 363 3 is_stmt 1 discriminator 2 view .LVU246
 803 0016 0268     		ldr	r2, [r0]
 804 0018 22F00102 		bic	r2, r2, #1
 805 001c 0260     		str	r2, [r0]
 365:Drivers/STM32F1xx_HAL_Driver/Src/stm32f1xx_hal_rtc_ex.c **** 
 806              		.loc 1 365 3 discriminator 2 view .LVU247
 369:Drivers/STM32F1xx_HAL_Driver/Src/stm32f1xx_hal_rtc_ex.c **** 
 370:Drivers/STM32F1xx_HAL_Driver/Src/stm32f1xx_hal_rtc_ex.c ****   return HAL_OK;
 807              		.loc 1 370 10 is_stmt 0 discriminator 2 view .LVU248
 808 001e 0846     		mov	r0, r1
 365:Drivers/STM32F1xx_HAL_Driver/Src/stm32f1xx_hal_rtc_ex.c **** 
 809              		.loc 1 365 15 discriminator 2 view .LVU249
 810 0020 83F811C0 		strb	ip, [r3, #17]
 368:Drivers/STM32F1xx_HAL_Driver/Src/stm32f1xx_hal_rtc_ex.c **** 
 811              		.loc 1 368 3 is_stmt 1 discriminator 2 view .LVU250
 368:Drivers/STM32F1xx_HAL_Driver/Src/stm32f1xx_hal_rtc_ex.c **** 
 812              		.loc 1 368 3 discriminator 2 view .LVU251
 813 0024 1974     		strb	r1, [r3, #16]
 368:Drivers/STM32F1xx_HAL_Driver/Src/stm32f1xx_hal_rtc_ex.c **** 
 814              		.loc 1 368 3 discriminator 2 view .LVU252
 815              		.loc 1 370 3 discriminator 2 view .LVU253
 816              		.loc 1 370 10 is_stmt 0 discriminator 2 view .LVU254
 817 0026 7047     		bx	lr
 818              	.LVL56:
 819              	.L101:
ARM GAS  C:\Users\WENHUA~1\AppData\Local\Temp\ccM6dVR4.s 			page 24


 354:Drivers/STM32F1xx_HAL_Driver/Src/stm32f1xx_hal_rtc_ex.c ****   }
 820              		.loc 1 354 12 view .LVU255
 821 0028 0120     		movs	r0, #1
 822              	.LVL57:
 354:Drivers/STM32F1xx_HAL_Driver/Src/stm32f1xx_hal_rtc_ex.c ****   }
 823              		.loc 1 354 12 view .LVU256
 824 002a 7047     		bx	lr
 825              	.LVL58:
 826              	.L102:
 358:Drivers/STM32F1xx_HAL_Driver/Src/stm32f1xx_hal_rtc_ex.c **** 
 827              		.loc 1 358 3 view .LVU257
 828 002c 0220     		movs	r0, #2
 829              	.LVL59:
 371:Drivers/STM32F1xx_HAL_Driver/Src/stm32f1xx_hal_rtc_ex.c **** }
 830              		.loc 1 371 1 view .LVU258
 831 002e 7047     		bx	lr
 832              		.cfi_endproc
 833              	.LFE72:
 835              		.section	.text.HAL_RTCEx_RTCEventCallback,"ax",%progbits
 836              		.align	1
 837              		.p2align 2,,3
 838              		.weak	HAL_RTCEx_RTCEventCallback
 839              		.syntax unified
 840              		.thumb
 841              		.thumb_func
 843              	HAL_RTCEx_RTCEventCallback:
 844              	.LFB80:
 845              		.cfi_startproc
 846              		@ args = 0, pretend = 0, frame = 0
 847              		@ frame_needed = 0, uses_anonymous_args = 0
 848              		@ link register save eliminated.
 849 0000 7047     		bx	lr
 850              		.cfi_endproc
 851              	.LFE80:
 853 0002 00BF     		.section	.text.HAL_RTCEx_RTCEventErrorCallback,"ax",%progbits
 854              		.align	1
 855              		.p2align 2,,3
 856              		.weak	HAL_RTCEx_RTCEventErrorCallback
 857              		.syntax unified
 858              		.thumb
 859              		.thumb_func
 861              	HAL_RTCEx_RTCEventErrorCallback:
 862              	.LFB82:
 863              		.cfi_startproc
 864              		@ args = 0, pretend = 0, frame = 0
 865              		@ frame_needed = 0, uses_anonymous_args = 0
 866              		@ link register save eliminated.
 867 0000 7047     		bx	lr
 868              		.cfi_endproc
 869              	.LFE82:
 871 0002 00BF     		.section	.text.HAL_RTCEx_RTCIRQHandler,"ax",%progbits
 872              		.align	1
 873              		.p2align 2,,3
 874              		.global	HAL_RTCEx_RTCIRQHandler
 875              		.syntax unified
 876              		.thumb
 877              		.thumb_func
ARM GAS  C:\Users\WENHUA~1\AppData\Local\Temp\ccM6dVR4.s 			page 25


 879              	HAL_RTCEx_RTCIRQHandler:
 880              	.LVL60:
 881              	.LFB73:
 372:Drivers/STM32F1xx_HAL_Driver/Src/stm32f1xx_hal_rtc_ex.c **** 
 373:Drivers/STM32F1xx_HAL_Driver/Src/stm32f1xx_hal_rtc_ex.c **** /**
 374:Drivers/STM32F1xx_HAL_Driver/Src/stm32f1xx_hal_rtc_ex.c ****   * @brief  This function handles second interrupt request.
 375:Drivers/STM32F1xx_HAL_Driver/Src/stm32f1xx_hal_rtc_ex.c ****   * @param  hrtc: pointer to a RTC_HandleTypeDef structure that contains
 376:Drivers/STM32F1xx_HAL_Driver/Src/stm32f1xx_hal_rtc_ex.c ****   *                the configuration information for RTC.
 377:Drivers/STM32F1xx_HAL_Driver/Src/stm32f1xx_hal_rtc_ex.c ****   * @retval None
 378:Drivers/STM32F1xx_HAL_Driver/Src/stm32f1xx_hal_rtc_ex.c ****   */
 379:Drivers/STM32F1xx_HAL_Driver/Src/stm32f1xx_hal_rtc_ex.c **** void HAL_RTCEx_RTCIRQHandler(RTC_HandleTypeDef *hrtc)
 380:Drivers/STM32F1xx_HAL_Driver/Src/stm32f1xx_hal_rtc_ex.c **** {
 882              		.loc 1 380 1 is_stmt 1 view -0
 883              		.cfi_startproc
 884              		@ args = 0, pretend = 0, frame = 0
 885              		@ frame_needed = 0, uses_anonymous_args = 0
 381:Drivers/STM32F1xx_HAL_Driver/Src/stm32f1xx_hal_rtc_ex.c ****   if (__HAL_RTC_SECOND_GET_IT_SOURCE(hrtc, RTC_IT_SEC))
 886              		.loc 1 381 3 view .LVU260
 887              		.loc 1 381 7 is_stmt 0 view .LVU261
 888 0000 0368     		ldr	r3, [r0]
 889 0002 1A68     		ldr	r2, [r3]
 890              		.loc 1 381 6 view .LVU262
 891 0004 D107     		lsls	r1, r2, #31
 892 0006 11D5     		bpl	.L116
 382:Drivers/STM32F1xx_HAL_Driver/Src/stm32f1xx_hal_rtc_ex.c ****   {
 383:Drivers/STM32F1xx_HAL_Driver/Src/stm32f1xx_hal_rtc_ex.c ****     /* Get the status of the Interrupt */
 384:Drivers/STM32F1xx_HAL_Driver/Src/stm32f1xx_hal_rtc_ex.c ****     if (__HAL_RTC_SECOND_GET_FLAG(hrtc, RTC_FLAG_SEC))
 893              		.loc 1 384 5 is_stmt 1 view .LVU263
 894              		.loc 1 384 9 is_stmt 0 view .LVU264
 895 0008 5A68     		ldr	r2, [r3, #4]
 896              		.loc 1 384 8 view .LVU265
 897 000a D207     		lsls	r2, r2, #31
 898 000c 0ED5     		bpl	.L116
 385:Drivers/STM32F1xx_HAL_Driver/Src/stm32f1xx_hal_rtc_ex.c ****     {
 386:Drivers/STM32F1xx_HAL_Driver/Src/stm32f1xx_hal_rtc_ex.c ****       /* Check if Overrun occurred */
 387:Drivers/STM32F1xx_HAL_Driver/Src/stm32f1xx_hal_rtc_ex.c ****       if (__HAL_RTC_SECOND_GET_FLAG(hrtc, RTC_FLAG_OW))
 899              		.loc 1 387 7 is_stmt 1 view .LVU266
 900              		.loc 1 387 11 is_stmt 0 view .LVU267
 901 000e 5B68     		ldr	r3, [r3, #4]
 380:Drivers/STM32F1xx_HAL_Driver/Src/stm32f1xx_hal_rtc_ex.c ****   if (__HAL_RTC_SECOND_GET_IT_SOURCE(hrtc, RTC_IT_SEC))
 902              		.loc 1 380 1 view .LVU268
 903 0010 10B5     		push	{r4, lr}
 904              	.LCFI10:
 905              		.cfi_def_cfa_offset 8
 906              		.cfi_offset 4, -8
 907              		.cfi_offset 14, -4
 908              		.loc 1 387 10 view .LVU269
 909 0012 5B07     		lsls	r3, r3, #29
 910 0014 0446     		mov	r4, r0
 911 0016 0AD4     		bmi	.L119
 388:Drivers/STM32F1xx_HAL_Driver/Src/stm32f1xx_hal_rtc_ex.c ****       {
 389:Drivers/STM32F1xx_HAL_Driver/Src/stm32f1xx_hal_rtc_ex.c ****         /* Second error callback */
 390:Drivers/STM32F1xx_HAL_Driver/Src/stm32f1xx_hal_rtc_ex.c ****         HAL_RTCEx_RTCEventErrorCallback(hrtc);
 391:Drivers/STM32F1xx_HAL_Driver/Src/stm32f1xx_hal_rtc_ex.c **** 
 392:Drivers/STM32F1xx_HAL_Driver/Src/stm32f1xx_hal_rtc_ex.c ****         /* Clear flag Second */
 393:Drivers/STM32F1xx_HAL_Driver/Src/stm32f1xx_hal_rtc_ex.c ****         __HAL_RTC_OVERFLOW_CLEAR_FLAG(hrtc, RTC_FLAG_OW);
 394:Drivers/STM32F1xx_HAL_Driver/Src/stm32f1xx_hal_rtc_ex.c **** 
ARM GAS  C:\Users\WENHUA~1\AppData\Local\Temp\ccM6dVR4.s 			page 26


 395:Drivers/STM32F1xx_HAL_Driver/Src/stm32f1xx_hal_rtc_ex.c ****         /* Change RTC state */
 396:Drivers/STM32F1xx_HAL_Driver/Src/stm32f1xx_hal_rtc_ex.c ****         hrtc->State = HAL_RTC_STATE_ERROR;
 397:Drivers/STM32F1xx_HAL_Driver/Src/stm32f1xx_hal_rtc_ex.c ****       }
 398:Drivers/STM32F1xx_HAL_Driver/Src/stm32f1xx_hal_rtc_ex.c ****       else
 399:Drivers/STM32F1xx_HAL_Driver/Src/stm32f1xx_hal_rtc_ex.c ****       {
 400:Drivers/STM32F1xx_HAL_Driver/Src/stm32f1xx_hal_rtc_ex.c ****         /* Second callback */
 401:Drivers/STM32F1xx_HAL_Driver/Src/stm32f1xx_hal_rtc_ex.c ****         HAL_RTCEx_RTCEventCallback(hrtc);
 912              		.loc 1 401 9 is_stmt 1 view .LVU270
 913 0018 FFF7FEFF 		bl	HAL_RTCEx_RTCEventCallback
 914              	.LVL61:
 402:Drivers/STM32F1xx_HAL_Driver/Src/stm32f1xx_hal_rtc_ex.c **** 
 403:Drivers/STM32F1xx_HAL_Driver/Src/stm32f1xx_hal_rtc_ex.c ****         /* Change RTC state */
 404:Drivers/STM32F1xx_HAL_Driver/Src/stm32f1xx_hal_rtc_ex.c ****         hrtc->State = HAL_RTC_STATE_READY;
 915              		.loc 1 404 9 view .LVU271
 916              		.loc 1 404 21 is_stmt 0 view .LVU272
 917 001c 0123     		movs	r3, #1
 405:Drivers/STM32F1xx_HAL_Driver/Src/stm32f1xx_hal_rtc_ex.c ****       }
 406:Drivers/STM32F1xx_HAL_Driver/Src/stm32f1xx_hal_rtc_ex.c **** 
 407:Drivers/STM32F1xx_HAL_Driver/Src/stm32f1xx_hal_rtc_ex.c ****       /* Clear flag Second */
 408:Drivers/STM32F1xx_HAL_Driver/Src/stm32f1xx_hal_rtc_ex.c ****       __HAL_RTC_SECOND_CLEAR_FLAG(hrtc, RTC_FLAG_SEC);
 918              		.loc 1 408 7 view .LVU273
 919 001e 2268     		ldr	r2, [r4]
 404:Drivers/STM32F1xx_HAL_Driver/Src/stm32f1xx_hal_rtc_ex.c ****       }
 920              		.loc 1 404 21 view .LVU274
 921 0020 6374     		strb	r3, [r4, #17]
 922              		.loc 1 408 7 is_stmt 1 view .LVU275
 923 0022 5368     		ldr	r3, [r2, #4]
 924 0024 23F00103 		bic	r3, r3, #1
 925 0028 5360     		str	r3, [r2, #4]
 409:Drivers/STM32F1xx_HAL_Driver/Src/stm32f1xx_hal_rtc_ex.c ****     }
 410:Drivers/STM32F1xx_HAL_Driver/Src/stm32f1xx_hal_rtc_ex.c ****   }
 411:Drivers/STM32F1xx_HAL_Driver/Src/stm32f1xx_hal_rtc_ex.c **** }
 926              		.loc 1 411 1 is_stmt 0 view .LVU276
 927 002a 10BD     		pop	{r4, pc}
 928              	.LVL62:
 929              	.L116:
 930              	.LCFI11:
 931              		.cfi_def_cfa_offset 0
 932              		.cfi_restore 4
 933              		.cfi_restore 14
 934              		.loc 1 411 1 view .LVU277
 935 002c 7047     		bx	lr
 936              	.L119:
 937              	.LCFI12:
 938              		.cfi_def_cfa_offset 8
 939              		.cfi_offset 4, -8
 940              		.cfi_offset 14, -4
 390:Drivers/STM32F1xx_HAL_Driver/Src/stm32f1xx_hal_rtc_ex.c **** 
 941              		.loc 1 390 9 is_stmt 1 view .LVU278
 942 002e FFF7FEFF 		bl	HAL_RTCEx_RTCEventErrorCallback
 943              	.LVL63:
 393:Drivers/STM32F1xx_HAL_Driver/Src/stm32f1xx_hal_rtc_ex.c **** 
 944              		.loc 1 393 9 view .LVU279
 396:Drivers/STM32F1xx_HAL_Driver/Src/stm32f1xx_hal_rtc_ex.c ****       }
 945              		.loc 1 396 21 is_stmt 0 view .LVU280
 946 0032 0423     		movs	r3, #4
 393:Drivers/STM32F1xx_HAL_Driver/Src/stm32f1xx_hal_rtc_ex.c **** 
ARM GAS  C:\Users\WENHUA~1\AppData\Local\Temp\ccM6dVR4.s 			page 27


 947              		.loc 1 393 9 view .LVU281
 948 0034 6FF00401 		mvn	r1, #4
 949 0038 2268     		ldr	r2, [r4]
 950 003a 5160     		str	r1, [r2, #4]
 396:Drivers/STM32F1xx_HAL_Driver/Src/stm32f1xx_hal_rtc_ex.c ****       }
 951              		.loc 1 396 9 is_stmt 1 view .LVU282
 396:Drivers/STM32F1xx_HAL_Driver/Src/stm32f1xx_hal_rtc_ex.c ****       }
 952              		.loc 1 396 21 is_stmt 0 view .LVU283
 953 003c 6374     		strb	r3, [r4, #17]
 408:Drivers/STM32F1xx_HAL_Driver/Src/stm32f1xx_hal_rtc_ex.c ****     }
 954              		.loc 1 408 7 is_stmt 1 view .LVU284
 955 003e 5368     		ldr	r3, [r2, #4]
 956 0040 23F00103 		bic	r3, r3, #1
 957 0044 5360     		str	r3, [r2, #4]
 958              		.loc 1 411 1 is_stmt 0 view .LVU285
 959 0046 10BD     		pop	{r4, pc}
 960              		.loc 1 411 1 view .LVU286
 961              		.cfi_endproc
 962              	.LFE73:
 964              		.section	.text.HAL_RTCEx_BKUPWrite,"ax",%progbits
 965              		.align	1
 966              		.p2align 2,,3
 967              		.global	HAL_RTCEx_BKUPWrite
 968              		.syntax unified
 969              		.thumb
 970              		.thumb_func
 972              	HAL_RTCEx_BKUPWrite:
 973              	.LVL64:
 974              	.LFB76:
 412:Drivers/STM32F1xx_HAL_Driver/Src/stm32f1xx_hal_rtc_ex.c **** 
 413:Drivers/STM32F1xx_HAL_Driver/Src/stm32f1xx_hal_rtc_ex.c **** /**
 414:Drivers/STM32F1xx_HAL_Driver/Src/stm32f1xx_hal_rtc_ex.c ****   * @brief  Second event callback.
 415:Drivers/STM32F1xx_HAL_Driver/Src/stm32f1xx_hal_rtc_ex.c ****   * @param  hrtc: pointer to a RTC_HandleTypeDef structure that contains
 416:Drivers/STM32F1xx_HAL_Driver/Src/stm32f1xx_hal_rtc_ex.c ****   *                the configuration information for RTC.
 417:Drivers/STM32F1xx_HAL_Driver/Src/stm32f1xx_hal_rtc_ex.c ****   * @retval None
 418:Drivers/STM32F1xx_HAL_Driver/Src/stm32f1xx_hal_rtc_ex.c ****   */
 419:Drivers/STM32F1xx_HAL_Driver/Src/stm32f1xx_hal_rtc_ex.c **** __weak void HAL_RTCEx_RTCEventCallback(RTC_HandleTypeDef *hrtc)
 420:Drivers/STM32F1xx_HAL_Driver/Src/stm32f1xx_hal_rtc_ex.c **** {
 421:Drivers/STM32F1xx_HAL_Driver/Src/stm32f1xx_hal_rtc_ex.c ****   /* Prevent unused argument(s) compilation warning */
 422:Drivers/STM32F1xx_HAL_Driver/Src/stm32f1xx_hal_rtc_ex.c ****   UNUSED(hrtc);
 423:Drivers/STM32F1xx_HAL_Driver/Src/stm32f1xx_hal_rtc_ex.c ****   /* NOTE : This function Should not be modified, when the callback is needed,
 424:Drivers/STM32F1xx_HAL_Driver/Src/stm32f1xx_hal_rtc_ex.c ****             the HAL_RTCEx_RTCEventCallback could be implemented in the user file
 425:Drivers/STM32F1xx_HAL_Driver/Src/stm32f1xx_hal_rtc_ex.c ****    */
 426:Drivers/STM32F1xx_HAL_Driver/Src/stm32f1xx_hal_rtc_ex.c **** }
 427:Drivers/STM32F1xx_HAL_Driver/Src/stm32f1xx_hal_rtc_ex.c **** 
 428:Drivers/STM32F1xx_HAL_Driver/Src/stm32f1xx_hal_rtc_ex.c **** /**
 429:Drivers/STM32F1xx_HAL_Driver/Src/stm32f1xx_hal_rtc_ex.c ****   * @brief  Second event error callback.
 430:Drivers/STM32F1xx_HAL_Driver/Src/stm32f1xx_hal_rtc_ex.c ****   * @param  hrtc: pointer to a RTC_HandleTypeDef structure that contains
 431:Drivers/STM32F1xx_HAL_Driver/Src/stm32f1xx_hal_rtc_ex.c ****   *                the configuration information for RTC.
 432:Drivers/STM32F1xx_HAL_Driver/Src/stm32f1xx_hal_rtc_ex.c ****   * @retval None
 433:Drivers/STM32F1xx_HAL_Driver/Src/stm32f1xx_hal_rtc_ex.c ****   */
 434:Drivers/STM32F1xx_HAL_Driver/Src/stm32f1xx_hal_rtc_ex.c **** __weak void HAL_RTCEx_RTCEventErrorCallback(RTC_HandleTypeDef *hrtc)
 435:Drivers/STM32F1xx_HAL_Driver/Src/stm32f1xx_hal_rtc_ex.c **** {
 436:Drivers/STM32F1xx_HAL_Driver/Src/stm32f1xx_hal_rtc_ex.c ****   /* Prevent unused argument(s) compilation warning */
 437:Drivers/STM32F1xx_HAL_Driver/Src/stm32f1xx_hal_rtc_ex.c ****   UNUSED(hrtc);
 438:Drivers/STM32F1xx_HAL_Driver/Src/stm32f1xx_hal_rtc_ex.c ****   /* NOTE : This function Should not be modified, when the callback is needed,
 439:Drivers/STM32F1xx_HAL_Driver/Src/stm32f1xx_hal_rtc_ex.c ****             the HAL_RTCEx_RTCEventErrorCallback could be implemented in the user file
ARM GAS  C:\Users\WENHUA~1\AppData\Local\Temp\ccM6dVR4.s 			page 28


 440:Drivers/STM32F1xx_HAL_Driver/Src/stm32f1xx_hal_rtc_ex.c ****    */
 441:Drivers/STM32F1xx_HAL_Driver/Src/stm32f1xx_hal_rtc_ex.c **** }
 442:Drivers/STM32F1xx_HAL_Driver/Src/stm32f1xx_hal_rtc_ex.c **** 
 443:Drivers/STM32F1xx_HAL_Driver/Src/stm32f1xx_hal_rtc_ex.c **** /**
 444:Drivers/STM32F1xx_HAL_Driver/Src/stm32f1xx_hal_rtc_ex.c ****   * @}
 445:Drivers/STM32F1xx_HAL_Driver/Src/stm32f1xx_hal_rtc_ex.c ****   */
 446:Drivers/STM32F1xx_HAL_Driver/Src/stm32f1xx_hal_rtc_ex.c **** 
 447:Drivers/STM32F1xx_HAL_Driver/Src/stm32f1xx_hal_rtc_ex.c **** /** @defgroup RTCEx_Exported_Functions_Group3 Extended Peripheral Control functions
 448:Drivers/STM32F1xx_HAL_Driver/Src/stm32f1xx_hal_rtc_ex.c ****   * @brief    Extended Peripheral Control functions
 449:Drivers/STM32F1xx_HAL_Driver/Src/stm32f1xx_hal_rtc_ex.c ****   *
 450:Drivers/STM32F1xx_HAL_Driver/Src/stm32f1xx_hal_rtc_ex.c **** @verbatim
 451:Drivers/STM32F1xx_HAL_Driver/Src/stm32f1xx_hal_rtc_ex.c ****  ===============================================================================
 452:Drivers/STM32F1xx_HAL_Driver/Src/stm32f1xx_hal_rtc_ex.c ****               ##### Extension Peripheral Control functions #####
 453:Drivers/STM32F1xx_HAL_Driver/Src/stm32f1xx_hal_rtc_ex.c ****  ===============================================================================
 454:Drivers/STM32F1xx_HAL_Driver/Src/stm32f1xx_hal_rtc_ex.c ****     [..]
 455:Drivers/STM32F1xx_HAL_Driver/Src/stm32f1xx_hal_rtc_ex.c ****     This subsection provides functions allowing to
 456:Drivers/STM32F1xx_HAL_Driver/Src/stm32f1xx_hal_rtc_ex.c ****       (+) Writes a data in a specified RTC Backup data register
 457:Drivers/STM32F1xx_HAL_Driver/Src/stm32f1xx_hal_rtc_ex.c ****       (+) Read a data in a specified RTC Backup data register
 458:Drivers/STM32F1xx_HAL_Driver/Src/stm32f1xx_hal_rtc_ex.c ****       (+) Sets the Smooth calibration parameters.
 459:Drivers/STM32F1xx_HAL_Driver/Src/stm32f1xx_hal_rtc_ex.c **** 
 460:Drivers/STM32F1xx_HAL_Driver/Src/stm32f1xx_hal_rtc_ex.c **** @endverbatim
 461:Drivers/STM32F1xx_HAL_Driver/Src/stm32f1xx_hal_rtc_ex.c ****   * @{
 462:Drivers/STM32F1xx_HAL_Driver/Src/stm32f1xx_hal_rtc_ex.c ****   */
 463:Drivers/STM32F1xx_HAL_Driver/Src/stm32f1xx_hal_rtc_ex.c **** 
 464:Drivers/STM32F1xx_HAL_Driver/Src/stm32f1xx_hal_rtc_ex.c **** /**
 465:Drivers/STM32F1xx_HAL_Driver/Src/stm32f1xx_hal_rtc_ex.c ****   * @brief  Writes a data in a specified RTC Backup data register.
 466:Drivers/STM32F1xx_HAL_Driver/Src/stm32f1xx_hal_rtc_ex.c ****   * @param  hrtc: pointer to a RTC_HandleTypeDef structure that contains
 467:Drivers/STM32F1xx_HAL_Driver/Src/stm32f1xx_hal_rtc_ex.c ****   *                the configuration information for RTC.
 468:Drivers/STM32F1xx_HAL_Driver/Src/stm32f1xx_hal_rtc_ex.c ****   * @param  BackupRegister: RTC Backup data Register number.
 469:Drivers/STM32F1xx_HAL_Driver/Src/stm32f1xx_hal_rtc_ex.c ****   *          This parameter can be: RTC_BKP_DRx where x can be from 1 to 10 (or 42) to
 470:Drivers/STM32F1xx_HAL_Driver/Src/stm32f1xx_hal_rtc_ex.c ****   *                                 specify the register (depending devices).
 471:Drivers/STM32F1xx_HAL_Driver/Src/stm32f1xx_hal_rtc_ex.c ****   * @param  Data: Data to be written in the specified RTC Backup data register.
 472:Drivers/STM32F1xx_HAL_Driver/Src/stm32f1xx_hal_rtc_ex.c ****   * @retval None
 473:Drivers/STM32F1xx_HAL_Driver/Src/stm32f1xx_hal_rtc_ex.c ****   */
 474:Drivers/STM32F1xx_HAL_Driver/Src/stm32f1xx_hal_rtc_ex.c **** void HAL_RTCEx_BKUPWrite(RTC_HandleTypeDef *hrtc, uint32_t BackupRegister, uint32_t Data)
 475:Drivers/STM32F1xx_HAL_Driver/Src/stm32f1xx_hal_rtc_ex.c **** {
 975              		.loc 1 475 1 is_stmt 1 view -0
 976              		.cfi_startproc
 977              		@ args = 0, pretend = 0, frame = 0
 978              		@ frame_needed = 0, uses_anonymous_args = 0
 476:Drivers/STM32F1xx_HAL_Driver/Src/stm32f1xx_hal_rtc_ex.c ****   uint32_t tmp = 0U;
 979              		.loc 1 476 3 view .LVU288
 477:Drivers/STM32F1xx_HAL_Driver/Src/stm32f1xx_hal_rtc_ex.c **** 
 478:Drivers/STM32F1xx_HAL_Driver/Src/stm32f1xx_hal_rtc_ex.c ****   /* Prevent unused argument(s) compilation warning */
 479:Drivers/STM32F1xx_HAL_Driver/Src/stm32f1xx_hal_rtc_ex.c ****   UNUSED(hrtc);
 980              		.loc 1 479 3 view .LVU289
 480:Drivers/STM32F1xx_HAL_Driver/Src/stm32f1xx_hal_rtc_ex.c **** 
 481:Drivers/STM32F1xx_HAL_Driver/Src/stm32f1xx_hal_rtc_ex.c ****   /* Check the parameters */
 482:Drivers/STM32F1xx_HAL_Driver/Src/stm32f1xx_hal_rtc_ex.c ****   assert_param(IS_RTC_BKP(BackupRegister));
 981              		.loc 1 482 3 view .LVU290
 982 0000 0A29     		cmp	r1, #10
 475:Drivers/STM32F1xx_HAL_Driver/Src/stm32f1xx_hal_rtc_ex.c ****   uint32_t tmp = 0U;
 983              		.loc 1 475 1 is_stmt 0 view .LVU291
 984 0002 38B5     		push	{r3, r4, r5, lr}
 985              	.LCFI13:
 986              		.cfi_def_cfa_offset 16
 987              		.cfi_offset 3, -16
ARM GAS  C:\Users\WENHUA~1\AppData\Local\Temp\ccM6dVR4.s 			page 29


 988              		.cfi_offset 4, -12
 989              		.cfi_offset 5, -8
 990              		.cfi_offset 14, -4
 475:Drivers/STM32F1xx_HAL_Driver/Src/stm32f1xx_hal_rtc_ex.c ****   uint32_t tmp = 0U;
 991              		.loc 1 475 1 view .LVU292
 992 0004 0C46     		mov	r4, r1
 993 0006 1546     		mov	r5, r2
 994              		.loc 1 482 3 view .LVU293
 995 0008 07D8     		bhi	.L123
 996              	.LVL65:
 997              	.L121:
 483:Drivers/STM32F1xx_HAL_Driver/Src/stm32f1xx_hal_rtc_ex.c **** 
 484:Drivers/STM32F1xx_HAL_Driver/Src/stm32f1xx_hal_rtc_ex.c ****   tmp = (uint32_t)BKP_BASE;
 998              		.loc 1 484 3 is_stmt 1 view .LVU294
 485:Drivers/STM32F1xx_HAL_Driver/Src/stm32f1xx_hal_rtc_ex.c ****   tmp += (BackupRegister * 4U);
 999              		.loc 1 485 3 view .LVU295
 486:Drivers/STM32F1xx_HAL_Driver/Src/stm32f1xx_hal_rtc_ex.c **** 
 487:Drivers/STM32F1xx_HAL_Driver/Src/stm32f1xx_hal_rtc_ex.c ****   *(__IO uint32_t *) tmp = (Data & BKP_DR1_D);
 1000              		.loc 1 487 3 view .LVU296
 485:Drivers/STM32F1xx_HAL_Driver/Src/stm32f1xx_hal_rtc_ex.c ****   tmp += (BackupRegister * 4U);
 1001              		.loc 1 485 26 is_stmt 0 view .LVU297
 1002 000a A100     		lsls	r1, r4, #2
 485:Drivers/STM32F1xx_HAL_Driver/Src/stm32f1xx_hal_rtc_ex.c ****   tmp += (BackupRegister * 4U);
 1003              		.loc 1 485 7 view .LVU298
 1004 000c 01F18041 		add	r1, r1, #1073741824
 1005 0010 01F5D841 		add	r1, r1, #27648
 1006              		.loc 1 487 34 view .LVU299
 1007 0014 ADB2     		uxth	r5, r5
 1008              	.LVL66:
 1009              		.loc 1 487 26 view .LVU300
 1010 0016 0D60     		str	r5, [r1]
 488:Drivers/STM32F1xx_HAL_Driver/Src/stm32f1xx_hal_rtc_ex.c **** }
 1011              		.loc 1 488 1 view .LVU301
 1012 0018 38BD     		pop	{r3, r4, r5, pc}
 1013              	.LVL67:
 1014              	.L123:
 482:Drivers/STM32F1xx_HAL_Driver/Src/stm32f1xx_hal_rtc_ex.c **** 
 1015              		.loc 1 482 3 discriminator 1 view .LVU302
 1016 001a 4FF4F171 		mov	r1, #482
 1017              	.LVL68:
 482:Drivers/STM32F1xx_HAL_Driver/Src/stm32f1xx_hal_rtc_ex.c **** 
 1018              		.loc 1 482 3 discriminator 1 view .LVU303
 1019 001e 0248     		ldr	r0, .L124
 1020              	.LVL69:
 482:Drivers/STM32F1xx_HAL_Driver/Src/stm32f1xx_hal_rtc_ex.c **** 
 1021              		.loc 1 482 3 discriminator 1 view .LVU304
 1022 0020 FFF7FEFF 		bl	assert_failed
 1023              	.LVL70:
 482:Drivers/STM32F1xx_HAL_Driver/Src/stm32f1xx_hal_rtc_ex.c **** 
 1024              		.loc 1 482 3 discriminator 1 view .LVU305
 1025 0024 F1E7     		b	.L121
 1026              	.L125:
 1027 0026 00BF     		.align	2
 1028              	.L124:
 1029 0028 00000000 		.word	.LC0
 1030              		.cfi_endproc
 1031              	.LFE76:
ARM GAS  C:\Users\WENHUA~1\AppData\Local\Temp\ccM6dVR4.s 			page 30


 1033              		.section	.text.HAL_RTCEx_BKUPRead,"ax",%progbits
 1034              		.align	1
 1035              		.p2align 2,,3
 1036              		.global	HAL_RTCEx_BKUPRead
 1037              		.syntax unified
 1038              		.thumb
 1039              		.thumb_func
 1041              	HAL_RTCEx_BKUPRead:
 1042              	.LVL71:
 1043              	.LFB77:
 489:Drivers/STM32F1xx_HAL_Driver/Src/stm32f1xx_hal_rtc_ex.c **** 
 490:Drivers/STM32F1xx_HAL_Driver/Src/stm32f1xx_hal_rtc_ex.c **** /**
 491:Drivers/STM32F1xx_HAL_Driver/Src/stm32f1xx_hal_rtc_ex.c ****   * @brief  Reads data from the specified RTC Backup data Register.
 492:Drivers/STM32F1xx_HAL_Driver/Src/stm32f1xx_hal_rtc_ex.c ****   * @param  hrtc: pointer to a RTC_HandleTypeDef structure that contains
 493:Drivers/STM32F1xx_HAL_Driver/Src/stm32f1xx_hal_rtc_ex.c ****   *                the configuration information for RTC.
 494:Drivers/STM32F1xx_HAL_Driver/Src/stm32f1xx_hal_rtc_ex.c ****   * @param  BackupRegister: RTC Backup data Register number.
 495:Drivers/STM32F1xx_HAL_Driver/Src/stm32f1xx_hal_rtc_ex.c ****   *          This parameter can be: RTC_BKP_DRx where x can be from 1 to 10 (or 42) to
 496:Drivers/STM32F1xx_HAL_Driver/Src/stm32f1xx_hal_rtc_ex.c ****   *                                 specify the register (depending devices).
 497:Drivers/STM32F1xx_HAL_Driver/Src/stm32f1xx_hal_rtc_ex.c ****   * @retval Read value
 498:Drivers/STM32F1xx_HAL_Driver/Src/stm32f1xx_hal_rtc_ex.c ****   */
 499:Drivers/STM32F1xx_HAL_Driver/Src/stm32f1xx_hal_rtc_ex.c **** uint32_t HAL_RTCEx_BKUPRead(RTC_HandleTypeDef *hrtc, uint32_t BackupRegister)
 500:Drivers/STM32F1xx_HAL_Driver/Src/stm32f1xx_hal_rtc_ex.c **** {
 1044              		.loc 1 500 1 is_stmt 1 view -0
 1045              		.cfi_startproc
 1046              		@ args = 0, pretend = 0, frame = 0
 1047              		@ frame_needed = 0, uses_anonymous_args = 0
 501:Drivers/STM32F1xx_HAL_Driver/Src/stm32f1xx_hal_rtc_ex.c ****   uint32_t backupregister = 0U;
 1048              		.loc 1 501 3 view .LVU307
 502:Drivers/STM32F1xx_HAL_Driver/Src/stm32f1xx_hal_rtc_ex.c ****   uint32_t pvalue = 0U;
 1049              		.loc 1 502 3 view .LVU308
 503:Drivers/STM32F1xx_HAL_Driver/Src/stm32f1xx_hal_rtc_ex.c **** 
 504:Drivers/STM32F1xx_HAL_Driver/Src/stm32f1xx_hal_rtc_ex.c ****   /* Prevent unused argument(s) compilation warning */
 505:Drivers/STM32F1xx_HAL_Driver/Src/stm32f1xx_hal_rtc_ex.c ****   UNUSED(hrtc);
 1050              		.loc 1 505 3 view .LVU309
 506:Drivers/STM32F1xx_HAL_Driver/Src/stm32f1xx_hal_rtc_ex.c **** 
 507:Drivers/STM32F1xx_HAL_Driver/Src/stm32f1xx_hal_rtc_ex.c ****   /* Check the parameters */
 508:Drivers/STM32F1xx_HAL_Driver/Src/stm32f1xx_hal_rtc_ex.c ****   assert_param(IS_RTC_BKP(BackupRegister));
 1051              		.loc 1 508 3 view .LVU310
 1052 0000 0A29     		cmp	r1, #10
 500:Drivers/STM32F1xx_HAL_Driver/Src/stm32f1xx_hal_rtc_ex.c ****   uint32_t backupregister = 0U;
 1053              		.loc 1 500 1 is_stmt 0 view .LVU311
 1054 0002 10B5     		push	{r4, lr}
 1055              	.LCFI14:
 1056              		.cfi_def_cfa_offset 8
 1057              		.cfi_offset 4, -8
 1058              		.cfi_offset 14, -4
 500:Drivers/STM32F1xx_HAL_Driver/Src/stm32f1xx_hal_rtc_ex.c ****   uint32_t backupregister = 0U;
 1059              		.loc 1 500 1 view .LVU312
 1060 0004 0C46     		mov	r4, r1
 1061              		.loc 1 508 3 view .LVU313
 1062 0006 07D8     		bhi	.L129
 1063              	.LVL72:
 1064              	.L127:
 509:Drivers/STM32F1xx_HAL_Driver/Src/stm32f1xx_hal_rtc_ex.c **** 
 510:Drivers/STM32F1xx_HAL_Driver/Src/stm32f1xx_hal_rtc_ex.c ****   backupregister = (uint32_t)BKP_BASE;
 1065              		.loc 1 510 3 is_stmt 1 view .LVU314
 511:Drivers/STM32F1xx_HAL_Driver/Src/stm32f1xx_hal_rtc_ex.c ****   backupregister += (BackupRegister * 4U);
ARM GAS  C:\Users\WENHUA~1\AppData\Local\Temp\ccM6dVR4.s 			page 31


 1066              		.loc 1 511 3 view .LVU315
 512:Drivers/STM32F1xx_HAL_Driver/Src/stm32f1xx_hal_rtc_ex.c **** 
 513:Drivers/STM32F1xx_HAL_Driver/Src/stm32f1xx_hal_rtc_ex.c ****   pvalue = (*(__IO uint32_t *)(backupregister)) & BKP_DR1_D;
 1067              		.loc 1 513 3 view .LVU316
 511:Drivers/STM32F1xx_HAL_Driver/Src/stm32f1xx_hal_rtc_ex.c ****   backupregister += (BackupRegister * 4U);
 1068              		.loc 1 511 37 is_stmt 0 view .LVU317
 1069 0008 A100     		lsls	r1, r4, #2
 511:Drivers/STM32F1xx_HAL_Driver/Src/stm32f1xx_hal_rtc_ex.c ****   backupregister += (BackupRegister * 4U);
 1070              		.loc 1 511 18 view .LVU318
 1071 000a 01F18041 		add	r1, r1, #1073741824
 1072 000e 01F5D841 		add	r1, r1, #27648
 1073              		.loc 1 513 13 view .LVU319
 1074 0012 0868     		ldr	r0, [r1]
 1075              	.LVL73:
 514:Drivers/STM32F1xx_HAL_Driver/Src/stm32f1xx_hal_rtc_ex.c **** 
 515:Drivers/STM32F1xx_HAL_Driver/Src/stm32f1xx_hal_rtc_ex.c ****   /* Read the specified register */
 516:Drivers/STM32F1xx_HAL_Driver/Src/stm32f1xx_hal_rtc_ex.c ****   return pvalue;
 1076              		.loc 1 516 3 is_stmt 1 view .LVU320
 517:Drivers/STM32F1xx_HAL_Driver/Src/stm32f1xx_hal_rtc_ex.c **** }
 1077              		.loc 1 517 1 is_stmt 0 view .LVU321
 1078 0014 80B2     		uxth	r0, r0
 1079              	.LVL74:
 1080              		.loc 1 517 1 view .LVU322
 1081 0016 10BD     		pop	{r4, pc}
 1082              	.LVL75:
 1083              	.L129:
 508:Drivers/STM32F1xx_HAL_Driver/Src/stm32f1xx_hal_rtc_ex.c **** 
 1084              		.loc 1 508 3 discriminator 1 view .LVU323
 1085 0018 4FF4FE71 		mov	r1, #508
 1086              	.LVL76:
 508:Drivers/STM32F1xx_HAL_Driver/Src/stm32f1xx_hal_rtc_ex.c **** 
 1087              		.loc 1 508 3 discriminator 1 view .LVU324
 1088 001c 0148     		ldr	r0, .L130
 1089              	.LVL77:
 508:Drivers/STM32F1xx_HAL_Driver/Src/stm32f1xx_hal_rtc_ex.c **** 
 1090              		.loc 1 508 3 discriminator 1 view .LVU325
 1091 001e FFF7FEFF 		bl	assert_failed
 1092              	.LVL78:
 1093 0022 F1E7     		b	.L127
 1094              	.L131:
 1095              		.align	2
 1096              	.L130:
 1097 0024 00000000 		.word	.LC0
 1098              		.cfi_endproc
 1099              	.LFE77:
 1101              		.section	.text.HAL_RTCEx_SetSmoothCalib,"ax",%progbits
 1102              		.align	1
 1103              		.p2align 2,,3
 1104              		.global	HAL_RTCEx_SetSmoothCalib
 1105              		.syntax unified
 1106              		.thumb
 1107              		.thumb_func
 1109              	HAL_RTCEx_SetSmoothCalib:
 1110              	.LVL79:
 1111              	.LFB78:
 518:Drivers/STM32F1xx_HAL_Driver/Src/stm32f1xx_hal_rtc_ex.c **** 
 519:Drivers/STM32F1xx_HAL_Driver/Src/stm32f1xx_hal_rtc_ex.c **** 
ARM GAS  C:\Users\WENHUA~1\AppData\Local\Temp\ccM6dVR4.s 			page 32


 520:Drivers/STM32F1xx_HAL_Driver/Src/stm32f1xx_hal_rtc_ex.c **** /**
 521:Drivers/STM32F1xx_HAL_Driver/Src/stm32f1xx_hal_rtc_ex.c ****   * @brief  Sets the Smooth calibration parameters.
 522:Drivers/STM32F1xx_HAL_Driver/Src/stm32f1xx_hal_rtc_ex.c ****   * @param  hrtc: RTC handle
 523:Drivers/STM32F1xx_HAL_Driver/Src/stm32f1xx_hal_rtc_ex.c ****   * @param  SmoothCalibPeriod: Not used (only present for compatibility with another families)
 524:Drivers/STM32F1xx_HAL_Driver/Src/stm32f1xx_hal_rtc_ex.c ****   * @param  SmoothCalibPlusPulses: Not used (only present for compatibility with another families)
 525:Drivers/STM32F1xx_HAL_Driver/Src/stm32f1xx_hal_rtc_ex.c ****   * @param  SmouthCalibMinusPulsesValue: specifies the RTC Clock Calibration value.
 526:Drivers/STM32F1xx_HAL_Driver/Src/stm32f1xx_hal_rtc_ex.c ****   *          This parameter must be a number between 0 and 0x7F.
 527:Drivers/STM32F1xx_HAL_Driver/Src/stm32f1xx_hal_rtc_ex.c ****   * @retval HAL status
 528:Drivers/STM32F1xx_HAL_Driver/Src/stm32f1xx_hal_rtc_ex.c ****   */
 529:Drivers/STM32F1xx_HAL_Driver/Src/stm32f1xx_hal_rtc_ex.c **** HAL_StatusTypeDef HAL_RTCEx_SetSmoothCalib(RTC_HandleTypeDef *hrtc, uint32_t SmoothCalibPeriod, uin
 530:Drivers/STM32F1xx_HAL_Driver/Src/stm32f1xx_hal_rtc_ex.c **** {
 1112              		.loc 1 530 1 is_stmt 1 view -0
 1113              		.cfi_startproc
 1114              		@ args = 0, pretend = 0, frame = 0
 1115              		@ frame_needed = 0, uses_anonymous_args = 0
 531:Drivers/STM32F1xx_HAL_Driver/Src/stm32f1xx_hal_rtc_ex.c ****   /* Check input parameters */
 532:Drivers/STM32F1xx_HAL_Driver/Src/stm32f1xx_hal_rtc_ex.c ****   if (hrtc == NULL)
 1116              		.loc 1 532 3 view .LVU327
 1117              		.loc 1 532 6 is_stmt 0 view .LVU328
 1118 0000 08B3     		cbz	r0, .L135
 533:Drivers/STM32F1xx_HAL_Driver/Src/stm32f1xx_hal_rtc_ex.c ****   {
 534:Drivers/STM32F1xx_HAL_Driver/Src/stm32f1xx_hal_rtc_ex.c ****     return HAL_ERROR;
 535:Drivers/STM32F1xx_HAL_Driver/Src/stm32f1xx_hal_rtc_ex.c ****   }
 536:Drivers/STM32F1xx_HAL_Driver/Src/stm32f1xx_hal_rtc_ex.c ****   /* Prevent unused argument(s) compilation warning */
 537:Drivers/STM32F1xx_HAL_Driver/Src/stm32f1xx_hal_rtc_ex.c ****   UNUSED(SmoothCalibPeriod);
 538:Drivers/STM32F1xx_HAL_Driver/Src/stm32f1xx_hal_rtc_ex.c ****   UNUSED(SmoothCalibPlusPulses);
 539:Drivers/STM32F1xx_HAL_Driver/Src/stm32f1xx_hal_rtc_ex.c **** 
 540:Drivers/STM32F1xx_HAL_Driver/Src/stm32f1xx_hal_rtc_ex.c ****   /* Check the parameters */
 541:Drivers/STM32F1xx_HAL_Driver/Src/stm32f1xx_hal_rtc_ex.c ****   assert_param(IS_RTC_SMOOTH_CALIB_MINUS(SmouthCalibMinusPulsesValue));
 1119              		.loc 1 541 3 view .LVU329
 1120 0002 7F2B     		cmp	r3, #127
 530:Drivers/STM32F1xx_HAL_Driver/Src/stm32f1xx_hal_rtc_ex.c ****   /* Check input parameters */
 1121              		.loc 1 530 1 view .LVU330
 1122 0004 38B5     		push	{r3, r4, r5, lr}
 1123              	.LCFI15:
 1124              		.cfi_def_cfa_offset 16
 1125              		.cfi_offset 3, -16
 1126              		.cfi_offset 4, -12
 1127              		.cfi_offset 5, -8
 1128              		.cfi_offset 14, -4
 1129 0006 0446     		mov	r4, r0
 1130 0008 1D46     		mov	r5, r3
 537:Drivers/STM32F1xx_HAL_Driver/Src/stm32f1xx_hal_rtc_ex.c ****   UNUSED(SmoothCalibPlusPulses);
 1131              		.loc 1 537 3 is_stmt 1 view .LVU331
 538:Drivers/STM32F1xx_HAL_Driver/Src/stm32f1xx_hal_rtc_ex.c **** 
 1132              		.loc 1 538 3 view .LVU332
 1133              		.loc 1 541 3 view .LVU333
 1134 000a 12D8     		bhi	.L141
 542:Drivers/STM32F1xx_HAL_Driver/Src/stm32f1xx_hal_rtc_ex.c **** 
 543:Drivers/STM32F1xx_HAL_Driver/Src/stm32f1xx_hal_rtc_ex.c ****   /* Process Locked */
 544:Drivers/STM32F1xx_HAL_Driver/Src/stm32f1xx_hal_rtc_ex.c ****   __HAL_LOCK(hrtc);
 1135              		.loc 1 544 3 view .LVU334
 1136              		.loc 1 544 3 view .LVU335
 1137 000c 237C     		ldrb	r3, [r4, #16]	@ zero_extendqisi2
 1138              	.LVL80:
 1139              		.loc 1 544 3 is_stmt 0 view .LVU336
 1140 000e 012B     		cmp	r3, #1
ARM GAS  C:\Users\WENHUA~1\AppData\Local\Temp\ccM6dVR4.s 			page 33


 1141 0010 17D0     		beq	.L136
 1142              	.LVL81:
 1143              	.L142:
 1144              		.loc 1 544 3 is_stmt 1 discriminator 2 view .LVU337
 1145              		.loc 1 544 3 discriminator 2 view .LVU338
 545:Drivers/STM32F1xx_HAL_Driver/Src/stm32f1xx_hal_rtc_ex.c **** 
 546:Drivers/STM32F1xx_HAL_Driver/Src/stm32f1xx_hal_rtc_ex.c ****   hrtc->State = HAL_RTC_STATE_BUSY;
 1146              		.loc 1 546 3 discriminator 2 view .LVU339
 1147              		.loc 1 546 15 is_stmt 0 discriminator 2 view .LVU340
 1148 0012 0223     		movs	r3, #2
 547:Drivers/STM32F1xx_HAL_Driver/Src/stm32f1xx_hal_rtc_ex.c **** 
 548:Drivers/STM32F1xx_HAL_Driver/Src/stm32f1xx_hal_rtc_ex.c ****   /* Sets RTC Clock Calibration value.*/
 549:Drivers/STM32F1xx_HAL_Driver/Src/stm32f1xx_hal_rtc_ex.c ****   MODIFY_REG(BKP->RTCCR, BKP_RTCCR_CAL, SmouthCalibMinusPulsesValue);
 550:Drivers/STM32F1xx_HAL_Driver/Src/stm32f1xx_hal_rtc_ex.c **** 
 551:Drivers/STM32F1xx_HAL_Driver/Src/stm32f1xx_hal_rtc_ex.c ****   /* Change RTC state */
 552:Drivers/STM32F1xx_HAL_Driver/Src/stm32f1xx_hal_rtc_ex.c ****   hrtc->State = HAL_RTC_STATE_READY;
 553:Drivers/STM32F1xx_HAL_Driver/Src/stm32f1xx_hal_rtc_ex.c **** 
 554:Drivers/STM32F1xx_HAL_Driver/Src/stm32f1xx_hal_rtc_ex.c ****   /* Process Unlocked */
 555:Drivers/STM32F1xx_HAL_Driver/Src/stm32f1xx_hal_rtc_ex.c ****   __HAL_UNLOCK(hrtc);
 1149              		.loc 1 555 3 discriminator 2 view .LVU341
 1150 0014 0022     		movs	r2, #0
 552:Drivers/STM32F1xx_HAL_Driver/Src/stm32f1xx_hal_rtc_ex.c **** 
 1151              		.loc 1 552 15 discriminator 2 view .LVU342
 1152 0016 4FF0010C 		mov	ip, #1
 549:Drivers/STM32F1xx_HAL_Driver/Src/stm32f1xx_hal_rtc_ex.c **** 
 1153              		.loc 1 549 3 discriminator 2 view .LVU343
 1154 001a 0C49     		ldr	r1, .L143
 546:Drivers/STM32F1xx_HAL_Driver/Src/stm32f1xx_hal_rtc_ex.c **** 
 1155              		.loc 1 546 15 discriminator 2 view .LVU344
 1156 001c 6374     		strb	r3, [r4, #17]
 549:Drivers/STM32F1xx_HAL_Driver/Src/stm32f1xx_hal_rtc_ex.c **** 
 1157              		.loc 1 549 3 is_stmt 1 discriminator 2 view .LVU345
 1158 001e CB6A     		ldr	r3, [r1, #44]
 556:Drivers/STM32F1xx_HAL_Driver/Src/stm32f1xx_hal_rtc_ex.c **** 
 557:Drivers/STM32F1xx_HAL_Driver/Src/stm32f1xx_hal_rtc_ex.c ****   return HAL_OK;
 1159              		.loc 1 557 10 is_stmt 0 discriminator 2 view .LVU346
 1160 0020 1046     		mov	r0, r2
 549:Drivers/STM32F1xx_HAL_Driver/Src/stm32f1xx_hal_rtc_ex.c **** 
 1161              		.loc 1 549 3 discriminator 2 view .LVU347
 1162 0022 23F07F03 		bic	r3, r3, #127
 1163 0026 1D43     		orrs	r5, r5, r3
 1164              	.LVL82:
 549:Drivers/STM32F1xx_HAL_Driver/Src/stm32f1xx_hal_rtc_ex.c **** 
 1165              		.loc 1 549 3 discriminator 2 view .LVU348
 1166 0028 CD62     		str	r5, [r1, #44]
 552:Drivers/STM32F1xx_HAL_Driver/Src/stm32f1xx_hal_rtc_ex.c **** 
 1167              		.loc 1 552 3 is_stmt 1 discriminator 2 view .LVU349
 552:Drivers/STM32F1xx_HAL_Driver/Src/stm32f1xx_hal_rtc_ex.c **** 
 1168              		.loc 1 552 15 is_stmt 0 discriminator 2 view .LVU350
 1169 002a 84F811C0 		strb	ip, [r4, #17]
 555:Drivers/STM32F1xx_HAL_Driver/Src/stm32f1xx_hal_rtc_ex.c **** 
 1170              		.loc 1 555 3 is_stmt 1 discriminator 2 view .LVU351
 555:Drivers/STM32F1xx_HAL_Driver/Src/stm32f1xx_hal_rtc_ex.c **** 
 1171              		.loc 1 555 3 discriminator 2 view .LVU352
 1172 002e 2274     		strb	r2, [r4, #16]
 555:Drivers/STM32F1xx_HAL_Driver/Src/stm32f1xx_hal_rtc_ex.c **** 
 1173              		.loc 1 555 3 discriminator 2 view .LVU353
ARM GAS  C:\Users\WENHUA~1\AppData\Local\Temp\ccM6dVR4.s 			page 34


 1174              		.loc 1 557 3 discriminator 2 view .LVU354
 558:Drivers/STM32F1xx_HAL_Driver/Src/stm32f1xx_hal_rtc_ex.c **** }
 1175              		.loc 1 558 1 is_stmt 0 discriminator 2 view .LVU355
 1176 0030 38BD     		pop	{r3, r4, r5, pc}
 1177              	.LVL83:
 1178              	.L141:
 541:Drivers/STM32F1xx_HAL_Driver/Src/stm32f1xx_hal_rtc_ex.c **** 
 1179              		.loc 1 541 3 discriminator 1 view .LVU356
 1180 0032 40F21D21 		movw	r1, #541
 1181              	.LVL84:
 541:Drivers/STM32F1xx_HAL_Driver/Src/stm32f1xx_hal_rtc_ex.c **** 
 1182              		.loc 1 541 3 discriminator 1 view .LVU357
 1183 0036 0648     		ldr	r0, .L143+4
 1184              	.LVL85:
 541:Drivers/STM32F1xx_HAL_Driver/Src/stm32f1xx_hal_rtc_ex.c **** 
 1185              		.loc 1 541 3 discriminator 1 view .LVU358
 1186 0038 FFF7FEFF 		bl	assert_failed
 1187              	.LVL86:
 544:Drivers/STM32F1xx_HAL_Driver/Src/stm32f1xx_hal_rtc_ex.c **** 
 1188              		.loc 1 544 3 is_stmt 1 discriminator 1 view .LVU359
 544:Drivers/STM32F1xx_HAL_Driver/Src/stm32f1xx_hal_rtc_ex.c **** 
 1189              		.loc 1 544 3 discriminator 1 view .LVU360
 1190 003c 237C     		ldrb	r3, [r4, #16]	@ zero_extendqisi2
 1191 003e 012B     		cmp	r3, #1
 1192 0040 E7D1     		bne	.L142
 1193              	.L136:
 544:Drivers/STM32F1xx_HAL_Driver/Src/stm32f1xx_hal_rtc_ex.c **** 
 1194              		.loc 1 544 3 is_stmt 0 view .LVU361
 1195 0042 0220     		movs	r0, #2
 1196              		.loc 1 558 1 view .LVU362
 1197 0044 38BD     		pop	{r3, r4, r5, pc}
 1198              	.LVL87:
 1199              	.L135:
 1200              	.LCFI16:
 1201              		.cfi_def_cfa_offset 0
 1202              		.cfi_restore 3
 1203              		.cfi_restore 4
 1204              		.cfi_restore 5
 1205              		.cfi_restore 14
 534:Drivers/STM32F1xx_HAL_Driver/Src/stm32f1xx_hal_rtc_ex.c ****   }
 1206              		.loc 1 534 12 view .LVU363
 1207 0046 0120     		movs	r0, #1
 1208              	.LVL88:
 1209              		.loc 1 558 1 view .LVU364
 1210 0048 7047     		bx	lr
 1211              	.L144:
 1212 004a 00BF     		.align	2
 1213              	.L143:
 1214 004c 006C0040 		.word	1073769472
 1215 0050 00000000 		.word	.LC0
 1216              		.cfi_endproc
 1217              	.LFE78:
 1219              		.text
 1220              	.Letext0:
 1221              		.file 2 "d:\\program files (x86)\\gnu arm embedded toolchain\\10 2021.10\\arm-none-eabi\\include\\
 1222              		.file 3 "d:\\program files (x86)\\gnu arm embedded toolchain\\10 2021.10\\arm-none-eabi\\include\\
 1223              		.file 4 "Drivers/CMSIS/Device/ST/STM32F1xx/Include/stm32f103xb.h"
ARM GAS  C:\Users\WENHUA~1\AppData\Local\Temp\ccM6dVR4.s 			page 35


 1224              		.file 5 "Drivers/CMSIS/Device/ST/STM32F1xx/Include/stm32f1xx.h"
 1225              		.file 6 "Drivers/STM32F1xx_HAL_Driver/Inc/stm32f1xx_hal_def.h"
 1226              		.file 7 "Drivers/STM32F1xx_HAL_Driver/Inc/stm32f1xx_hal_rtc.h"
 1227              		.file 8 "Drivers/STM32F1xx_HAL_Driver/Inc/stm32f1xx_hal_rtc_ex.h"
 1228              		.file 9 "Core/Inc/stm32f1xx_hal_conf.h"
 1229              		.file 10 "Drivers/STM32F1xx_HAL_Driver/Inc/stm32f1xx_hal.h"
ARM GAS  C:\Users\WENHUA~1\AppData\Local\Temp\ccM6dVR4.s 			page 36

