ARM GAS  C:\Users\WENHUA~1\AppData\Local\Temp\ccxsB6FI.s 			page 1


   1              		.cpu cortex-m3
   2              		.arch armv7-m
   3              		.fpu softvfp
   4              		.eabi_attribute 20, 1
   5              		.eabi_attribute 21, 1
   6              		.eabi_attribute 23, 3
   7              		.eabi_attribute 24, 1
   8              		.eabi_attribute 25, 1
   9              		.eabi_attribute 26, 1
  10              		.eabi_attribute 30, 2
  11              		.eabi_attribute 34, 1
  12              		.eabi_attribute 18, 4
  13              		.file	"time.c"
  14              		.text
  15              	.Ltext0:
  16              		.cfi_sections	.debug_frame
  17              		.section	.text.Get1sFlag,"ax",%progbits
  18              		.align	1
  19              		.p2align 2,,3
  20              		.global	Get1sFlag
  21              		.syntax unified
  22              		.thumb
  23              		.thumb_func
  25              	Get1sFlag:
  26              	.LFB69:
  27              		.file 1 "user/time/time.c"
   1:user/time/time.c **** #include "time.h"
   2:user/time/time.c **** #include <stdbool.h>
   3:user/time/time.c **** #include <stdio.h>
   4:user/time/time.c **** #include "rtc.h"
   5:user/time/time.c **** #include "hub75d.h"
   6:user/time/time.c **** #include "lunar_calendar.h"
   7:user/time/time.c **** #include "trace_printf.h"
   8:user/time/time.c **** 
   9:user/time/time.c **** struct TimeType g_time;
  10:user/time/time.c **** static bool g_1sFlag;
  11:user/time/time.c **** 
  12:user/time/time.c **** static uint8_t GetMaxDay(uint16_t year, uint8_t month)
  13:user/time/time.c **** {
  14:user/time/time.c ****     uint8_t day;
  15:user/time/time.c ****     uint8_t constDays[] = { 0, 31, 28, 31, 30, 31, 30, 31, 31, 30, 31, 30, 31 };
  16:user/time/time.c **** 
  17:user/time/time.c ****     if (month == 2) {
  18:user/time/time.c ****         if (((year % 4 == 0) && (year % 100 != 0)) || (year % 400 == 0)) {
  19:user/time/time.c ****             day = 29;
  20:user/time/time.c ****         } else {
  21:user/time/time.c ****             day = 28;
  22:user/time/time.c ****         }
  23:user/time/time.c ****     } else {
  24:user/time/time.c ****         day = constDays[month];
  25:user/time/time.c ****     }
  26:user/time/time.c **** 
  27:user/time/time.c ****     return day;
  28:user/time/time.c **** }
  29:user/time/time.c **** 
  30:user/time/time.c **** bool Get1sFlag(void)
  31:user/time/time.c **** {
ARM GAS  C:\Users\WENHUA~1\AppData\Local\Temp\ccxsB6FI.s 			page 2


  28              		.loc 1 31 1 view -0
  29              		.cfi_startproc
  30              		@ args = 0, pretend = 0, frame = 0
  31              		@ frame_needed = 0, uses_anonymous_args = 0
  32              		@ link register save eliminated.
  32:user/time/time.c ****     return g_1sFlag;
  33              		.loc 1 32 5 view .LVU1
  34              		.loc 1 32 12 is_stmt 0 view .LVU2
  35 0000 014B     		ldr	r3, .L3
  33:user/time/time.c **** }
  36              		.loc 1 33 1 view .LVU3
  37 0002 1878     		ldrb	r0, [r3]	@ zero_extendqisi2
  38 0004 7047     		bx	lr
  39              	.L4:
  40 0006 00BF     		.align	2
  41              	.L3:
  42 0008 00000000 		.word	.LANCHOR0
  43              		.cfi_endproc
  44              	.LFE69:
  46              		.section	.text.Set1sFlag,"ax",%progbits
  47              		.align	1
  48              		.p2align 2,,3
  49              		.global	Set1sFlag
  50              		.syntax unified
  51              		.thumb
  52              		.thumb_func
  54              	Set1sFlag:
  55              	.LVL0:
  56              	.LFB70:
  34:user/time/time.c **** 
  35:user/time/time.c **** void Set1sFlag(bool flag)
  36:user/time/time.c **** {
  57              		.loc 1 36 1 is_stmt 1 view -0
  58              		.cfi_startproc
  59              		@ args = 0, pretend = 0, frame = 0
  60              		@ frame_needed = 0, uses_anonymous_args = 0
  61              		@ link register save eliminated.
  37:user/time/time.c ****     g_1sFlag = flag;
  62              		.loc 1 37 5 view .LVU5
  63              		.loc 1 37 14 is_stmt 0 view .LVU6
  64 0000 014B     		ldr	r3, .L6
  65 0002 1870     		strb	r0, [r3]
  38:user/time/time.c **** }
  66              		.loc 1 38 1 view .LVU7
  67 0004 7047     		bx	lr
  68              	.L7:
  69 0006 00BF     		.align	2
  70              	.L6:
  71 0008 00000000 		.word	.LANCHOR0
  72              		.cfi_endproc
  73              	.LFE70:
  75              		.section	.text.GetTimeData,"ax",%progbits
  76              		.align	1
  77              		.p2align 2,,3
  78              		.global	GetTimeData
  79              		.syntax unified
  80              		.thumb
ARM GAS  C:\Users\WENHUA~1\AppData\Local\Temp\ccxsB6FI.s 			page 3


  81              		.thumb_func
  83              	GetTimeData:
  84              	.LFB71:
  39:user/time/time.c **** 
  40:user/time/time.c **** struct TimeType *GetTimeData(void)
  41:user/time/time.c **** {
  85              		.loc 1 41 1 is_stmt 1 view -0
  86              		.cfi_startproc
  87              		@ args = 0, pretend = 0, frame = 0
  88              		@ frame_needed = 0, uses_anonymous_args = 0
  89              		@ link register save eliminated.
  42:user/time/time.c ****     return &g_time;
  90              		.loc 1 42 5 view .LVU9
  43:user/time/time.c **** }
  91              		.loc 1 43 1 is_stmt 0 view .LVU10
  92 0000 0048     		ldr	r0, .L9
  93 0002 7047     		bx	lr
  94              	.L10:
  95              		.align	2
  96              	.L9:
  97 0004 00000000 		.word	.LANCHOR1
  98              		.cfi_endproc
  99              	.LFE71:
 101              		.section	.text.CalculateWeek,"ax",%progbits
 102              		.align	1
 103              		.p2align 2,,3
 104              		.global	CalculateWeek
 105              		.syntax unified
 106              		.thumb
 107              		.thumb_func
 109              	CalculateWeek:
 110              	.LVL1:
 111              	.LFB72:
  44:user/time/time.c **** 
  45:user/time/time.c **** void CalculateWeek(uint16_t year, uint8_t month, uint8_t day, uint8_t *week)
  46:user/time/time.c **** {
 112              		.loc 1 46 1 is_stmt 1 view -0
 113              		.cfi_startproc
 114              		@ args = 0, pretend = 0, frame = 0
 115              		@ frame_needed = 0, uses_anonymous_args = 0
  47:user/time/time.c ****     int16_t yearTemp = 0;
 116              		.loc 1 47 5 view .LVU12
  48:user/time/time.c ****     int16_t yearHigh;
 117              		.loc 1 48 5 view .LVU13
  49:user/time/time.c ****     int16_t yearLow;
 118              		.loc 1 49 5 view .LVU14
  50:user/time/time.c ****     int8_t monthTemp = 0;
 119              		.loc 1 50 5 view .LVU15
  51:user/time/time.c ****     int8_t wk;
 120              		.loc 1 51 5 view .LVU16
  52:user/time/time.c **** 
  53:user/time/time.c ****     if (month < 3) {
 121              		.loc 1 53 5 view .LVU17
  46:user/time/time.c ****     int16_t yearTemp = 0;
 122              		.loc 1 46 1 is_stmt 0 view .LVU18
 123 0000 30B5     		push	{r4, r5, lr}
 124              	.LCFI0:
ARM GAS  C:\Users\WENHUA~1\AppData\Local\Temp\ccxsB6FI.s 			page 4


 125              		.cfi_def_cfa_offset 12
 126              		.cfi_offset 4, -12
 127              		.cfi_offset 5, -8
 128              		.cfi_offset 14, -4
  54:user/time/time.c ****         monthTemp = month + 12;
  55:user/time/time.c ****         yearTemp = year - 1;
  56:user/time/time.c ****     } else {
  57:user/time/time.c ****         monthTemp = month;
  58:user/time/time.c ****         yearTemp = year;
  59:user/time/time.c ****     }
  60:user/time/time.c **** 
  61:user/time/time.c ****     yearHigh = yearTemp / 100;
  62:user/time/time.c ****     yearLow = yearTemp % 100;
 129              		.loc 1 62 13 view .LVU19
 130 0002 6425     		movs	r5, #100
  53:user/time/time.c ****         monthTemp = month + 12;
 131              		.loc 1 53 8 view .LVU20
 132 0004 0229     		cmp	r1, #2
  54:user/time/time.c ****         monthTemp = month + 12;
 133              		.loc 1 54 9 is_stmt 1 view .LVU21
  54:user/time/time.c ****         monthTemp = month + 12;
 134              		.loc 1 54 27 is_stmt 0 view .LVU22
 135 0006 9CBF     		itt	ls
 136 0008 0C31     		addls	r1, r1, #12
 137              	.LVL2:
  55:user/time/time.c ****     } else {
 138              		.loc 1 55 25 view .LVU23
 139 000a 00F1FF30 		addls	r0, r0, #-1
 140              	.LVL3:
  57:user/time/time.c ****         yearTemp = year;
 141              		.loc 1 57 9 is_stmt 1 view .LVU24
  57:user/time/time.c ****         yearTemp = year;
 142              		.loc 1 57 19 is_stmt 0 view .LVU25
 143 000e 4FFA81FC 		sxtb	ip, r1
 144              	.LVL4:
  58:user/time/time.c ****     }
 145              		.loc 1 58 9 is_stmt 1 view .LVU26
 146              		.loc 1 62 13 is_stmt 0 view .LVU27
 147 0012 1A49     		ldr	r1, .L16
  58:user/time/time.c ****     }
 148              		.loc 1 58 18 view .LVU28
 149 0014 00B2     		sxth	r0, r0
 150              	.LVL5:
  61:user/time/time.c ****     yearLow = yearTemp % 100;
 151              		.loc 1 61 5 is_stmt 1 view .LVU29
 152              		.loc 1 62 5 view .LVU30
  63:user/time/time.c **** 
  64:user/time/time.c ****     wk = yearLow + (yearLow / 4) + (yearHigh / 4);
  65:user/time/time.c ****     wk = wk - (2 * yearHigh) + (26 * (monthTemp + 1) / 10) + day - 1;
 153              		.loc 1 65 66 is_stmt 0 view .LVU31
 154 0016 541E     		subs	r4, r2, #1
  62:user/time/time.c **** 
 155              		.loc 1 62 13 view .LVU32
 156 0018 81FB0012 		smull	r1, r2, r1, r0
 157              	.LVL6:
  62:user/time/time.c **** 
 158              		.loc 1 62 13 view .LVU33
ARM GAS  C:\Users\WENHUA~1\AppData\Local\Temp\ccxsB6FI.s 			page 5


 159 001c 4FEAE07E 		asr	lr, r0, #31
 160 0020 CEEB6211 		rsb	r1, lr, r2, asr #5
 161 0024 05FB1101 		mls	r1, r5, r1, r0
 162 0028 09B2     		sxth	r1, r1
 163              	.LVL7:
  64:user/time/time.c ****     wk = wk - (2 * yearHigh) + (26 * (monthTemp + 1) / 10) + day - 1;
 164              		.loc 1 64 5 is_stmt 1 view .LVU34
 165              		.loc 1 65 5 view .LVU35
  66:user/time/time.c ****     wk = (wk + 140) % 7;
 166              		.loc 1 66 5 view .LVU36
  67:user/time/time.c **** 
  68:user/time/time.c ****     *week = wk;
 167              		.loc 1 68 5 view .LVU37
  65:user/time/time.c ****     wk = (wk + 140) % 7;
 168              		.loc 1 65 66 is_stmt 0 view .LVU38
 169 002a 0C44     		add	r4, r4, r1
 170              	.LVL8:
  64:user/time/time.c ****     wk = wk - (2 * yearHigh) + (26 * (monthTemp + 1) / 10) + day - 1;
 171              		.loc 1 64 34 view .LVU39
 172 002c CEEBE212 		rsb	r2, lr, r2, asr #7
  64:user/time/time.c ****     wk = wk - (2 * yearHigh) + (26 * (monthTemp + 1) / 10) + day - 1;
 173              		.loc 1 64 18 view .LVU40
 174 0030 0029     		cmp	r1, #0
  65:user/time/time.c ****     wk = (wk + 140) % 7;
 175              		.loc 1 65 66 view .LVU41
 176 0032 2244     		add	r2, r2, r4
  64:user/time/time.c ****     wk = wk - (2 * yearHigh) + (26 * (monthTemp + 1) / 10) + day - 1;
 177              		.loc 1 64 18 view .LVU42
 178 0034 B8BF     		it	lt
 179 0036 0331     		addlt	r1, r1, #3
 180              	.LVL9:
  65:user/time/time.c ****     wk = (wk + 140) % 7;
 181              		.loc 1 65 66 view .LVU43
 182 0038 02EBA102 		add	r2, r2, r1, asr #2
  65:user/time/time.c ****     wk = (wk + 140) % 7;
 183              		.loc 1 65 36 view .LVU44
 184 003c 1A21     		movs	r1, #26
  61:user/time/time.c ****     yearLow = yearTemp % 100;
 185              		.loc 1 61 14 view .LVU45
 186 003e 0F4C     		ldr	r4, .L16
 187              	.LVL10:
  65:user/time/time.c ****     wk = (wk + 140) % 7;
 188              		.loc 1 65 36 view .LVU46
 189 0040 0CFB0111 		mla	r1, ip, r1, r1
  61:user/time/time.c ****     yearLow = yearTemp % 100;
 190              		.loc 1 61 14 view .LVU47
 191 0044 84FB0040 		smull	r4, r0, r4, r0
 192              	.LVL11:
  65:user/time/time.c ****     wk = (wk + 140) % 7;
 193              		.loc 1 65 54 view .LVU48
 194 0048 0D4C     		ldr	r4, .L16+4
  61:user/time/time.c ****     yearLow = yearTemp % 100;
 195              		.loc 1 61 14 view .LVU49
 196 004a CEEB6010 		rsb	r0, lr, r0, asr #5
  65:user/time/time.c ****     wk = (wk + 140) % 7;
 197              		.loc 1 65 66 view .LVU50
 198 004e A2EB4002 		sub	r2, r2, r0, lsl #1
ARM GAS  C:\Users\WENHUA~1\AppData\Local\Temp\ccxsB6FI.s 			page 6


  65:user/time/time.c ****     wk = (wk + 140) % 7;
 199              		.loc 1 65 54 view .LVU51
 200 0052 84FB0140 		smull	r4, r0, r4, r1
 201 0056 C917     		asrs	r1, r1, #31
 202 0058 C1EBA001 		rsb	r1, r1, r0, asr #2
  65:user/time/time.c ****     wk = (wk + 140) % 7;
 203              		.loc 1 65 66 view .LVU52
 204 005c 0A44     		add	r2, r2, r1
  66:user/time/time.c **** 
 205              		.loc 1 66 14 view .LVU53
 206 005e 52B2     		sxtb	r2, r2
  66:user/time/time.c **** 
 207              		.loc 1 66 21 view .LVU54
 208 0060 0849     		ldr	r1, .L16+8
  66:user/time/time.c **** 
 209              		.loc 1 66 14 view .LVU55
 210 0062 8C32     		adds	r2, r2, #140
  66:user/time/time.c **** 
 211              		.loc 1 66 21 view .LVU56
 212 0064 A1FB0201 		umull	r0, r1, r1, r2
 213 0068 501A     		subs	r0, r2, r1
 214 006a 01EB5001 		add	r1, r1, r0, lsr #1
 215 006e 8908     		lsrs	r1, r1, #2
 216 0070 C1EBC101 		rsb	r1, r1, r1, lsl #3
 217 0074 521A     		subs	r2, r2, r1
 218              		.loc 1 68 11 view .LVU57
 219 0076 1A70     		strb	r2, [r3]
  69:user/time/time.c **** }
 220              		.loc 1 69 1 view .LVU58
 221 0078 30BD     		pop	{r4, r5, pc}
 222              	.L17:
 223 007a 00BF     		.align	2
 224              	.L16:
 225 007c 1F85EB51 		.word	1374389535
 226 0080 67666666 		.word	1717986919
 227 0084 25499224 		.word	613566757
 228              		.cfi_endproc
 229              	.LFE72:
 231              		.section	.text.SetTimeData,"ax",%progbits
 232              		.align	1
 233              		.p2align 2,,3
 234              		.global	SetTimeData
 235              		.syntax unified
 236              		.thumb
 237              		.thumb_func
 239              	SetTimeData:
 240              	.LVL12:
 241              	.LFB73:
  70:user/time/time.c **** 
  71:user/time/time.c **** void SetTimeData(struct TimeType *time)
  72:user/time/time.c **** {
 242              		.loc 1 72 1 is_stmt 1 view -0
 243              		.cfi_startproc
 244              		@ args = 0, pretend = 0, frame = 0
 245              		@ frame_needed = 0, uses_anonymous_args = 0
  73:user/time/time.c ****     g_time.sec = time->sec;
 246              		.loc 1 73 5 view .LVU60
ARM GAS  C:\Users\WENHUA~1\AppData\Local\Temp\ccxsB6FI.s 			page 7


 247              		.loc 1 73 16 is_stmt 0 view .LVU61
 248 0000 0B4B     		ldr	r3, .L20
  74:user/time/time.c ****     g_time.min = time->min;
  75:user/time/time.c ****     g_time.hour = time->hour;
  76:user/time/time.c ****     g_time.week = time->week;
 249              		.loc 1 76 23 view .LVU62
 250 0002 0279     		ldrb	r2, [r0, #4]	@ zero_extendqisi2
  72:user/time/time.c ****     g_time.sec = time->sec;
 251              		.loc 1 72 1 view .LVU63
 252 0004 00B5     		push	{lr}
 253              	.LCFI1:
 254              		.cfi_def_cfa_offset 4
 255              		.cfi_offset 14, -4
  73:user/time/time.c ****     g_time.sec = time->sec;
 256              		.loc 1 73 22 view .LVU64
 257 0006 90F800C0 		ldrb	ip, [r0]	@ zero_extendqisi2
  74:user/time/time.c ****     g_time.min = time->min;
 258              		.loc 1 74 22 view .LVU65
 259 000a 4178     		ldrb	r1, [r0, #1]	@ zero_extendqisi2
  75:user/time/time.c ****     g_time.week = time->week;
 260              		.loc 1 75 23 view .LVU66
 261 000c 90F802E0 		ldrb	lr, [r0, #2]	@ zero_extendqisi2
 262              		.loc 1 76 17 view .LVU67
 263 0010 1A71     		strb	r2, [r3, #4]
  73:user/time/time.c ****     g_time.min = time->min;
 264              		.loc 1 73 16 view .LVU68
 265 0012 83F800C0 		strb	ip, [r3]
  74:user/time/time.c ****     g_time.hour = time->hour;
 266              		.loc 1 74 5 is_stmt 1 view .LVU69
  74:user/time/time.c ****     g_time.hour = time->hour;
 267              		.loc 1 74 16 is_stmt 0 view .LVU70
 268 0016 5970     		strb	r1, [r3, #1]
  75:user/time/time.c ****     g_time.week = time->week;
 269              		.loc 1 75 5 is_stmt 1 view .LVU71
  77:user/time/time.c ****     g_time.day = time->day;
 270              		.loc 1 77 22 is_stmt 0 view .LVU72
 271 0018 90F803C0 		ldrb	ip, [r0, #3]	@ zero_extendqisi2
  78:user/time/time.c ****     g_time.month = time->month;
 272              		.loc 1 78 24 view .LVU73
 273 001c 4179     		ldrb	r1, [r0, #5]	@ zero_extendqisi2
  79:user/time/time.c ****     g_time.year = time->year;
 274              		.loc 1 79 23 view .LVU74
 275 001e C288     		ldrh	r2, [r0, #6]
  75:user/time/time.c ****     g_time.week = time->week;
 276              		.loc 1 75 17 view .LVU75
 277 0020 83F802E0 		strb	lr, [r3, #2]
  76:user/time/time.c ****     g_time.day = time->day;
 278              		.loc 1 76 5 is_stmt 1 view .LVU76
  77:user/time/time.c ****     g_time.month = time->month;
 279              		.loc 1 77 5 view .LVU77
  77:user/time/time.c ****     g_time.month = time->month;
 280              		.loc 1 77 16 is_stmt 0 view .LVU78
 281 0024 83F803C0 		strb	ip, [r3, #3]
  78:user/time/time.c ****     g_time.year = time->year;
 282              		.loc 1 78 5 is_stmt 1 view .LVU79
  78:user/time/time.c ****     g_time.year = time->year;
 283              		.loc 1 78 18 is_stmt 0 view .LVU80
ARM GAS  C:\Users\WENHUA~1\AppData\Local\Temp\ccxsB6FI.s 			page 8


 284 0028 5971     		strb	r1, [r3, #5]
 285              		.loc 1 79 5 is_stmt 1 view .LVU81
 286              		.loc 1 79 17 is_stmt 0 view .LVU82
 287 002a DA80     		strh	r2, [r3, #6]	@ movhi
  80:user/time/time.c **** }
 288              		.loc 1 80 1 view .LVU83
 289 002c 5DF804FB 		ldr	pc, [sp], #4
 290              	.L21:
 291              		.align	2
 292              	.L20:
 293 0030 00000000 		.word	.LANCHOR1
 294              		.cfi_endproc
 295              	.LFE73:
 297              		.section	.text.ClockRun,"ax",%progbits
 298              		.align	1
 299              		.p2align 2,,3
 300              		.global	ClockRun
 301              		.syntax unified
 302              		.thumb
 303              		.thumb_func
 305              	ClockRun:
 306              	.LFB74:
  81:user/time/time.c **** 
  82:user/time/time.c **** bool ClockRun(void)
  83:user/time/time.c **** {
 307              		.loc 1 83 1 is_stmt 1 view -0
 308              		.cfi_startproc
 309              		@ args = 0, pretend = 0, frame = 16
 310              		@ frame_needed = 0, uses_anonymous_args = 0
  84:user/time/time.c ****     g_time.sec++;
 311              		.loc 1 84 5 view .LVU85
  83:user/time/time.c ****     g_time.sec++;
 312              		.loc 1 83 1 is_stmt 0 view .LVU86
 313 0000 F0B5     		push	{r4, r5, r6, r7, lr}
 314              	.LCFI2:
 315              		.cfi_def_cfa_offset 20
 316              		.cfi_offset 4, -20
 317              		.cfi_offset 5, -16
 318              		.cfi_offset 6, -12
 319              		.cfi_offset 7, -8
 320              		.cfi_offset 14, -4
 321              		.loc 1 84 11 view .LVU87
 322 0002 614C     		ldr	r4, .L51
  83:user/time/time.c ****     g_time.sec++;
 323              		.loc 1 83 1 view .LVU88
 324 0004 85B0     		sub	sp, sp, #20
 325              	.LCFI3:
 326              		.cfi_def_cfa_offset 40
 327              		.loc 1 84 15 view .LVU89
 328 0006 2378     		ldrb	r3, [r4]	@ zero_extendqisi2
 329 0008 0133     		adds	r3, r3, #1
 330 000a DBB2     		uxtb	r3, r3
  85:user/time/time.c ****     if (g_time.sec < 60) {
 331              		.loc 1 85 5 is_stmt 1 view .LVU90
 332              		.loc 1 85 8 is_stmt 0 view .LVU91
 333 000c 3B2B     		cmp	r3, #59
 334 000e 66D9     		bls	.L47
ARM GAS  C:\Users\WENHUA~1\AppData\Local\Temp\ccxsB6FI.s 			page 9


  86:user/time/time.c ****         return false;
  87:user/time/time.c ****     }
  88:user/time/time.c **** 
  89:user/time/time.c ****     g_time.sec = 0;
 335              		.loc 1 89 5 is_stmt 1 view .LVU92
 336              		.loc 1 89 16 is_stmt 0 view .LVU93
 337 0010 0022     		movs	r2, #0
  90:user/time/time.c ****     g_time.min++;
 338              		.loc 1 90 15 view .LVU94
 339 0012 6378     		ldrb	r3, [r4, #1]	@ zero_extendqisi2
  89:user/time/time.c ****     g_time.min++;
 340              		.loc 1 89 16 view .LVU95
 341 0014 2270     		strb	r2, [r4]
 342              		.loc 1 90 5 is_stmt 1 view .LVU96
  91:user/time/time.c ****     if (g_time.min < 60) {
 343              		.loc 1 91 5 view .LVU97
  90:user/time/time.c ****     g_time.min++;
 344              		.loc 1 90 15 is_stmt 0 view .LVU98
 345 0016 0133     		adds	r3, r3, #1
 346 0018 DBB2     		uxtb	r3, r3
 347              		.loc 1 91 8 view .LVU99
 348 001a 3B2B     		cmp	r3, #59
 349 001c 5BD9     		bls	.L48
  92:user/time/time.c ****         return false;
  93:user/time/time.c ****     }
  94:user/time/time.c **** 
  95:user/time/time.c ****     g_time.min = 0;
 350              		.loc 1 95 5 is_stmt 1 view .LVU100
  96:user/time/time.c ****     g_time.hour++;
 351              		.loc 1 96 16 is_stmt 0 view .LVU101
 352 001e A378     		ldrb	r3, [r4, #2]	@ zero_extendqisi2
  95:user/time/time.c ****     g_time.hour++;
 353              		.loc 1 95 16 view .LVU102
 354 0020 6270     		strb	r2, [r4, #1]
 355              		.loc 1 96 5 is_stmt 1 view .LVU103
 356              		.loc 1 96 16 is_stmt 0 view .LVU104
 357 0022 0133     		adds	r3, r3, #1
 358 0024 DBB2     		uxtb	r3, r3
  97:user/time/time.c ****     if (g_time.hour < 24) {
 359              		.loc 1 97 5 is_stmt 1 view .LVU105
 360              		.loc 1 97 8 is_stmt 0 view .LVU106
 361 0026 172B     		cmp	r3, #23
 362 0028 40F28680 		bls	.L49
  98:user/time/time.c ****         return false;
  99:user/time/time.c ****     }
 100:user/time/time.c **** 
 101:user/time/time.c ****     g_time.hour = 0;
 363              		.loc 1 101 5 is_stmt 1 view .LVU107
 364              	.LBB8:
 365              	.LBB9:
  15:user/time/time.c **** 
 366              		.loc 1 15 13 is_stmt 0 view .LVU108
 367 002c 6E46     		mov	r6, sp
 368 002e 574B     		ldr	r3, .L51+4
 369              	.LBE9:
 370              	.LBE8:
 102:user/time/time.c ****     g_time.day++;
ARM GAS  C:\Users\WENHUA~1\AppData\Local\Temp\ccxsB6FI.s 			page 10


 371              		.loc 1 102 11 view .LVU109
 372 0030 94F803C0 		ldrb	ip, [r4, #3]	@ zero_extendqisi2
 101:user/time/time.c ****     g_time.day++;
 373              		.loc 1 101 17 view .LVU110
 374 0034 A270     		strb	r2, [r4, #2]
 375              		.loc 1 102 5 is_stmt 1 view .LVU111
 376              	.LBB15:
 377              	.LBB10:
  15:user/time/time.c **** 
 378              		.loc 1 15 13 is_stmt 0 view .LVU112
 379 0036 0FCB     		ldm	r3, {r0, r1, r2, r3}
 380 0038 07C6     		stmia	r6!, {r0, r1, r2}
 381              	.LBE10:
 382              	.LBE15:
 103:user/time/time.c ****     if (g_time.day <= GetMaxDay(g_time.year, g_time.month)) {
 383              		.loc 1 103 23 view .LVU113
 384 003a 94F805E0 		ldrb	lr, [r4, #5]	@ zero_extendqisi2
 102:user/time/time.c ****     g_time.day++;
 385              		.loc 1 102 15 view .LVU114
 386 003e 0CF10107 		add	r7, ip, #1
 387 0042 FFB2     		uxtb	r7, r7
 388              	.LBB16:
 389              	.LBB11:
  17:user/time/time.c ****         if (((year % 4 == 0) && (year % 100 != 0)) || (year % 400 == 0)) {
 390              		.loc 1 17 8 view .LVU115
 391 0044 BEF1020F 		cmp	lr, #2
 392              	.LBE11:
 393              	.LBE16:
 394              		.loc 1 103 23 view .LVU116
 395 0048 E588     		ldrh	r5, [r4, #6]
 102:user/time/time.c ****     if (g_time.day <= GetMaxDay(g_time.year, g_time.month)) {
 396              		.loc 1 102 15 view .LVU117
 397 004a E770     		strb	r7, [r4, #3]
 398              		.loc 1 103 5 is_stmt 1 view .LVU118
 399              	.LVL13:
 400              	.LBB17:
 401              	.LBI8:
  12:user/time/time.c **** {
 402              		.loc 1 12 16 view .LVU119
 403              	.LBB12:
  14:user/time/time.c ****     uint8_t constDays[] = { 0, 31, 28, 31, 30, 31, 30, 31, 31, 30, 31, 30, 31 };
 404              		.loc 1 14 5 view .LVU120
  15:user/time/time.c **** 
 405              		.loc 1 15 5 view .LVU121
  15:user/time/time.c **** 
 406              		.loc 1 15 13 is_stmt 0 view .LVU122
 407 004c 3370     		strb	r3, [r6]
  17:user/time/time.c ****         if (((year % 4 == 0) && (year % 100 != 0)) || (year % 400 == 0)) {
 408              		.loc 1 17 5 is_stmt 1 view .LVU123
  17:user/time/time.c ****         if (((year % 4 == 0) && (year % 100 != 0)) || (year % 400 == 0)) {
 409              		.loc 1 17 8 is_stmt 0 view .LVU124
 410 004e 48D0     		beq	.L50
  24:user/time/time.c ****     }
 411              		.loc 1 24 9 is_stmt 1 view .LVU125
  24:user/time/time.c ****     }
 412              		.loc 1 24 13 is_stmt 0 view .LVU126
 413 0050 0EF11003 		add	r3, lr, #16
ARM GAS  C:\Users\WENHUA~1\AppData\Local\Temp\ccxsB6FI.s 			page 11


 414 0054 6B44     		add	r3, sp, r3
 415 0056 13F8103C 		ldrb	r3, [r3, #-16]	@ zero_extendqisi2
 416              	.LVL14:
  27:user/time/time.c **** }
 417              		.loc 1 27 5 is_stmt 1 view .LVU127
  27:user/time/time.c **** }
 418              		.loc 1 27 5 is_stmt 0 view .LVU128
 419              	.LBE12:
 420              	.LBE17:
 421              		.loc 1 103 8 view .LVU129
 422 005a 9F42     		cmp	r7, r3
 423 005c 5BD9     		bls	.L32
 424              	.L41:
 104:user/time/time.c ****         goto calc_week;
 105:user/time/time.c ****     }
 106:user/time/time.c **** 
 107:user/time/time.c ****     g_time.day = 1;
 425              		.loc 1 107 5 is_stmt 1 view .LVU130
 426              		.loc 1 107 16 is_stmt 0 view .LVU131
 427 005e 0121     		movs	r1, #1
 108:user/time/time.c ****     g_time.month++;
 428              		.loc 1 108 17 view .LVU132
 429 0060 0EEB0103 		add	r3, lr, r1
 430 0064 5FFA83FE 		uxtb	lr, r3
 109:user/time/time.c ****     if (g_time.month < 13) {
 431              		.loc 1 109 8 view .LVU133
 432 0068 BEF10C0F 		cmp	lr, #12
 107:user/time/time.c ****     g_time.month++;
 433              		.loc 1 107 16 view .LVU134
 434 006c E170     		strb	r1, [r4, #3]
 108:user/time/time.c ****     g_time.month++;
 435              		.loc 1 108 5 is_stmt 1 view .LVU135
 436              		.loc 1 109 5 view .LVU136
 437              		.loc 1 109 8 is_stmt 0 view .LVU137
 438 006e 4ED9     		bls	.L39
 110:user/time/time.c ****         goto calc_week;
 111:user/time/time.c ****     }
 112:user/time/time.c **** 
 113:user/time/time.c ****     g_time.month = 1;
 439              		.loc 1 113 5 is_stmt 1 view .LVU138
 114:user/time/time.c ****     g_time.year++;
 440              		.loc 1 114 16 is_stmt 0 view .LVU139
 441 0070 6B1C     		adds	r3, r5, #1
 442 0072 E380     		strh	r3, [r4, #6]	@ movhi
 443 0074 4FF0000C 		mov	ip, #0
 444 0078 2423     		movs	r3, #36
 113:user/time/time.c ****     g_time.year++;
 445              		.loc 1 113 18 view .LVU140
 446 007a 6171     		strb	r1, [r4, #5]
 447              		.loc 1 114 5 is_stmt 1 view .LVU141
 115:user/time/time.c **** 
 116:user/time/time.c **** calc_week:
 117:user/time/time.c ****     CalculateWeek(g_time.year, g_time.month, g_time.day, &g_time.week);
 448              		.loc 1 117 5 view .LVU142
 449              	.LVL15:
 450              	.LBB18:
 451              	.LBI18:
ARM GAS  C:\Users\WENHUA~1\AppData\Local\Temp\ccxsB6FI.s 			page 12


  45:user/time/time.c **** {
 452              		.loc 1 45 6 view .LVU143
 453              	.LBB19:
  47:user/time/time.c ****     int16_t yearHigh;
 454              		.loc 1 47 5 view .LVU144
  48:user/time/time.c ****     int16_t yearLow;
 455              		.loc 1 48 5 view .LVU145
  49:user/time/time.c ****     int8_t monthTemp = 0;
 456              		.loc 1 49 5 view .LVU146
  50:user/time/time.c ****     int8_t wk;
 457              		.loc 1 50 5 view .LVU147
  51:user/time/time.c **** 
 458              		.loc 1 51 5 view .LVU148
  53:user/time/time.c ****         monthTemp = month + 12;
 459              		.loc 1 53 5 view .LVU149
 460              	.L34:
  54:user/time/time.c ****         yearTemp = year - 1;
 461              		.loc 1 54 9 view .LVU150
  55:user/time/time.c ****     } else {
 462              		.loc 1 55 9 view .LVU151
  55:user/time/time.c ****     } else {
 463              		.loc 1 55 18 is_stmt 0 view .LVU152
 464 007c 29B2     		sxth	r1, r5
 465              	.LVL16:
 466              	.L36:
  61:user/time/time.c ****     yearLow = yearTemp % 100;
 467              		.loc 1 61 5 is_stmt 1 view .LVU153
  62:user/time/time.c **** 
 468              		.loc 1 62 5 view .LVU154
  62:user/time/time.c **** 
 469              		.loc 1 62 13 is_stmt 0 view .LVU155
 470 007e 6425     		movs	r5, #100
 471 0080 434A     		ldr	r2, .L51+8
  65:user/time/time.c ****     wk = (wk + 140) % 7;
 472              		.loc 1 65 66 view .LVU156
 473 0082 6344     		add	r3, r3, ip
  62:user/time/time.c **** 
 474              		.loc 1 62 13 view .LVU157
 475 0084 82FB0102 		smull	r0, r2, r2, r1
 476 0088 4FEAE17C 		asr	ip, r1, #31
 477 008c CCEB6210 		rsb	r0, ip, r2, asr #5
 478 0090 05FB1010 		mls	r0, r5, r0, r1
 479 0094 00B2     		sxth	r0, r0
 480              	.LVL17:
  64:user/time/time.c ****     wk = wk - (2 * yearHigh) + (26 * (monthTemp + 1) / 10) + day - 1;
 481              		.loc 1 64 5 is_stmt 1 view .LVU158
  65:user/time/time.c ****     wk = (wk + 140) % 7;
 482              		.loc 1 65 5 view .LVU159
  66:user/time/time.c **** 
 483              		.loc 1 66 5 view .LVU160
  68:user/time/time.c **** }
 484              		.loc 1 68 5 view .LVU161
  64:user/time/time.c ****     wk = wk - (2 * yearHigh) + (26 * (monthTemp + 1) / 10) + day - 1;
 485              		.loc 1 64 34 is_stmt 0 view .LVU162
 486 0096 CCEBE212 		rsb	r2, ip, r2, asr #7
  65:user/time/time.c ****     wk = (wk + 140) % 7;
 487              		.loc 1 65 66 view .LVU163
ARM GAS  C:\Users\WENHUA~1\AppData\Local\Temp\ccxsB6FI.s 			page 13


 488 009a 0344     		add	r3, r3, r0
  64:user/time/time.c ****     wk = wk - (2 * yearHigh) + (26 * (monthTemp + 1) / 10) + day - 1;
 489              		.loc 1 64 18 view .LVU164
 490 009c 0028     		cmp	r0, #0
  64:user/time/time.c ****     wk = wk - (2 * yearHigh) + (26 * (monthTemp + 1) / 10) + day - 1;
 491              		.loc 1 64 18 view .LVU165
 492 009e B8BF     		it	lt
 493 00a0 0330     		addlt	r0, r0, #3
 494              	.LVL18:
  65:user/time/time.c ****     wk = (wk + 140) % 7;
 495              		.loc 1 65 66 view .LVU166
 496 00a2 1344     		add	r3, r3, r2
 497 00a4 03EBA003 		add	r3, r3, r0, asr #2
 498              	.LBE19:
 499              	.LBE18:
 118:user/time/time.c ****     return true;
 500              		.loc 1 118 12 view .LVU167
 501 00a8 0120     		movs	r0, #1
 502              	.LVL19:
 503              	.LBB24:
 504              	.LBB20:
  61:user/time/time.c ****     yearLow = yearTemp % 100;
 505              		.loc 1 61 14 view .LVU168
 506 00aa 394A     		ldr	r2, .L51+8
 507 00ac 82FB0121 		smull	r2, r1, r2, r1
 508 00b0 CCEB6111 		rsb	r1, ip, r1, asr #5
  65:user/time/time.c ****     wk = (wk + 140) % 7;
 509              		.loc 1 65 66 view .LVU169
 510 00b4 A3EB4103 		sub	r3, r3, r1, lsl #1
  66:user/time/time.c **** 
 511              		.loc 1 66 21 view .LVU170
 512 00b8 364A     		ldr	r2, .L51+12
  66:user/time/time.c **** 
 513              		.loc 1 66 14 view .LVU171
 514 00ba 5BB2     		sxtb	r3, r3
 515 00bc 8C33     		adds	r3, r3, #140
  66:user/time/time.c **** 
 516              		.loc 1 66 21 view .LVU172
 517 00be A2FB0312 		umull	r1, r2, r2, r3
 518 00c2 991A     		subs	r1, r3, r2
 519 00c4 02EB5102 		add	r2, r2, r1, lsr #1
 520 00c8 9208     		lsrs	r2, r2, #2
 521 00ca C2EBC202 		rsb	r2, r2, r2, lsl #3
 522 00ce 9B1A     		subs	r3, r3, r2
  68:user/time/time.c **** }
 523              		.loc 1 68 11 view .LVU173
 524 00d0 2371     		strb	r3, [r4, #4]
 525              	.LBE20:
 526              	.LBE24:
 119:user/time/time.c **** }
 527              		.loc 1 119 1 view .LVU174
 528 00d2 05B0     		add	sp, sp, #20
 529              	.LCFI4:
 530              		.cfi_remember_state
 531              		.cfi_def_cfa_offset 20
 532              		@ sp needed
 533 00d4 F0BD     		pop	{r4, r5, r6, r7, pc}
ARM GAS  C:\Users\WENHUA~1\AppData\Local\Temp\ccxsB6FI.s 			page 14


 534              	.L48:
 535              	.LCFI5:
 536              		.cfi_restore_state
  90:user/time/time.c ****     if (g_time.min < 60) {
 537              		.loc 1 90 15 view .LVU175
 538 00d6 6370     		strb	r3, [r4, #1]
 539              	.L26:
  86:user/time/time.c ****     }
 540              		.loc 1 86 16 view .LVU176
 541 00d8 0020     		movs	r0, #0
 542              		.loc 1 119 1 view .LVU177
 543 00da 05B0     		add	sp, sp, #20
 544              	.LCFI6:
 545              		.cfi_remember_state
 546              		.cfi_def_cfa_offset 20
 547              		@ sp needed
 548 00dc F0BD     		pop	{r4, r5, r6, r7, pc}
 549              	.L47:
 550              	.LCFI7:
 551              		.cfi_restore_state
  84:user/time/time.c ****     if (g_time.sec < 60) {
 552              		.loc 1 84 15 view .LVU178
 553 00de 2370     		strb	r3, [r4]
 554 00e0 FAE7     		b	.L26
 555              	.LVL20:
 556              	.L50:
 557              	.LBB25:
 558              	.LBB13:
  18:user/time/time.c ****             day = 29;
 559              		.loc 1 18 9 is_stmt 1 view .LVU179
  18:user/time/time.c ****             day = 29;
 560              		.loc 1 18 12 is_stmt 0 view .LVU180
 561 00e2 AB07     		lsls	r3, r5, #30
 562 00e4 2AD0     		beq	.L45
 563 00e6 AB00     		lsls	r3, r5, #2
 564              	.L29:
 565 00e8 2B44     		add	r3, r3, r5
 566 00ea 05EBC303 		add	r3, r5, r3, lsl #3
 567 00ee A3EB8323 		sub	r3, r3, r3, lsl #10
 568 00f2 C3F30B12 		ubfx	r2, r3, #4, #12
 569 00f6 42EA0333 		orr	r3, r2, r3, lsl #12
  18:user/time/time.c ****             day = 29;
 570              		.loc 1 18 52 view .LVU181
 571 00fa 9BB2     		uxth	r3, r3
 572 00fc A32B     		cmp	r3, #163
 573 00fe 2FD9     		bls	.L31
  21:user/time/time.c ****         }
 574              		.loc 1 21 17 view .LVU182
 575 0100 1C23     		movs	r3, #28
 576              	.L30:
 577              	.LVL21:
  27:user/time/time.c **** }
 578              		.loc 1 27 5 is_stmt 1 view .LVU183
  27:user/time/time.c **** }
 579              		.loc 1 27 5 is_stmt 0 view .LVU184
 580              	.LBE13:
 581              	.LBE25:
ARM GAS  C:\Users\WENHUA~1\AppData\Local\Temp\ccxsB6FI.s 			page 15


 103:user/time/time.c ****         goto calc_week;
 582              		.loc 1 103 8 view .LVU185
 583 0102 9F42     		cmp	r7, r3
 584 0104 3CD9     		bls	.L38
 107:user/time/time.c ****     g_time.month++;
 585              		.loc 1 107 5 is_stmt 1 view .LVU186
 107:user/time/time.c ****     g_time.month++;
 586              		.loc 1 107 16 is_stmt 0 view .LVU187
 587 0106 0123     		movs	r3, #1
 108:user/time/time.c ****     if (g_time.month < 13) {
 588              		.loc 1 108 17 view .LVU188
 589 0108 4FF0030E 		mov	lr, #3
 107:user/time/time.c ****     g_time.month++;
 590              		.loc 1 107 16 view .LVU189
 591 010c E370     		strb	r3, [r4, #3]
 108:user/time/time.c ****     if (g_time.month < 13) {
 592              		.loc 1 108 5 is_stmt 1 view .LVU190
 109:user/time/time.c ****         goto calc_week;
 593              		.loc 1 109 5 view .LVU191
 594              	.L39:
 108:user/time/time.c ****     if (g_time.month < 13) {
 595              		.loc 1 108 17 is_stmt 0 view .LVU192
 596 010e 4FF0000C 		mov	ip, #0
 597 0112 84F805E0 		strb	lr, [r4, #5]
 598              	.L32:
 117:user/time/time.c ****     return true;
 599              		.loc 1 117 5 is_stmt 1 view .LVU193
 600              	.LVL22:
 601              	.LBB26:
  45:user/time/time.c **** {
 602              		.loc 1 45 6 view .LVU194
 603              	.LBB21:
  47:user/time/time.c ****     int16_t yearHigh;
 604              		.loc 1 47 5 view .LVU195
  48:user/time/time.c ****     int16_t yearLow;
 605              		.loc 1 48 5 view .LVU196
  49:user/time/time.c ****     int8_t monthTemp = 0;
 606              		.loc 1 49 5 view .LVU197
  50:user/time/time.c ****     int8_t wk;
 607              		.loc 1 50 5 view .LVU198
  51:user/time/time.c **** 
 608              		.loc 1 51 5 view .LVU199
  53:user/time/time.c ****         monthTemp = month + 12;
 609              		.loc 1 53 5 view .LVU200
  53:user/time/time.c ****         monthTemp = month + 12;
 610              		.loc 1 53 8 is_stmt 0 view .LVU201
 611 0116 BEF1020F 		cmp	lr, #2
 612 011a 24D9     		bls	.L40
  57:user/time/time.c ****         yearTemp = year;
 613              		.loc 1 57 9 is_stmt 1 view .LVU202
 614              	.LVL23:
  58:user/time/time.c ****     }
 615              		.loc 1 58 9 view .LVU203
  65:user/time/time.c ****     wk = (wk + 140) % 7;
 616              		.loc 1 65 36 is_stmt 0 view .LVU204
 617 011c 1A22     		movs	r2, #26
  65:user/time/time.c ****     wk = (wk + 140) % 7;
ARM GAS  C:\Users\WENHUA~1\AppData\Local\Temp\ccxsB6FI.s 			page 16


 618              		.loc 1 65 49 view .LVU205
 619 011e 4FFA8EF3 		sxtb	r3, lr
  65:user/time/time.c ****     wk = (wk + 140) % 7;
 620              		.loc 1 65 36 view .LVU206
 621 0122 03FB0222 		mla	r2, r3, r2, r2
  65:user/time/time.c ****     wk = (wk + 140) % 7;
 622              		.loc 1 65 54 view .LVU207
 623 0126 1C48     		ldr	r0, .L51+16
  58:user/time/time.c ****     }
 624              		.loc 1 58 18 view .LVU208
 625 0128 29B2     		sxth	r1, r5
 626              	.LVL24:
  65:user/time/time.c ****     wk = (wk + 140) % 7;
 627              		.loc 1 65 54 view .LVU209
 628 012a 80FB0230 		smull	r3, r0, r0, r2
 629 012e D317     		asrs	r3, r2, #31
 630 0130 C3EBA003 		rsb	r3, r3, r0, asr #2
  65:user/time/time.c ****     wk = (wk + 140) % 7;
 631              		.loc 1 65 30 view .LVU210
 632 0134 DBB2     		uxtb	r3, r3
 633 0136 A2E7     		b	.L36
 634              	.LVL25:
 635              	.L49:
  65:user/time/time.c ****     wk = (wk + 140) % 7;
 636              		.loc 1 65 30 view .LVU211
 637              	.LBE21:
 638              	.LBE26:
  96:user/time/time.c ****     if (g_time.hour < 24) {
 639              		.loc 1 96 16 view .LVU212
 640 0138 A370     		strb	r3, [r4, #2]
 641 013a CDE7     		b	.L26
 642              	.LVL26:
 643              	.L45:
 644              	.LBB27:
 645              	.LBB14:
  96:user/time/time.c ****     if (g_time.hour < 24) {
 646              		.loc 1 96 16 view .LVU213
 647 013c 05EB8503 		add	r3, r5, r5, lsl #2
 648 0140 05EBC303 		add	r3, r5, r3, lsl #3
 649 0144 A3EB8323 		sub	r3, r3, r3, lsl #10
 650 0148 C3F38D02 		ubfx	r2, r3, #2, #14
 651 014c 42EA8333 		orr	r3, r2, r3, lsl #14
  18:user/time/time.c ****             day = 29;
 652              		.loc 1 18 30 view .LVU214
 653 0150 9AB2     		uxth	r2, r3
 654 0152 B2F5247F 		cmp	r2, #656
 655 0156 4FEA8503 		lsl	r3, r5, #2
 656 015a C5D3     		bcc	.L29
  19:user/time/time.c ****         } else {
 657              		.loc 1 19 17 view .LVU215
 658 015c 1D23     		movs	r3, #29
 659 015e D0E7     		b	.L30
 660              	.L31:
 661              	.LVL27:
  27:user/time/time.c **** }
 662              		.loc 1 27 5 is_stmt 1 view .LVU216
  27:user/time/time.c **** }
ARM GAS  C:\Users\WENHUA~1\AppData\Local\Temp\ccxsB6FI.s 			page 17


 663              		.loc 1 27 5 is_stmt 0 view .LVU217
 664              	.LBE14:
 665              	.LBE27:
 103:user/time/time.c ****         goto calc_week;
 666              		.loc 1 103 8 view .LVU218
 667 0160 1D2F     		cmp	r7, #29
 668 0162 3FF67CAF 		bhi	.L41
 669              	.L40:
 670              	.LVL28:
 671              	.LBB28:
 672              	.LBB22:
  65:user/time/time.c ****     wk = (wk + 140) % 7;
 673              		.loc 1 65 36 view .LVU219
 674 0166 1A20     		movs	r0, #26
  65:user/time/time.c ****     wk = (wk + 140) % 7;
 675              		.loc 1 65 54 view .LVU220
 676 0168 0A22     		movs	r2, #10
  65:user/time/time.c ****     wk = (wk + 140) % 7;
 677              		.loc 1 65 49 view .LVU221
 678 016a 0EF10D03 		add	r3, lr, #13
 679 016e DBB2     		uxtb	r3, r3
  65:user/time/time.c ****     wk = (wk + 140) % 7;
 680              		.loc 1 65 36 view .LVU222
 681 0170 00FB03F3 		mul	r3, r0, r3
  65:user/time/time.c ****     wk = (wk + 140) % 7;
 682              		.loc 1 65 54 view .LVU223
 683 0174 B3FBF2F3 		udiv	r3, r3, r2
  55:user/time/time.c ****     } else {
 684              		.loc 1 55 25 view .LVU224
 685 0178 691E     		subs	r1, r5, #1
 686 017a 8DB2     		uxth	r5, r1
 687              	.LVL29:
  65:user/time/time.c ****     wk = (wk + 140) % 7;
 688              		.loc 1 65 30 view .LVU225
 689 017c DBB2     		uxtb	r3, r3
 690 017e 7DE7     		b	.L34
 691              	.LVL30:
 692              	.L38:
  65:user/time/time.c ****     wk = (wk + 140) % 7;
 693              		.loc 1 65 30 view .LVU226
 694              	.LBE22:
 695              	.LBE28:
 117:user/time/time.c ****     return true;
 696              		.loc 1 117 5 is_stmt 1 view .LVU227
 697              	.LBB29:
  45:user/time/time.c **** {
 698              		.loc 1 45 6 view .LVU228
 699              	.LBB23:
  47:user/time/time.c ****     int16_t yearHigh;
 700              		.loc 1 47 5 view .LVU229
  48:user/time/time.c ****     int16_t yearLow;
 701              		.loc 1 48 5 view .LVU230
  49:user/time/time.c ****     int8_t monthTemp = 0;
 702              		.loc 1 49 5 view .LVU231
  50:user/time/time.c ****     int8_t wk;
 703              		.loc 1 50 5 view .LVU232
  51:user/time/time.c **** 
ARM GAS  C:\Users\WENHUA~1\AppData\Local\Temp\ccxsB6FI.s 			page 18


 704              		.loc 1 51 5 view .LVU233
  53:user/time/time.c ****         monthTemp = month + 12;
 705              		.loc 1 53 5 view .LVU234
  55:user/time/time.c ****     } else {
 706              		.loc 1 55 25 is_stmt 0 view .LVU235
 707 0180 691E     		subs	r1, r5, #1
 708 0182 2723     		movs	r3, #39
 709 0184 8DB2     		uxth	r5, r1
 710              	.LVL31:
  55:user/time/time.c ****     } else {
 711              		.loc 1 55 25 view .LVU236
 712 0186 79E7     		b	.L34
 713              	.L52:
 714              		.align	2
 715              	.L51:
 716 0188 00000000 		.word	.LANCHOR1
 717 018c 00000000 		.word	.LANCHOR2
 718 0190 1F85EB51 		.word	1374389535
 719 0194 25499224 		.word	613566757
 720 0198 67666666 		.word	1717986919
 721              	.LBE23:
 722              	.LBE29:
 723              		.cfi_endproc
 724              	.LFE74:
 726              		.section	.rodata.GetClock.str1.4,"aMS",%progbits,1
 727              		.align	2
 728              	.LC1:
 729 0000 0D0A6765 		.ascii	"\015\012get time: %d-%d-%d %02d:%02d:%02d \015\012\000"
 729      74207469 
 729      6D653A20 
 729      25642D25 
 729      642D2564 
 730              		.section	.text.GetClock,"ax",%progbits
 731              		.align	1
 732              		.p2align 2,,3
 733              		.global	GetClock
 734              		.syntax unified
 735              		.thumb
 736              		.thumb_func
 738              	GetClock:
 739              	.LFB75:
 120:user/time/time.c **** 
 121:user/time/time.c **** void GetClock(void)
 122:user/time/time.c **** {
 740              		.loc 1 122 1 is_stmt 1 view -0
 741              		.cfi_startproc
 742              		@ args = 0, pretend = 0, frame = 8
 743              		@ frame_needed = 0, uses_anonymous_args = 0
 123:user/time/time.c ****     RTC_TimeTypeDef sTime;
 744              		.loc 1 123 5 view .LVU238
 124:user/time/time.c ****     RTC_DateTypeDef sDate;
 745              		.loc 1 124 5 view .LVU239
 125:user/time/time.c **** 
 126:user/time/time.c ****     HAL_RTC_GetTime(&hrtc, &sTime, RTC_FORMAT_BIN);
 746              		.loc 1 126 5 view .LVU240
 122:user/time/time.c ****     RTC_TimeTypeDef sTime;
 747              		.loc 1 122 1 is_stmt 0 view .LVU241
ARM GAS  C:\Users\WENHUA~1\AppData\Local\Temp\ccxsB6FI.s 			page 19


 748 0000 30B5     		push	{r4, r5, lr}
 749              	.LCFI8:
 750              		.cfi_def_cfa_offset 12
 751              		.cfi_offset 4, -12
 752              		.cfi_offset 5, -8
 753              		.cfi_offset 14, -4
 754              		.loc 1 126 5 view .LVU242
 755 0002 1F4C     		ldr	r4, .L55
 122:user/time/time.c ****     RTC_TimeTypeDef sTime;
 756              		.loc 1 122 1 view .LVU243
 757 0004 89B0     		sub	sp, sp, #36
 758              	.LCFI9:
 759              		.cfi_def_cfa_offset 48
 760              		.loc 1 126 5 view .LVU244
 761 0006 06A9     		add	r1, sp, #24
 762 0008 0022     		movs	r2, #0
 763 000a 2046     		mov	r0, r4
 764 000c FFF7FEFF 		bl	HAL_RTC_GetTime
 765              	.LVL32:
 127:user/time/time.c ****     HAL_RTC_GetDate(&hrtc, &sDate, RTC_FORMAT_BIN);
 766              		.loc 1 127 5 is_stmt 1 view .LVU245
 767 0010 07A9     		add	r1, sp, #28
 768 0012 0022     		movs	r2, #0
 769 0014 2046     		mov	r0, r4
 770 0016 FFF7FEFF 		bl	HAL_RTC_GetDate
 771              	.LVL33:
 128:user/time/time.c **** 
 129:user/time/time.c ****     g_time.sec = sTime.Seconds;
 772              		.loc 1 129 5 view .LVU246
 773              		.loc 1 129 16 is_stmt 0 view .LVU247
 774 001a 1A4C     		ldr	r4, .L55+4
 130:user/time/time.c ****     g_time.min = sTime.Minutes;
 775              		.loc 1 130 16 view .LVU248
 776 001c 9DF81920 		ldrb	r2, [sp, #25]	@ zero_extendqisi2
 129:user/time/time.c ****     g_time.min = sTime.Minutes;
 777              		.loc 1 129 16 view .LVU249
 778 0020 9DF81A10 		ldrb	r1, [sp, #26]	@ zero_extendqisi2
 779              		.loc 1 130 16 view .LVU250
 780 0024 6270     		strb	r2, [r4, #1]
 131:user/time/time.c ****     g_time.hour = sTime.Hours;
 132:user/time/time.c **** 
 133:user/time/time.c ****     g_time.day = sDate.Date;
 781              		.loc 1 133 16 view .LVU251
 782 0026 9DF81E20 		ldrb	r2, [sp, #30]	@ zero_extendqisi2
 131:user/time/time.c ****     g_time.hour = sTime.Hours;
 783              		.loc 1 131 17 view .LVU252
 784 002a 9DF81800 		ldrb	r0, [sp, #24]	@ zero_extendqisi2
 134:user/time/time.c ****     g_time.month = sDate.Month;
 135:user/time/time.c ****     g_time.week = sDate.WeekDay;
 136:user/time/time.c ****     g_time.year = (sDate.Year + 2000);
 785              		.loc 1 136 25 view .LVU253
 786 002e 9DF81F30 		ldrb	r3, [sp, #31]	@ zero_extendqisi2
 129:user/time/time.c ****     g_time.min = sTime.Minutes;
 787              		.loc 1 129 16 view .LVU254
 788 0032 2170     		strb	r1, [r4]
 130:user/time/time.c ****     g_time.hour = sTime.Hours;
 789              		.loc 1 130 5 is_stmt 1 view .LVU255
ARM GAS  C:\Users\WENHUA~1\AppData\Local\Temp\ccxsB6FI.s 			page 20


 131:user/time/time.c **** 
 790              		.loc 1 131 5 view .LVU256
 133:user/time/time.c ****     g_time.month = sDate.Month;
 791              		.loc 1 133 16 is_stmt 0 view .LVU257
 792 0034 E270     		strb	r2, [r4, #3]
 134:user/time/time.c ****     g_time.week = sDate.WeekDay;
 793              		.loc 1 134 18 view .LVU258
 794 0036 9DF81D10 		ldrb	r1, [sp, #29]	@ zero_extendqisi2
 135:user/time/time.c ****     g_time.year = (sDate.Year + 2000);
 795              		.loc 1 135 17 view .LVU259
 796 003a 9DF81C20 		ldrb	r2, [sp, #28]	@ zero_extendqisi2
 797              		.loc 1 136 31 view .LVU260
 798 003e 03F5FA63 		add	r3, r3, #2000
 131:user/time/time.c **** 
 799              		.loc 1 131 17 view .LVU261
 800 0042 A070     		strb	r0, [r4, #2]
 133:user/time/time.c ****     g_time.month = sDate.Month;
 801              		.loc 1 133 5 is_stmt 1 view .LVU262
 134:user/time/time.c ****     g_time.week = sDate.WeekDay;
 802              		.loc 1 134 5 view .LVU263
 137:user/time/time.c **** 
 138:user/time/time.c ****     HUB75D_CalculateCalendar(&g_time);
 803              		.loc 1 138 5 is_stmt 0 view .LVU264
 804 0044 2046     		mov	r0, r4
 134:user/time/time.c ****     g_time.week = sDate.WeekDay;
 805              		.loc 1 134 18 view .LVU265
 806 0046 6171     		strb	r1, [r4, #5]
 135:user/time/time.c ****     g_time.year = (sDate.Year + 2000);
 807              		.loc 1 135 5 is_stmt 1 view .LVU266
 135:user/time/time.c ****     g_time.year = (sDate.Year + 2000);
 808              		.loc 1 135 17 is_stmt 0 view .LVU267
 809 0048 2271     		strb	r2, [r4, #4]
 136:user/time/time.c **** 
 810              		.loc 1 136 5 is_stmt 1 view .LVU268
 136:user/time/time.c **** 
 811              		.loc 1 136 17 is_stmt 0 view .LVU269
 812 004a E380     		strh	r3, [r4, #6]	@ movhi
 813              		.loc 1 138 5 is_stmt 1 view .LVU270
 814 004c FFF7FEFF 		bl	HUB75D_CalculateCalendar
 815              	.LVL34:
 139:user/time/time.c ****     CalculationLunarCalendar(&g_time);
 816              		.loc 1 139 5 view .LVU271
 817 0050 2046     		mov	r0, r4
 818 0052 FFF7FEFF 		bl	CalculationLunarCalendar
 819              	.LVL35:
 140:user/time/time.c **** 
 141:user/time/time.c ****     TRACE_PRINTF("\r\nget time: %d-%d-%d %02d:%02d:%02d \r\n", g_time.year, g_time.month, g_time.da
 820              		.loc 1 141 5 view .LVU272
 821              		.loc 1 141 5 view .LVU273
 822 0056 0022     		movs	r2, #0
 823 0058 2178     		ldrb	r1, [r4]	@ zero_extendqisi2
 824 005a 6378     		ldrb	r3, [r4, #1]	@ zero_extendqisi2
 825 005c A578     		ldrb	r5, [r4, #2]	@ zero_extendqisi2
 826 005e CDE90431 		strd	r3, r1, [sp, #16]
 827 0062 E378     		ldrb	r3, [r4, #3]	@ zero_extendqisi2
 828 0064 6079     		ldrb	r0, [r4, #5]	@ zero_extendqisi2
 829 0066 E188     		ldrh	r1, [r4, #6]
ARM GAS  C:\Users\WENHUA~1\AppData\Local\Temp\ccxsB6FI.s 			page 21


 830 0068 CDE90235 		strd	r3, r5, [sp, #8]
 831 006c CDE90010 		strd	r1, r0, [sp]
 832 0070 054B     		ldr	r3, .L55+8
 833 0072 1146     		mov	r1, r2
 834 0074 1046     		mov	r0, r2
 835 0076 FFF7FEFF 		bl	TRACE_COND_FSend
 836              	.LVL36:
 837              		.loc 1 141 5 view .LVU274
 142:user/time/time.c ****            g_time.sec);
 143:user/time/time.c **** }
 838              		.loc 1 143 1 is_stmt 0 view .LVU275
 839 007a 09B0     		add	sp, sp, #36
 840              	.LCFI10:
 841              		.cfi_def_cfa_offset 12
 842              		@ sp needed
 843 007c 30BD     		pop	{r4, r5, pc}
 844              	.L56:
 845 007e 00BF     		.align	2
 846              	.L55:
 847 0080 00000000 		.word	hrtc
 848 0084 00000000 		.word	.LANCHOR1
 849 0088 00000000 		.word	.LC1
 850              		.cfi_endproc
 851              	.LFE75:
 853              		.section	.rodata.SetClock.str1.4,"aMS",%progbits,1
 854              		.align	2
 855              	.LC2:
 856 0000 0D0A7365 		.ascii	"\015\012set time: %d-%d-%d %02d:%02d:%02d \015\012\000"
 856      74207469 
 856      6D653A20 
 856      25642D25 
 856      642D2564 
 857              		.section	.text.SetClock,"ax",%progbits
 858              		.align	1
 859              		.p2align 2,,3
 860              		.global	SetClock
 861              		.syntax unified
 862              		.thumb
 863              		.thumb_func
 865              	SetClock:
 866              	.LVL37:
 867              	.LFB76:
 144:user/time/time.c **** 
 145:user/time/time.c **** void SetClock(struct TimeType *time)
 146:user/time/time.c **** {
 868              		.loc 1 146 1 is_stmt 1 view -0
 869              		.cfi_startproc
 870              		@ args = 0, pretend = 0, frame = 8
 871              		@ frame_needed = 0, uses_anonymous_args = 0
 147:user/time/time.c ****     RTC_TimeTypeDef sTime;
 872              		.loc 1 147 5 view .LVU277
 148:user/time/time.c ****     RTC_DateTypeDef sDate;
 873              		.loc 1 148 5 view .LVU278
 149:user/time/time.c **** 
 150:user/time/time.c ****     sTime.Seconds = time->sec;
 874              		.loc 1 150 5 view .LVU279
 146:user/time/time.c ****     RTC_TimeTypeDef sTime;
ARM GAS  C:\Users\WENHUA~1\AppData\Local\Temp\ccxsB6FI.s 			page 22


 875              		.loc 1 146 1 is_stmt 0 view .LVU280
 876 0000 70B5     		push	{r4, r5, r6, lr}
 877              	.LCFI11:
 878              		.cfi_def_cfa_offset 16
 879              		.cfi_offset 4, -16
 880              		.cfi_offset 5, -12
 881              		.cfi_offset 6, -8
 882              		.cfi_offset 14, -4
 883 0002 0446     		mov	r4, r0
 151:user/time/time.c ****     sTime.Minutes = time->min;
 152:user/time/time.c ****     sTime.Hours = time->hour;
 153:user/time/time.c **** 
 154:user/time/time.c ****     sDate.Date = time->day;
 155:user/time/time.c ****     sDate.Month = time->month;
 156:user/time/time.c ****     sDate.WeekDay = time->week;
 157:user/time/time.c ****     sDate.Year = (time->year % 100);
 884              		.loc 1 157 16 view .LVU281
 885 0004 4FF0640E 		mov	lr, #100
 886 0008 B4F806C0 		ldrh	ip, [r4, #6]
 150:user/time/time.c ****     sTime.Minutes = time->min;
 887              		.loc 1 150 19 view .LVU282
 888 000c 2678     		ldrb	r6, [r4]	@ zero_extendqisi2
 889              		.loc 1 157 16 view .LVU283
 890 000e 1C4B     		ldr	r3, .L59
 146:user/time/time.c ****     RTC_TimeTypeDef sTime;
 891              		.loc 1 146 1 view .LVU284
 892 0010 88B0     		sub	sp, sp, #32
 893              	.LCFI12:
 894              		.cfi_def_cfa_offset 48
 150:user/time/time.c ****     sTime.Minutes = time->min;
 895              		.loc 1 150 19 view .LVU285
 896 0012 8DF81A60 		strb	r6, [sp, #26]
 151:user/time/time.c ****     sTime.Minutes = time->min;
 897              		.loc 1 151 5 is_stmt 1 view .LVU286
 898              		.loc 1 157 16 is_stmt 0 view .LVU287
 899 0016 A3FB0C63 		umull	r6, r3, r3, ip
 900 001a 5B09     		lsrs	r3, r3, #5
 901 001c 0EFB13C3 		mls	r3, lr, r3, ip
 902 0020 8DF81F30 		strb	r3, [sp, #31]
 151:user/time/time.c ****     sTime.Minutes = time->min;
 903              		.loc 1 151 19 view .LVU288
 904 0024 6378     		ldrb	r3, [r4, #1]	@ zero_extendqisi2
 158:user/time/time.c **** 
 159:user/time/time.c ****     HAL_RTC_SetTime(&hrtc, &sTime, RTC_FORMAT_BIN);
 905              		.loc 1 159 5 view .LVU289
 906 0026 174D     		ldr	r5, .L59+4
 151:user/time/time.c ****     sTime.Hours = time->hour;
 907              		.loc 1 151 19 view .LVU290
 908 0028 8DF81930 		strb	r3, [sp, #25]
 152:user/time/time.c **** 
 909              		.loc 1 152 5 is_stmt 1 view .LVU291
 152:user/time/time.c **** 
 910              		.loc 1 152 17 is_stmt 0 view .LVU292
 911 002c A378     		ldrb	r3, [r4, #2]	@ zero_extendqisi2
 912              		.loc 1 159 5 view .LVU293
 913 002e 06A9     		add	r1, sp, #24
 152:user/time/time.c **** 
ARM GAS  C:\Users\WENHUA~1\AppData\Local\Temp\ccxsB6FI.s 			page 23


 914              		.loc 1 152 17 view .LVU294
 915 0030 8DF81830 		strb	r3, [sp, #24]
 154:user/time/time.c ****     sDate.Month = time->month;
 916              		.loc 1 154 5 is_stmt 1 view .LVU295
 154:user/time/time.c ****     sDate.Month = time->month;
 917              		.loc 1 154 16 is_stmt 0 view .LVU296
 918 0034 E378     		ldrb	r3, [r4, #3]	@ zero_extendqisi2
 919              		.loc 1 159 5 view .LVU297
 920 0036 0022     		movs	r2, #0
 154:user/time/time.c ****     sDate.Month = time->month;
 921              		.loc 1 154 16 view .LVU298
 922 0038 8DF81E30 		strb	r3, [sp, #30]
 155:user/time/time.c ****     sDate.WeekDay = time->week;
 923              		.loc 1 155 5 is_stmt 1 view .LVU299
 155:user/time/time.c ****     sDate.WeekDay = time->week;
 924              		.loc 1 155 17 is_stmt 0 view .LVU300
 925 003c 6379     		ldrb	r3, [r4, #5]	@ zero_extendqisi2
 926              		.loc 1 159 5 view .LVU301
 927 003e 2846     		mov	r0, r5
 928              	.LVL38:
 155:user/time/time.c ****     sDate.WeekDay = time->week;
 929              		.loc 1 155 17 view .LVU302
 930 0040 8DF81D30 		strb	r3, [sp, #29]
 156:user/time/time.c ****     sDate.Year = (time->year % 100);
 931              		.loc 1 156 5 is_stmt 1 view .LVU303
 156:user/time/time.c ****     sDate.Year = (time->year % 100);
 932              		.loc 1 156 19 is_stmt 0 view .LVU304
 933 0044 2379     		ldrb	r3, [r4, #4]	@ zero_extendqisi2
 934 0046 8DF81C30 		strb	r3, [sp, #28]
 157:user/time/time.c **** 
 935              		.loc 1 157 5 is_stmt 1 view .LVU305
 936              		.loc 1 159 5 view .LVU306
 937 004a FFF7FEFF 		bl	HAL_RTC_SetTime
 938              	.LVL39:
 160:user/time/time.c ****     HAL_RTC_SetDate(&hrtc, &sDate, RTC_FORMAT_BIN);
 939              		.loc 1 160 5 view .LVU307
 940 004e 07A9     		add	r1, sp, #28
 941 0050 0022     		movs	r2, #0
 942 0052 2846     		mov	r0, r5
 943 0054 FFF7FEFF 		bl	HAL_RTC_SetDate
 944              	.LVL40:
 161:user/time/time.c **** 
 162:user/time/time.c ****     TRACE_PRINTF("\r\nset time: %d-%d-%d %02d:%02d:%02d \r\n", time->year, time->month, time->day, 
 945              		.loc 1 162 5 view .LVU308
 946              		.loc 1 162 5 view .LVU309
 947 0058 0022     		movs	r2, #0
 948 005a 2178     		ldrb	r1, [r4]	@ zero_extendqisi2
 949 005c 6378     		ldrb	r3, [r4, #1]	@ zero_extendqisi2
 950 005e A578     		ldrb	r5, [r4, #2]	@ zero_extendqisi2
 951 0060 CDE90431 		strd	r3, r1, [sp, #16]
 952 0064 E378     		ldrb	r3, [r4, #3]	@ zero_extendqisi2
 953 0066 6079     		ldrb	r0, [r4, #5]	@ zero_extendqisi2
 954 0068 E188     		ldrh	r1, [r4, #6]
 955 006a CDE90235 		strd	r3, r5, [sp, #8]
 956 006e CDE90010 		strd	r1, r0, [sp]
 957 0072 054B     		ldr	r3, .L59+8
 958 0074 1146     		mov	r1, r2
ARM GAS  C:\Users\WENHUA~1\AppData\Local\Temp\ccxsB6FI.s 			page 24


 959 0076 1046     		mov	r0, r2
 960 0078 FFF7FEFF 		bl	TRACE_COND_FSend
 961              	.LVL41:
 962              		.loc 1 162 5 view .LVU310
 163:user/time/time.c ****            time->sec);
 164:user/time/time.c **** }
 963              		.loc 1 164 1 is_stmt 0 view .LVU311
 964 007c 08B0     		add	sp, sp, #32
 965              	.LCFI13:
 966              		.cfi_def_cfa_offset 16
 967              		@ sp needed
 968 007e 70BD     		pop	{r4, r5, r6, pc}
 969              	.LVL42:
 970              	.L60:
 971              		.loc 1 164 1 view .LVU312
 972              		.align	2
 973              	.L59:
 974 0080 1F85EB51 		.word	1374389535
 975 0084 00000000 		.word	hrtc
 976 0088 00000000 		.word	.LC2
 977              		.cfi_endproc
 978              	.LFE76:
 980              		.global	g_time
 981              		.section	.rodata
 982              		.align	2
 983              		.set	.LANCHOR2,. + 0
 984              	.LC0:
 985 0000 001F1C1F 		.ascii	"\000\037\034\037\036\037\036\037\037\036\037\036\037"
 985      1E1F1E1F 
 985      1F1E1F1E 
 985      1F
 986              		.section	.bss.g_1sFlag,"aw",%nobits
 987              		.set	.LANCHOR0,. + 0
 990              	g_1sFlag:
 991 0000 00       		.space	1
 992              		.section	.bss.g_time,"aw",%nobits
 993              		.align	2
 994              		.set	.LANCHOR1,. + 0
 997              	g_time:
 998 0000 00000000 		.space	8
 998      00000000 
 999              		.text
 1000              	.Letext0:
 1001              		.file 2 "d:\\program files (x86)\\gnu arm embedded toolchain\\10 2021.10\\arm-none-eabi\\include\\
 1002              		.file 3 "d:\\program files (x86)\\gnu arm embedded toolchain\\10 2021.10\\arm-none-eabi\\include\\
 1003              		.file 4 "user/time/time.h"
 1004              		.file 5 "Drivers/CMSIS/Device/ST/STM32F1xx/Include/stm32f103xb.h"
 1005              		.file 6 "Drivers/STM32F1xx_HAL_Driver/Inc/stm32f1xx_hal_def.h"
 1006              		.file 7 "Drivers/STM32F1xx_HAL_Driver/Inc/stm32f1xx_hal_rtc.h"
 1007              		.file 8 "Core/Inc/rtc.h"
 1008              		.file 9 "user/trace/trace.h"
 1009              		.file 10 "user/hub75d/hub75d.h"
 1010              		.file 11 "user/lunar_calendar/lunar_calendar.h"
ARM GAS  C:\Users\WENHUA~1\AppData\Local\Temp\ccxsB6FI.s 			page 25


DEFINED SYMBOLS
                            *ABS*:00000000 time.c
C:\Users\WENHUA~1\AppData\Local\Temp\ccxsB6FI.s:18     .text.Get1sFlag:00000000 $t
C:\Users\WENHUA~1\AppData\Local\Temp\ccxsB6FI.s:25     .text.Get1sFlag:00000000 Get1sFlag
C:\Users\WENHUA~1\AppData\Local\Temp\ccxsB6FI.s:42     .text.Get1sFlag:00000008 $d
C:\Users\WENHUA~1\AppData\Local\Temp\ccxsB6FI.s:47     .text.Set1sFlag:00000000 $t
C:\Users\WENHUA~1\AppData\Local\Temp\ccxsB6FI.s:54     .text.Set1sFlag:00000000 Set1sFlag
C:\Users\WENHUA~1\AppData\Local\Temp\ccxsB6FI.s:71     .text.Set1sFlag:00000008 $d
C:\Users\WENHUA~1\AppData\Local\Temp\ccxsB6FI.s:76     .text.GetTimeData:00000000 $t
C:\Users\WENHUA~1\AppData\Local\Temp\ccxsB6FI.s:83     .text.GetTimeData:00000000 GetTimeData
C:\Users\WENHUA~1\AppData\Local\Temp\ccxsB6FI.s:97     .text.GetTimeData:00000004 $d
C:\Users\WENHUA~1\AppData\Local\Temp\ccxsB6FI.s:102    .text.CalculateWeek:00000000 $t
C:\Users\WENHUA~1\AppData\Local\Temp\ccxsB6FI.s:109    .text.CalculateWeek:00000000 CalculateWeek
C:\Users\WENHUA~1\AppData\Local\Temp\ccxsB6FI.s:225    .text.CalculateWeek:0000007c $d
C:\Users\WENHUA~1\AppData\Local\Temp\ccxsB6FI.s:232    .text.SetTimeData:00000000 $t
C:\Users\WENHUA~1\AppData\Local\Temp\ccxsB6FI.s:239    .text.SetTimeData:00000000 SetTimeData
C:\Users\WENHUA~1\AppData\Local\Temp\ccxsB6FI.s:293    .text.SetTimeData:00000030 $d
C:\Users\WENHUA~1\AppData\Local\Temp\ccxsB6FI.s:298    .text.ClockRun:00000000 $t
C:\Users\WENHUA~1\AppData\Local\Temp\ccxsB6FI.s:305    .text.ClockRun:00000000 ClockRun
C:\Users\WENHUA~1\AppData\Local\Temp\ccxsB6FI.s:716    .text.ClockRun:00000188 $d
C:\Users\WENHUA~1\AppData\Local\Temp\ccxsB6FI.s:727    .rodata.GetClock.str1.4:00000000 $d
C:\Users\WENHUA~1\AppData\Local\Temp\ccxsB6FI.s:731    .text.GetClock:00000000 $t
C:\Users\WENHUA~1\AppData\Local\Temp\ccxsB6FI.s:738    .text.GetClock:00000000 GetClock
C:\Users\WENHUA~1\AppData\Local\Temp\ccxsB6FI.s:847    .text.GetClock:00000080 $d
C:\Users\WENHUA~1\AppData\Local\Temp\ccxsB6FI.s:854    .rodata.SetClock.str1.4:00000000 $d
C:\Users\WENHUA~1\AppData\Local\Temp\ccxsB6FI.s:858    .text.SetClock:00000000 $t
C:\Users\WENHUA~1\AppData\Local\Temp\ccxsB6FI.s:865    .text.SetClock:00000000 SetClock
C:\Users\WENHUA~1\AppData\Local\Temp\ccxsB6FI.s:974    .text.SetClock:00000080 $d
C:\Users\WENHUA~1\AppData\Local\Temp\ccxsB6FI.s:997    .bss.g_time:00000000 g_time
C:\Users\WENHUA~1\AppData\Local\Temp\ccxsB6FI.s:982    .rodata:00000000 $d
C:\Users\WENHUA~1\AppData\Local\Temp\ccxsB6FI.s:990    .bss.g_1sFlag:00000000 g_1sFlag
C:\Users\WENHUA~1\AppData\Local\Temp\ccxsB6FI.s:991    .bss.g_1sFlag:00000000 $d
C:\Users\WENHUA~1\AppData\Local\Temp\ccxsB6FI.s:993    .bss.g_time:00000000 $d

UNDEFINED SYMBOLS
HAL_RTC_GetTime
HAL_RTC_GetDate
HUB75D_CalculateCalendar
CalculationLunarCalendar
TRACE_COND_FSend
hrtc
HAL_RTC_SetTime
HAL_RTC_SetDate
